
MP3_Player_Loop_struct.elf:     file format elf32-avr

Sections:
Idx Name          Size      VMA       LMA       File off  Algn
  0 .data         0000011c  00800100  00004c36  00004cca  2**0
                  CONTENTS, ALLOC, LOAD, DATA
  1 .text         00004c36  00000000  00000000  00000094  2**1
                  CONTENTS, ALLOC, LOAD, READONLY, CODE
  2 .bss          00000467  0080021c  0080021c  00004de6  2**0
                  ALLOC
  3 .comment      0000005c  00000000  00000000  00004de6  2**0
                  CONTENTS, READONLY
  4 .note.gnu.avr.deviceinfo 00000040  00000000  00000000  00004e44  2**2
                  CONTENTS, READONLY
  5 .debug_aranges 00000378  00000000  00000000  00004e84  2**0
                  CONTENTS, READONLY, DEBUGGING
  6 .debug_info   00007909  00000000  00000000  000051fc  2**0
                  CONTENTS, READONLY, DEBUGGING
  7 .debug_abbrev 00001d6b  00000000  00000000  0000cb05  2**0
                  CONTENTS, READONLY, DEBUGGING
  8 .debug_line   000034f5  00000000  00000000  0000e870  2**0
                  CONTENTS, READONLY, DEBUGGING
  9 .debug_frame  00000a3c  00000000  00000000  00011d68  2**2
                  CONTENTS, READONLY, DEBUGGING
 10 .debug_str    0000109f  00000000  00000000  000127a4  2**0
                  CONTENTS, READONLY, DEBUGGING
 11 .debug_loc    000040fd  00000000  00000000  00013843  2**0
                  CONTENTS, READONLY, DEBUGGING
 12 .debug_ranges 00000248  00000000  00000000  00017940  2**0
                  CONTENTS, READONLY, DEBUGGING

Disassembly of section .text:

00000000 <__vectors>:
       0:	0c 94 07 0b 	jmp	0x160e	; 0x160e <__ctors_end>
       4:	0c 94 24 0b 	jmp	0x1648	; 0x1648 <__bad_interrupt>
       8:	0c 94 24 0b 	jmp	0x1648	; 0x1648 <__bad_interrupt>
       c:	0c 94 24 0b 	jmp	0x1648	; 0x1648 <__bad_interrupt>
      10:	0c 94 24 0b 	jmp	0x1648	; 0x1648 <__bad_interrupt>
      14:	0c 94 24 0b 	jmp	0x1648	; 0x1648 <__bad_interrupt>
      18:	0c 94 24 0b 	jmp	0x1648	; 0x1648 <__bad_interrupt>
      1c:	0c 94 24 0b 	jmp	0x1648	; 0x1648 <__bad_interrupt>
      20:	0c 94 24 0b 	jmp	0x1648	; 0x1648 <__bad_interrupt>
      24:	0c 94 24 0b 	jmp	0x1648	; 0x1648 <__bad_interrupt>
      28:	0c 94 24 0b 	jmp	0x1648	; 0x1648 <__bad_interrupt>
      2c:	0c 94 24 0b 	jmp	0x1648	; 0x1648 <__bad_interrupt>
      30:	0c 94 24 0b 	jmp	0x1648	; 0x1648 <__bad_interrupt>
      34:	0c 94 24 0b 	jmp	0x1648	; 0x1648 <__bad_interrupt>
      38:	0c 94 24 0b 	jmp	0x1648	; 0x1648 <__bad_interrupt>
      3c:	0c 94 24 0b 	jmp	0x1648	; 0x1648 <__bad_interrupt>
      40:	0c 94 24 0b 	jmp	0x1648	; 0x1648 <__bad_interrupt>
      44:	0c 94 24 0b 	jmp	0x1648	; 0x1648 <__bad_interrupt>
      48:	0c 94 24 0b 	jmp	0x1648	; 0x1648 <__bad_interrupt>
      4c:	0c 94 24 0b 	jmp	0x1648	; 0x1648 <__bad_interrupt>
      50:	0c 94 24 0b 	jmp	0x1648	; 0x1648 <__bad_interrupt>
      54:	0c 94 24 0b 	jmp	0x1648	; 0x1648 <__bad_interrupt>
      58:	0c 94 24 0b 	jmp	0x1648	; 0x1648 <__bad_interrupt>
      5c:	0c 94 24 0b 	jmp	0x1648	; 0x1648 <__bad_interrupt>
      60:	0c 94 24 0b 	jmp	0x1648	; 0x1648 <__bad_interrupt>
      64:	0c 94 24 0b 	jmp	0x1648	; 0x1648 <__bad_interrupt>
      68:	0c 94 24 0b 	jmp	0x1648	; 0x1648 <__bad_interrupt>
      6c:	0c 94 24 0b 	jmp	0x1648	; 0x1648 <__bad_interrupt>
      70:	0c 94 24 0b 	jmp	0x1648	; 0x1648 <__bad_interrupt>
      74:	0c 94 24 0b 	jmp	0x1648	; 0x1648 <__bad_interrupt>
      78:	0c 94 24 0b 	jmp	0x1648	; 0x1648 <__bad_interrupt>
      7c:	0c 94 24 0b 	jmp	0x1648	; 0x1648 <__bad_interrupt>
      80:	0c 94 24 0b 	jmp	0x1648	; 0x1648 <__bad_interrupt>
      84:	0c 94 24 0b 	jmp	0x1648	; 0x1648 <__bad_interrupt>
      88:	0c 94 24 0b 	jmp	0x1648	; 0x1648 <__bad_interrupt>
      8c:	0c 94 24 0b 	jmp	0x1648	; 0x1648 <__bad_interrupt>
      90:	0c 94 24 0b 	jmp	0x1648	; 0x1648 <__bad_interrupt>
      94:	0c 94 24 0b 	jmp	0x1648	; 0x1648 <__bad_interrupt>
      98:	0c 94 24 0b 	jmp	0x1648	; 0x1648 <__bad_interrupt>
      9c:	0c 94 24 0b 	jmp	0x1648	; 0x1648 <__bad_interrupt>
      a0:	0c 94 24 0b 	jmp	0x1648	; 0x1648 <__bad_interrupt>
      a4:	0c 94 24 0b 	jmp	0x1648	; 0x1648 <__bad_interrupt>
      a8:	0c 94 24 0b 	jmp	0x1648	; 0x1648 <__bad_interrupt>
      ac:	0c 94 24 0b 	jmp	0x1648	; 0x1648 <__bad_interrupt>
      b0:	0c 94 24 0b 	jmp	0x1648	; 0x1648 <__bad_interrupt>
      b4:	0c 94 24 0b 	jmp	0x1648	; 0x1648 <__bad_interrupt>
      b8:	0c 94 24 0b 	jmp	0x1648	; 0x1648 <__bad_interrupt>
      bc:	0c 94 24 0b 	jmp	0x1648	; 0x1648 <__bad_interrupt>
      c0:	0c 94 24 0b 	jmp	0x1648	; 0x1648 <__bad_interrupt>
      c4:	0c 94 24 0b 	jmp	0x1648	; 0x1648 <__bad_interrupt>
      c8:	0c 94 24 0b 	jmp	0x1648	; 0x1648 <__bad_interrupt>

000000cc <CONFIG2>:
      cc:	3a 00 64 3a 65 bb 08 3a 09 bb 50 10 52 67 51 77     :.d:e..:..P.RgQw
      dc:	18 04 05 a1 54 01 55 21 07 00 06 0c 0b 03 50 10     ....T.U!......P.
      ec:	51 00 52 04 61 0f 64 55 65 55 18 04 05 a1 ff ff     Q.R.a.dUeU......
      fc:	ff ff                                               ..

000000fe <CONFIG>:
      fe:	3a 01 2a 04 28 00 29 00 20 00 21 00 22 00 23 00     :.*.(.). .!.".#.
     10e:	24 00 25 00 26 00 27 00 28 01 28 02 21 8f 28 03     $.%.&.'.(.(.!.(.
     11e:	21 00 28 04 28 05 28 06 28 07 28 08 28 09 28 0a     !.(.(.(.(.(.(.(.
     12e:	28 0b 28 0c 20 80 21 90 28 0d 20 00 21 00 28 0e     (.(. .!.(. .!.(.
     13e:	20 81 21 91 28 0f 20 00 21 92 28 10 21 00 28 11      .!.(. .!.(.!.(.
     14e:	21 93 28 12 21 00 28 13 28 14 28 15 20 82 28 16     !.(.!.(.(.(. .(.
     15e:	20 00 28 17 28 18 28 19 21 94 28 1a 21 95 28 1b      .(.(.(.!.(.!.(.
     16e:	21 96 28 1c 21 00 28 1d 20 83 28 1e 20 00 28 1f     !.(.!.(. .(. .(.
     17e:	21 97 28 20 21 00 28 21 28 22 28 23 28 24 28 25     !.( !.(!("(#($(%
     18e:	28 26 28 27 28 28 28 29 28 2a 20 84 28 2b 20 00     (&('((()(* .(+ .
     19e:	28 2c 28 2d 28 2e 28 2f 28 30 28 31 28 32 20 85     (,(-(.(/(0(1(2 .
     1ae:	28 33 20 00 28 34 28 35 28 36 28 37 21 98 28 38     (3 .(4(5(6(7!.(8
     1be:	21 00 28 39 28 3a 28 3b 28 3c 28 3d 28 3e 28 3f     !.(9(:(;(<(=(>(?
     1ce:	28 40 28 41 28 42 28 43 28 44 28 45 28 46 28 47     (@(A(B(C(D(E(F(G
     1de:	28 48 28 49 28 4a 28 4b 28 4c 28 4d 28 4e 28 4f     (H(I(J(K(L(M(N(O
     1ee:	28 50 28 51 28 52 28 53 28 54 28 55 28 56 28 57     (P(Q(R(S(T(U(V(W
     1fe:	28 58 28 59 28 5a 28 5b 28 5c 28 5d 28 5e 28 5f     (X(Y(Z([(\(](^(_
     20e:	28 60 28 61 28 62 21 99 28 63 21 00 28 64 28 65     (`(a(b!.(c!.(d(e
     21e:	28 66 28 67 28 68 28 69 28 6a 28 6b 28 6c 28 6d     (f(g(h(i(j(k(l(m
     22e:	28 6e 28 6f 28 70 28 71 28 72 28 73 28 74 28 75     (n(o(p(q(r(s(t(u
     23e:	28 76 28 77 28 78 28 79 28 7a 28 7b 28 7c 28 7d     (v(w(x(y(z({(|(}
     24e:	28 7e 28 7f 28 80 28 81 28 82 28 83 28 84 28 85     (~(.(.(.(.(.(.(.
     25e:	28 86 28 87 28 88 28 89 28 8a 28 8b 28 8c 28 8d     (.(.(.(.(.(.(.(.
     26e:	28 8e 28 8f 28 90 28 91 20 86 28 92 20 87 28 93     (.(.(.(. .(. .(.
     27e:	20 00 28 94 28 95 28 96 28 97 28 98 28 99 28 9a      .(.(.(.(.(.(.(.
     28e:	28 9b 28 9c 28 9d 28 9e 28 9f 21 9a 28 a0 21 00     (.(.(.(.(.!.(.!.
     29e:	28 a1 28 a2 28 a3 28 a4 28 a5 28 a6 28 a7 28 a8     (.(.(.(.(.(.(.(.
     2ae:	28 a9 28 aa 28 ab 28 ac 28 ad 28 ae 28 af 28 b0     (.(.(.(.(.(.(.(.
     2be:	28 b1 28 b2 28 b3 28 b4 28 b5 28 b6 28 b7 28 b8     (.(.(.(.(.(.(.(.
     2ce:	28 b9 20 88 28 ba 20 00 28 bb 20 89 28 bc 20 00     (. .(. .(. .(. .
     2de:	28 bd 28 be 28 bf 28 c0 28 c1 28 c2 28 c3 21 9b     (.(.(.(.(.(.(.!.
     2ee:	28 c4 21 00 28 c5 28 c6 28 c7 28 c8 28 c9 28 ca     (.!.(.(.(.(.(.(.
     2fe:	28 cb 28 cc 28 cd 28 ce 28 cf 28 d0 28 d1 28 d2     (.(.(.(.(.(.(.(.
     30e:	28 d3 28 d4 28 d5 28 d6 28 d7 28 d8 28 d9 28 da     (.(.(.(.(.(.(.(.
     31e:	28 db 28 dc 28 dd 28 de 28 df 28 e0 28 e1 20 8a     (.(.(.(.(.(.(. .
     32e:	28 e2 20 8b 28 e3 20 00 28 e4 28 e5 28 e6 28 e7     (. .(. .(.(.(.(.
     33e:	28 e8 28 e9 28 ea 28 eb 28 ec 28 ed 28 ee 28 ef     (.(.(.(.(.(.(.(.
     34e:	28 f0 28 f1 28 f2 28 f3 28 f4 28 f5 28 f6 28 f7     (.(.(.(.(.(.(.(.
     35e:	28 f8 20 8c 28 f9 20 00 21 9c 28 fa 21 9d 28 fb     (. .(. .!.(.!.(.
     36e:	20 8d 21 9e 28 fc 20 8e 21 9f 28 fd 20 00 21 00      .!.(. .!.(. .!.
     37e:	28 fe 28 ff 2a 01 28 00 22 01 23 95 24 89 25 07     (.(.*.(.".#.$.%.
     38e:	26 a4 27 07 28 01 21 c7 22 00 23 80 26 c4 27 0c     &.'.(.!.".#.&.'.
     39e:	28 02 20 09 21 1c 22 04 26 aa 27 0a 28 03 20 00     (. .!.".&.'.(. .
     3ae:	21 00 22 00 23 a6 26 a0 27 07 28 04 28 05 20 05     !.".#.&.'.(.(. .
     3be:	23 84 26 b4 27 09 28 06 20 00 22 03 23 00 24 81     #.&.'.(. .".#.$.
     3ce:	25 c0 26 ab 27 0a 28 07 21 ae 22 00 23 95 24 89     %.&.'.(.!.".#.$.
     3de:	25 07 26 a4 27 00 28 08 21 48 22 01 23 80 26 c4     %.&.'.(.!H".#.&.
     3ee:	27 0c 28 09 20 09 21 04 22 04 26 aa 27 0a 28 0a     '.(. .!.".&.'.(.
     3fe:	20 00 21 00 22 00 23 a8 26 a4 27 07 28 0b 28 0c      .!.".#.&.'.(.(.
     40e:	21 40 22 20 23 80 26 c4 27 0c 28 0d 22 24 26 c6     !@" #.&.'.(."$&.
     41e:	28 0e 21 9e 22 00 26 c8 28 0f 20 09 21 02 22 14     (.!.".&.(. .!.".
     42e:	26 aa 27 0a 28 10 20 05 21 00 22 00 23 84 26 b4     &.'.(. .!.".#.&.
     43e:	27 09 28 11 20 00 21 01 23 00 24 01 25 c0 26 ab     '.(. .!.#.$.%.&.
     44e:	27 0a 28 12 21 c3 23 95 24 89 25 07 26 20 27 00     '.(.!.#.$.%.& '.
     45e:	28 13 20 03 21 c2 23 83 26 26 27 0d 28 14 21 b3     (. .!.#.&&'.(.!.
     46e:	22 08 28 15 20 00 21 c6 22 00 23 95 26 00 27 08     ".(. .!.".#.&.'.
     47e:	28 16 21 00 23 00 24 96 25 03 26 aa 27 0a 28 17     (.!.#.$.%.&.'.(.
     48e:	20 42 21 b6 23 80 24 89 25 07 28 18 20 00 21 00      B!.#.$.%.(. .!.
     49e:	23 94 26 0e 28 19 20 0f 23 84 26 b4 27 09 28 1a     #.&.(. .#.&.'.(.
     4ae:	20 00 23 93 26 a8 27 03 28 1b 26 28 27 00 28 1c      .#.&.'.(.&('.(.
     4be:	21 01 23 00 24 01 25 c0 26 ab 27 0a 28 1d 21 c5     !.#.$.%.&.'.(.!.
     4ce:	23 95 24 89 25 07 26 20 27 00 28 1e 21 00 23 94     #.$.%.& '.(.!.#.
     4de:	26 00 27 0a 28 1f 26 0e 28 20 20 03 21 79 22 01     &.'.(.&.(  .!y".
     4ee:	23 83 26 26 27 0d 28 21 21 32 28 22 20 00 21 04     #.&&'.(!!2(" .!.
     4fe:	22 00 23 80 24 00 25 fc 26 aa 27 0a 28 23 21 00     ".#.$.%.&.'.(#!.
     50e:	23 00 25 00 28 24 21 a3 22 0d 23 80 24 9e 25 3b     #.%.($!.".#.$.%;
     51e:	28 25 20 42 21 57 22 01 24 89 25 07 28 26 20 00     (% B!W".$.%.(& .
     52e:	21 43 22 0d 24 00 25 38 28 27 21 08 22 98 23 95     !C".$.%8('!.".#.
     53e:	24 89 25 07 26 24 27 00 28 28 20 42 21 93 22 01     $.%.&$'.(( B!.".
     54e:	23 80 26 aa 27 0a 28 29 20 03 21 7e 22 04 23 83     #.&.'.() .!~".#.
     55e:	26 26 27 0d 28 2a 20 00 21 b0 22 00 23 95 26 a0     &&'.(* .!.".#.&.
     56e:	27 07 28 2b 21 00 23 00 24 0c 25 04 26 aa 27 0a     '.(+!.#.$.%.&.'.
     57e:	28 2c 21 02 23 80 24 86 25 c3 26 ab 28 2d 20 42     (,!.#.$.%.&.(- B
     58e:	21 97 22 01 24 89 25 07 26 aa 28 2e 20 00 21 00     !.".$.%.&.(. .!.
     59e:	22 00 24 1f 25 04 28 2f 21 b2 23 95 24 89 25 07     ".$.%.(/!.#.$.%.
     5ae:	26 20 27 04 28 30 20 42 21 8b 22 04 23 80 26 aa     & '.(0 B!.".#.&.
     5be:	27 0a 28 31 20 00 21 b1 22 00 23 95 26 a0 27 07     '.(1 .!.".#.&.'.
     5ce:	28 32 20 03 21 75 22 04 23 83 26 26 27 0d 28 33     (2 .!u".#.&&'.(3
     5de:	20 05 21 00 22 00 23 84 26 b4 27 09 28 34 20 00      .!.".#.&.'.(4 .
     5ee:	21 60 23 00 24 01 25 c0 26 ab 27 0a 28 35 21 08     !`#.$.%.&.'.(5!.
     5fe:	22 98 23 95 24 89 25 07 26 24 27 00 28 36 21 bc     ".#.$.%.&$'.(6!.
     60e:	22 00 28 37 21 a3 22 0d 23 00 24 01 25 c0 26 ab     ".(7!.".#.$.%.&.
     61e:	27 0a 28 38 21 60 22 00 23 80 24 00 25 38 26 aa     '.(8!`".#.$.%8&.
     62e:	28 39 21 06 22 98 23 95 24 89 25 07 26 24 27 00     (9!.".#.$.%.&$'.
     63e:	28 3a 21 be 22 00 28 3b 20 05 21 00 23 84 26 b4     (:!.".(; .!.#.&.
     64e:	27 09 28 3c 20 00 21 60 23 00 24 01 25 c0 26 ab     '.(< .!`#.$.%.&.
     65e:	27 0a 28 3d 21 42 22 01 23 95 24 89 25 07 26 24     '.(=!B".#.$.%.&$
     66e:	27 00 28 3e 21 0c 22 98 26 a4 27 07 28 3f 21 08     '.(>!.".&.'.(?!.
     67e:	28 40 21 60 22 00 23 00 24 01 25 c0 26 ab 27 0a     (@!`".#.$.%.&.'.
     68e:	28 41 21 0c 22 98 23 95 24 89 25 07 26 24 27 00     (A!.".#.$.%.&$'.
     69e:	28 42 20 05 21 00 22 00 23 84 26 b4 27 09 28 43     (B .!.".#.&.'.(C
     6ae:	20 00 23 80 24 00 25 10 26 ab 27 0a 28 44 21 22      .#.$.%.&.'.(D!"
     6be:	22 01 23 95 24 89 25 07 26 24 27 00 28 45 21 00     ".#.$.%.&$'.(E!.
     6ce:	22 00 23 00 24 04 25 12 26 aa 27 0a 28 46 20 03     ".#.$.%.&.'.(F .
     6de:	21 d4 22 05 23 83 24 89 25 07 26 26 27 0d 28 47     !.".#.$.%.&&'.(G
     6ee:	20 00 21 60 22 00 23 00 24 01 25 c0 26 ab 27 0a      .!`".#.$.%.&.'.
     6fe:	28 48 21 b3 23 95 24 89 25 07 26 00 27 08 28 49     (H!.#.$.%.&.'.(I
     70e:	21 00 23 00 24 09 25 00 26 aa 27 0a 28 4a 21 02     !.#.$.%.&.'.(J!.
     71e:	23 80 24 86 25 3b 28 4b 20 42 21 dd 22 05 24 89     #.$.%;(K B!.".$.
     72e:	25 07 28 4c 20 00 21 00 22 00 24 1f 25 00 28 4d     %.(L .!.".$.%.(M
     73e:	21 b3 23 95 24 89 25 07 26 20 27 00 28 4e 21 00     !.#.$.%.& '.(N!.
     74e:	23 00 24 97 25 03 26 aa 27 0a 28 4f 20 42 21 e2     #.$.%.&.'.(O B!.
     75e:	22 05 23 80 24 89 25 07 28 50 20 00 21 10 22 00     ".#.$.%.(P .!.".
     76e:	23 00 24 80 25 cc 26 ab 28 51 21 00 22 40 23 b4     #.$.%.&.(Q!."@#.
     77e:	24 89 25 07 26 aa 27 04 28 52 22 00 23 b0 26 92     $.%.&.'.(R".#.&.
     78e:	27 09 28 53 21 14 22 01 23 95 26 00 27 08 28 54     '.(S!.".#.&.'.(T
     79e:	21 48 23 a4 26 2a 27 00 28 55 21 00 22 00 23 00     !H#.&*'.(U!.".#.
     7ae:	24 09 25 00 26 aa 27 0a 28 56 21 08 23 80 24 86     $.%.&.'.(V!.#.$.
     7be:	25 3b 28 57 20 42 21 11 22 07 24 89 25 07 28 58     %;(W B!.".$.%.(X
     7ce:	20 00 21 00 22 00 24 1f 25 00 28 59 21 14 22 01      .!.".$.%.(Y!.".
     7de:	23 95 24 89 25 07 26 20 27 00 28 5a 21 16 26 02     #.$.%.& '.(Z!.&.
     7ee:	27 09 28 5b 21 00 22 00 23 00 24 80 25 48 26 aa     '.([!.".#.$.%H&.
     7fe:	27 0a 28 5c 23 a0 24 89 25 07 26 14 27 09 28 5d     '.(\#.$.%.&.'.(]
     80e:	24 80 25 50 26 a4 27 04 28 5e 21 16 22 01 23 95     $.%P&.'.(^!.".#.
     81e:	24 89 25 07 27 00 28 5f 21 04 22 00 23 00 24 9c     $.%.'.(_!.".#.$.
     82e:	25 78 26 aa 27 0a 28 60 21 43 22 0d 24 01 25 c4     %x&.'.(`!C".$.%.
     83e:	26 ab 28 61 21 03 22 00 24 15 28 62 21 00 24 00     &.(a!.".$.(b!.$.
     84e:	25 00 26 aa 28 63 21 5e 23 95 24 89 25 07 26 10     %.&.(c!^#.$.%.&.
     85e:	27 09 28 64 21 03 23 00 24 15 25 c4 26 ab 27 0a     '.(d!.#.$.%.&.'.
     86e:	28 65 21 00 23 80 24 00 25 06 26 aa 28 66 24 8f     (e!.#.$.%.&.(f$.
     87e:	25 e3 26 ab 28 67 20 42 21 cd 22 07 24 89 25 07     %.&.(g B!.".$.%.
     88e:	26 aa 28 68 20 00 21 60 22 00 23 00 24 01 25 c0     &.(h .!`".#.$.%.
     89e:	26 ab 28 69 21 00 23 80 24 8f 25 03 26 aa 28 6a     &.(i!.#.$.%.&.(j
     8ae:	20 42 21 dd 22 07 24 89 25 07 28 6b 20 00 21 43      B!.".$.%.(k .!C
     8be:	22 0d 23 00 24 01 25 c0 26 ab 28 6c 21 00 22 00     ".#.$.%.&.(l!.".
     8ce:	24 00 25 04 26 aa 28 6d 20 03 21 7f 22 01 23 83     $.%.&.(m .!.".#.
     8de:	24 89 25 07 26 26 27 0d 28 6e 21 62 28 6f 20 05     $.%.&&'.(n!b(o .
     8ee:	21 00 22 00 23 84 26 b4 27 09 28 70 20 00 21 06     !.".#.&.'.(p .!.
     8fe:	23 95 26 00 27 08 28 71 21 01 23 00 24 97 25 3b     #.&.'.(q!.#.$.%;
     90e:	26 aa 27 0a 28 72 20 42 21 0e 22 08 23 80 24 89     &.'.(r B!.".#.$.
     91e:	25 07 28 73 20 03 21 3c 22 0b 23 83 26 26 27 0d     %.(s .!<".#.&&'.
     92e:	28 74 20 00 21 03 22 00 23 95 26 02 27 08 28 75     (t .!.".#.&.'.(u
     93e:	21 27 23 00 24 81 25 c4 26 ab 27 0a 28 76 21 00     !'#.$.%.&.'.(v!.
     94e:	23 80 24 09 25 48 26 aa 28 77 21 58 22 34 23 a3     #.$.%H&.(w!X"4#.
     95e:	24 89 25 07 26 2a 27 00 28 78 21 00 22 00 23 a0     $.%.&*'.(x!.".#.
     96e:	26 00 27 09 28 79 21 07 23 80 24 03 25 39 26 aa     &.'.(y!.#.$.%9&.
     97e:	27 0a 28 7a 21 04 23 00 24 1c 25 38 28 7b 21 07     '.(z!.#.$.%8({!.
     98e:	23 80 24 83 25 39 28 7c 21 03 23 95 24 89 25 07     #.$.%9(|!.#.$.%.
     99e:	26 02 27 08 28 7d 21 27 23 00 24 81 25 c4 26 ab     &.'.(}!'#.$.%.&.
     9ae:	27 0a 28 7e 21 00 23 80 24 09 25 48 26 aa 28 7f     '.(~!.#.$.%H&.(.
     9be:	21 58 22 34 23 a3 24 89 25 07 26 2a 27 00 28 80     !X"4#.$.%.&*'.(.
     9ce:	21 06 22 00 23 00 24 81 25 c0 26 93 27 01 28 81     !.".#.$.%.&.'.(.
     9de:	21 00 23 80 24 89 25 48 26 aa 27 0a 28 82 20 02     !.#.$.%H&.'.(. .
     9ee:	21 66 22 08 23 00 24 00 25 66 28 83 20 00 21 00     !f".#.$.%f(. .!.
     9fe:	22 00 23 80 24 1f 25 02 28 84 21 06 24 89 25 07     ".#.$.%.(.!.$.%.
     a0e:	26 dc 27 0c 28 85 21 00 23 aa 26 aa 27 0a 28 86     &.'.(.!.#.&.'.(.
     a1e:	23 b6 26 00 27 08 28 87 23 80 24 86 25 3b 26 aa     #.&.'.(.#.$.%;&.
     a2e:	27 0a 28 88 21 05 24 89 25 07 26 dc 27 0c 28 89     '.(.!.$.%.&.'.(.
     a3e:	21 00 23 aa 26 aa 27 0a 28 8a 23 b6 26 00 27 08     !.#.&.'.(.#.&.'.
     a4e:	28 8b 23 80 24 86 25 3b 26 aa 27 0a 28 8c 20 42     (.#.$.%;&.'.(. B
     a5e:	21 7b 22 08 24 89 25 07 28 8d 20 00 21 00 22 00     !{".$.%.(. .!.".
     a6e:	23 00 24 01 25 82 28 8e 21 05 24 81 25 c2 26 ab     #.$.%.(.!.$.%.&.
     a7e:	28 8f 20 03 21 93 22 08 23 83 24 89 25 07 26 26     (. .!.".#.$.%.&&
     a8e:	27 0d 28 90 20 00 21 05 22 00 23 00 24 81 25 c0     '.(. .!.".#.$.%.
     a9e:	26 13 27 01 28 91 21 00 23 80 24 89 25 48 26 aa     &.'.(.!.#.$.%H&.
     aae:	27 0a 28 92 20 02 21 7e 22 08 23 00 24 00 25 66     '.(. .!~".#.$.%f
     abe:	28 93 20 00 21 00 22 00 23 80 24 1f 25 02 28 94     (. .!.".#.$.%.(.
     ace:	21 05 24 89 25 07 26 dc 27 0c 28 95 21 00 23 aa     !.$.%.&.'.(.!.#.
     ade:	26 aa 27 0a 28 96 23 b6 26 00 27 08 28 97 23 80     &.'.(.#.&.'.(.#.
     aee:	24 86 25 3b 26 aa 27 0a 28 98 21 05 24 89 25 07     $.%;&.'.(.!.$.%.
     afe:	26 dc 27 0c 28 99 21 00 23 aa 26 aa 27 0a 28 9a     &.'.(.!.#.&.'.(.
     b0e:	23 80 24 1f 25 02 28 9b 21 01 23 00 24 81 25 c2     #.$.%.(.!.#.$.%.
     b1e:	26 ab 28 9c 20 03 21 93 22 08 23 83 24 89 25 07     &.(. .!.".#.$.%.
     b2e:	26 26 27 0d 28 9d 20 00 21 04 22 00 23 95 26 12     &&'.(. .!.".#.&.
     b3e:	27 08 28 9e 21 60 23 c4 26 aa 27 04 28 9f 21 00     '.(.!`#.&.'.(.!.
     b4e:	23 c0 26 00 27 09 28 a0 20 42 21 cb 22 08 23 80     #.&.'.(. B!.".#.
     b5e:	26 aa 27 0a 28 a1 20 70 21 54 22 b8 23 95 26 12     &.'.(. p!T".#.&.
     b6e:	27 08 28 a2 20 02 21 cc 22 08 23 80 26 aa 27 0a     '.(. .!.".#.&.'.
     b7e:	28 a3 20 03 21 ca 22 0f 23 83 26 26 27 0d 28 a4     (. .!.".#.&&'.(.
     b8e:	20 00 21 00 22 00 23 00 24 8c 25 0c 26 aa 27 0a      .!.".#.$.%.&.'.
     b9e:	28 a5 21 04 24 82 25 78 28 a6 21 00 23 80 24 89     (.!.$.%x(.!.#.$.
     bae:	25 48 26 12 27 04 28 a7 20 03 21 de 22 0f 23 83     %H&.'.(. .!.".#.
     bbe:	25 07 26 26 27 0d 28 a8 20 00 21 01 22 00 23 00     %.&&'.(. .!.".#.
     bce:	24 9c 25 78 26 aa 27 0a 28 a9 21 00 23 80 24 81     $.%x&.'.(.!.#.$.
     bde:	25 40 28 aa 20 03 21 cf 22 0f 23 83 24 89 25 07     %@(. .!.".#.$.%.
     bee:	26 26 27 0d 28 ab 20 70 21 08 22 b8 23 95 26 a0     &&'.(. p!.".#.&.
     bfe:	27 04 28 ac 20 03 21 d4 22 0f 23 83 26 26 27 0d     '.(. .!.".#.&&'.
     c0e:	28 ad 21 27 22 0b 28 ae 20 70 21 63 22 b8 23 95     (.!'".(. p!c".#.
     c1e:	26 12 27 08 28 af 20 00 21 01 22 00 23 80 24 86     &.'.(. .!.".#.$.
     c2e:	25 cb 26 ab 27 0a 28 b0 20 42 21 dd 22 08 24 89     %.&.'.(. B!.".$.
     c3e:	25 07 26 aa 28 b1 20 00 21 18 22 80 23 95 26 a4     %.&.(. .!.".#.&.
     c4e:	27 00 28 b2 20 03 21 d9 22 0f 23 83 26 26 27 0d     '.(. .!.".#.&&'.
     c5e:	28 b3 20 70 21 0a 22 b8 23 95 26 a0 27 00 28 b4     (. p!.".#.&.'.(.
     c6e:	20 02 21 e0 22 08 23 80 26 aa 27 0a 28 b5 20 70      .!.".#.&.'.(. p
     c7e:	21 0a 22 b8 23 95 26 a0 27 00 28 b6 21 54 26 02     !.".#.&.'.(.!T&.
     c8e:	27 08 28 b7 20 00 21 18 22 80 26 a4 27 00 28 b8     '.(. .!.".&.'.(.
     c9e:	21 00 22 00 23 80 24 80 25 48 26 aa 27 0a 28 b9     !.".#.$.%H&.'.(.
     cae:	20 70 21 5e 22 b8 23 95 24 89 25 07 26 12 27 08      p!^".#.$.%.&.'.
     cbe:	28 ba 20 00 21 00 22 00 23 80 24 09 25 4b 26 aa     (. .!.".#.$.%K&.
     cce:	27 0a 28 bb 20 70 21 5f 22 b8 23 95 24 89 25 07     '.(. p!_".#.$.%.
     cde:	26 10 27 08 28 bc 20 00 21 00 22 00 23 00 24 1c     &.'.(. .!.".#.$.
     cee:	25 83 26 ab 27 0a 28 bd 20 03 21 32 22 09 23 83     %.&.'.(. .!2".#.
     cfe:	24 89 25 07 26 26 27 0d 28 be 20 00 21 00 22 00     $.%.&&'.(. .!.".
     d0e:	23 00 24 82 25 8c 26 ab 27 0a 28 bf 20 03 21 25     #.$.%.&.'.(. .!%
     d1e:	22 09 23 83 24 89 25 07 26 26 27 0d 28 c0 20 42     ".#.$.%.&&'.(. B
     d2e:	21 bc 23 80 26 aa 27 0a 28 c1 20 00 21 01 22 00     !.#.&.'.(. .!.".
     d3e:	23 00 24 01 25 c0 26 ab 28 c2 20 70 21 0f 22 b8     #.$.%.&.(. p!.".
     d4e:	23 95 24 89 25 07 26 20 27 00 28 c3 20 03 21 e3     #.$.%.& '.(. .!.
     d5e:	22 0f 23 83 26 26 27 0d 28 c4 20 05 21 00 22 00     ".#.&&'.(. .!.".
     d6e:	23 84 26 b4 27 09 28 c5 20 00 21 03 23 95 26 14     #.&.'.(. .!.#.&.
     d7e:	27 08 28 c6 21 a6 23 a4 26 2a 27 05 28 c7 21 00     '.(.!.#.&*'.(.!.
     d8e:	23 a0 26 44 27 09 28 c8 21 18 22 6d 23 80 24 9e     #.&D'.(.!."m#.$.
     d9e:	25 7b 26 aa 27 0a 28 c9 20 42 21 13 22 0b 24 89     %{&.'.(. B!.".$.
     dae:	25 07 28 ca 20 00 21 ae 22 00 23 95 26 24 27 00     %.(. .!.".#.&$'.
     dbe:	28 cb 21 00 22 03 23 80 24 87 25 7b 26 aa 27 0a     (.!.".#.$.%{&.'.
     dce:	28 cc 20 42 21 16 22 0b 24 89 25 07 28 cd 20 00     (. B!.".$.%.(. .
     dde:	21 ae 22 00 23 95 26 24 27 00 28 ce 20 05 21 00     !.".#.&$'.(. .!.
     dee:	23 84 26 b4 27 09 28 cf 20 03 21 0d 22 0b 23 83     #.&.'.(. .!.".#.
     dfe:	26 26 27 0d 28 d0 20 00 21 00 22 00 23 00 24 80     &&'.(. .!.".#.$.
     e0e:	26 02 27 00 28 d1 23 80 24 09 25 48 26 1e 28 d2     &.'.(.#.$.%H&.(.
     e1e:	21 58 22 34 23 33 24 80 25 07 26 2a 28 d3 21 00     !X"4#3$.%.&*(.!.
     e2e:	22 00 23 00 26 80 27 10 28 d4 21 10 23 63 26 2a     ".#.&.'.(.!.#c&*
     e3e:	27 00 28 d5 21 00 23 60 26 a8 27 12 28 d6 21 af     '.(.!.#`&.'.(.!.
     e4e:	22 4c 23 00 26 c8 27 0c 28 d7 21 00 22 00 26 80     "L#.&.'.(.!.".&.
     e5e:	27 05 28 d8 23 80 24 86 25 3b 26 1e 27 00 28 d9     '.(.#.$.%;&.'.(.
     e6e:	20 42 21 1c 22 0e 23 00 24 80 25 07 28 da 20 00      B!.".#.$.%.(. .
     e7e:	21 35 22 29 26 c4 27 0c 28 db 20 02 21 1d 22 0e     !5")&.'.(. .!.".
     e8e:	26 1e 27 00 28 dc 20 00 21 7f 22 34 26 c4 27 0c     &.'.(. .!."4&.'.
     e9e:	28 dd 21 00 22 00 23 90 24 9f 25 04 26 10 27 0a     (.!.".#.$.%.&.'.
     eae:	28 de 23 00 24 84 25 00 26 80 27 10 28 df 21 06     (.#.$.%.&.'.(.!.
     ebe:	23 63 24 80 25 07 26 2a 27 00 28 e0 21 00 23 80     #c$.%.&*'.(.!.#.
     ece:	24 89 26 aa 27 0a 28 e1 20 05 23 84 26 b4 27 09     $.&.'.(. .#.&.'.
     ede:	28 e2 20 70 21 61 22 b8 23 95 26 12 27 08 28 e3     (. p!a".#.&.'.(.
     eee:	20 00 21 01 22 00 23 80 24 86 25 c3 26 ab 27 0a      .!.".#.$.%.&.'.
     efe:	28 e4 20 42 21 ce 22 0f 24 89 25 07 26 aa 28 e5     (. B!.".$.%.&.(.
     f0e:	20 70 21 50 22 b8 23 95 26 12 27 08 28 e6 20 05      p!P".#.&.'.(. .
     f1e:	21 00 22 00 23 84 26 b4 27 09 28 e7 20 70 21 64     !.".#.&.'.(. p!d
     f2e:	22 b8 23 95 26 12 27 08 28 e8 20 00 21 01 22 00     ".#.&.'.(. .!.".
     f3e:	23 80 24 86 25 c3 26 ab 27 0a 28 e9 20 42 21 d3     #.$.%.&.'.(. B!.
     f4e:	22 0f 24 89 25 07 26 aa 28 ea 20 70 21 51 22 b8     ".$.%.&.(. p!Q".
     f5e:	23 95 26 12 27 08 28 eb 20 05 21 00 22 00 23 84     #.&.'.(. .!.".#.
     f6e:	26 b4 27 09 28 ec 20 70 21 65 22 b8 23 95 26 12     &.'.(. p!e".#.&.
     f7e:	27 08 28 ed 20 00 21 01 22 00 23 80 24 86 25 c3     '.(. .!.".#.$.%.
     f8e:	26 ab 27 0a 28 ee 20 42 21 d8 22 0f 24 89 25 07     &.'.(. B!.".$.%.
     f9e:	26 aa 28 ef 20 70 21 52 22 b8 23 95 26 12 27 08     &.(. p!R".#.&.'.
     fae:	28 f0 20 05 21 00 22 00 23 84 26 b4 27 09 28 f1     (. .!.".#.&.'.(.
     fbe:	20 70 21 61 22 b8 23 95 26 02 27 08 28 f2 20 00      p!a".#.&.'.(. .
     fce:	21 01 22 00 23 80 24 86 25 c3 26 ab 27 0a 28 f3     !.".#.$.%.&.'.(.
     fde:	20 42 21 dd 22 0f 24 89 25 07 26 aa 28 f4 20 70      B!.".$.%.&.(. p
     fee:	21 50 22 b8 23 95 26 02 27 08 28 f5 20 05 21 00     !P".#.&.'.(. .!.
     ffe:	22 00 23 84 26 b4 27 09 28 f6 20 00 21 01 23 80     ".#.&.'.(. .!.#.
    100e:	24 86 25 cb 26 ab 27 0a 28 f7 20 42 21 e1 22 0f     $.%.&.'.(. B!.".
    101e:	24 89 25 07 26 aa 28 f8 20 00 21 02 22 00 23 00     $.%.&.(. .!.".#.
    102e:	24 81 25 c4 26 ab 28 f9 21 00 23 80 24 89 25 48     $.%.&.(.!.#.$.%H
    103e:	26 aa 28 fa 20 05 23 84 25 07 26 b4 27 09 28 fb     &.(. .#.%.&.'.(.
    104e:	20 70 21 4e 22 b8 23 95 26 10 27 08 28 fc 20 00      p!N".#.&.'.(. .
    105e:	21 00 22 00 23 80 24 86 25 c3 26 ab 27 0a 28 fd     !.".#.$.%.&.'.(.
    106e:	20 42 21 e7 22 0f 24 89 25 07 26 aa 28 fe 20 00      B!.".$.%.&.(. .
    107e:	21 bb 22 00 23 95 26 20 27 00 28 ff 20 05 21 00     !.".#.& '.(. .!.
    108e:	23 84 26 b4 27 09 2a 08 10 01 ff ff ff ff           #.&.'.*.......

0000109c <Mnt_Drv_8>:
    109c:	52 65 6c 61 74 69 76 65 20 53 65 63 74 6f 72 73     Relative Sectors
    10ac:	20 3d 20 00                                          = .

000010b0 <Mnt_Drv_7>:
    10b0:	46 69 72 73 74 44 61 74 61 53 65 63 20 3d 20 00     FirstDataSec = .

000010c0 <Mnt_Drv_6>:
    10c0:	53 74 61 72 74 6f 66 46 41 54 20 3d 20 00           StartofFAT = .

000010ce <Mnt_Drv_5>:
    10ce:	46 41 54 33 32 20 44 65 74 65 63 74 65 64 2e 2e     FAT32 Detected..
    10de:	2e 0a 0d 00                                         ....

000010e2 <Mnt_Drv_4>:
    10e2:	46 41 54 31 36 20 44 65 74 65 63 74 65 64 2e 2e     FAT16 Detected..
    10f2:	2e 0a 0d 00                                         ....

000010f6 <Mnt_Drv_3>:
    10f6:	44 69 73 6b 20 45 72 72 6f 72 21 0a 0d 00           Disk Error!...

00001104 <Mnt_Drv_2>:
    1104:	52 65 6c 61 74 69 76 65 20 53 65 63 74 6f 72 73     Relative Sectors
    1114:	20 3d 20 00                                          = .

00001118 <Mnt_Drv_1>:
    1118:	4c 6f 63 61 74 69 6e 67 20 42 6f 6f 74 20 53 65     Locating Boot Se
    1128:	63 74 6f 72 2e 2e 2e 0a 0d 00                       ctor......

00001132 <Stnd_Cap>:
    1132:	53 74 61 6e 64 61 72 64 20 43 61 70 61 63 69 74     Standard Capacit
    1142:	79 00 00                                            y..

00001145 <High_Cap>:
    1145:	48 69 67 68 20 43 61 70 61 63 69 74 79 00 00        High Capacity..

00001154 <Complete>:
    1154:	20 20 4f 4b 21 0a 0d 00 00                            OK!....

0000115d <test_string>:
    115d:	53 44 20 49 6e 69 74 69 61 6c 69 7a 61 74 69 6f     SD Initializatio
    116d:	6e 20 50 72 6f 67 72 61 6d 0a 0d 00                 n Program...

00001179 <OLED_Init_Commands>:
    1179:	ae d5 80 a8 1f d3 00 40 8d 14 a1 c8 da 02 81 8f     .......@........
    1189:	d9 f1 db 40 a4 a6 af ff                             ...@....

00001191 <OLED_ASCII>:
	...
    11e1:	00 fe 7c 38 80 80 38 7c fe 00 0c 14 00 0c 14 14     ..|8..8|........
    11f1:	0c 00 14 0c 88 cc ee cc 88 22 66 ee 66 22 38 7c     ........."f.f"8|
    1201:	7c 7c 38 20 70 a8 20 3e 08 04 fe 04 08 20 40 fe     ||8 p. >..... @.
    1211:	40 20 10 10 54 38 10 10 38 54 10 10 80 88 94 a2     @ ..T8..8T......
    1221:	80 80 a2 94 88 80 40 70 7c 70 40 04 1c 7c 1c 04     ......@p|p@..|..
    1231:	00 00 00 00 00 00 00 9e 00 00 00 0e 00 0e 00 28     ...............(
    1241:	fe 28 fe 28 48 52 fe 52 22 46 26 10 c8 c4 6c 92     .(.(HR.R"F&...l.
    1251:	aa 44 a0 00 0a 06 00 00 00 38 44 82 00 00 82 44     .D.......8D....D
    1261:	38 00 28 10 7c 10 28 10 10 7c 10 10 00 a0 30 00     8.(.|.(..|....0.
    1271:	00 10 10 10 10 10 00 c0 c0 00 00 40 20 10 08 04     ...........@ ...
    1281:	7c a2 92 8a 7c 00 84 fe 80 00 84 c2 a2 92 8c 42     |...|..........B
    1291:	82 8a 96 62 30 28 24 fe 20 4e 8a 8a 8a 72 78 94     ...b0($. N...rx.
    12a1:	92 92 60 06 02 e2 12 0e 6c 92 92 92 6c 0c 92 92     ..`.....l...l...
    12b1:	52 3c 00 6c 6c 00 00 00 ac 6c 00 00 10 28 44 82     R<.ll....l...(D.
    12c1:	00 28 28 28 28 28 00 82 44 28 10 04 02 a2 12 0c     .(((((..D(......
    12d1:	64 92 f2 82 7c f8 24 22 24 f8 fe 92 92 92 6c 7c     d...|.$"$.....l|
    12e1:	82 82 82 44 fe 82 82 44 38 fe 92 92 92 82 fe 12     ...D...D8.......
    12f1:	12 12 02 7c 82 92 92 f4 fe 10 10 10 fe 00 82 fe     ...|............
    1301:	82 00 40 80 82 7e 02 fe 10 28 44 82 fe 80 80 80     ..@..~...(D.....
    1311:	80 fe 04 18 04 fe fe 08 10 20 fe 7c 82 82 82 7c     ......... .|...|
    1321:	fe 12 12 12 0c 7c 82 a2 42 bc fe 12 32 52 8c 4c     .....|..B...2R.L
    1331:	92 92 92 64 02 02 fe 02 02 7e 80 80 80 7e 3e 40     ...d.....~...~>@
    1341:	80 40 3e 7e 80 70 80 7e c6 28 10 28 c6 0e 10 e0     .@>~.p.~.(.(....
    1351:	10 0e c2 a2 92 8a 86 00 fe 82 82 00 04 08 10 20     ............... 
    1361:	40 00 82 82 fe 00 08 04 02 04 08 80 80 80 80 80     @...............
    1371:	00 02 04 08 00 40 a8 a8 a8 f0 fe 90 88 88 70 70     .....@........pp
    1381:	88 88 88 40 70 88 88 90 fe 70 a8 a8 a8 30 10 fc     ...@p....p...0..
    1391:	12 02 04 10 a8 a8 a8 78 fe 10 08 08 f0 00 90 fa     .......x........
    13a1:	80 00 40 80 88 7a 00 fe 20 50 88 00 00 82 fe 80     ..@..z.. P......
    13b1:	00 f8 08 f0 08 f0 f8 10 08 08 f0 70 88 88 88 70     ...........p...p
    13c1:	f8 28 28 28 10 10 28 28 30 f8 f8 10 08 08 10 90     .(((..((0.......
    13d1:	a8 a8 a8 40 08 7e 88 80 40 78 80 80 40 f8 38 40     ...@.~..@x..@.8@
    13e1:	80 40 38 78 80 60 80 78 88 50 20 50 88 18 a0 a0     .@8x.`.x.P P....
    13f1:	a0 78 88 c8 a8 98 88 00 10 6c 82 00 00 00 fe 00     .x.......l......
    1401:	00 00 82 6c 10 00 20 10 10 20 10                    ...l.. .. .

0000140c <SD_Card_BlSz>:
    140c:	42 6c 6f 63 6b 20 73 69 7a 65 20 73 65 74 20 74     Block size set t
    141c:	6f 20 35 31 32 20 62 79 74 65 73 0a 0d 00           o 512 bytes...

0000142a <SD_Card_HC>:
    142a:	48 69 67 68 20 43 61 70 61 63 69 74 79 20 43 61     High Capacity Ca
    143a:	72 64 20 64 65 74 65 63 74 65 64 2e 0a 0d 00        rd detected....

00001449 <SD_Card_SC>:
    1449:	53 74 61 6e 64 61 72 64 20 43 61 70 61 63 69 74     Standard Capacit
    1459:	79 20 43 61 72 64 20 64 65 74 65 63 74 65 64 2e     y Card detected.
    1469:	0a 0d 00                                            ...

0000146c <SD_Card_V2>:
    146c:	56 65 72 73 69 6f 6e 20 32 20 53 44 20 43 61 72     Version 2 SD Car
    147c:	64 20 64 65 74 65 63 74 65 64 2e 0a 0d 00           d detected....

0000148a <SD_Card_V1>:
    148a:	56 65 72 73 69 6f 6e 20 31 20 53 44 20 43 61 72     Version 1 SD Car
    149a:	64 20 64 65 74 65 63 74 65 64 2e 0a 0d 00           d detected....

000014a8 <SD_Card_Resp>:
    14a8:	52 65 73 70 6f 6e 73 65 20 3d 20 00                 Response = .

000014b4 <SD_Card_ACMD41>:
    14b4:	41 43 4d 44 34 31 20 73 65 6e 74 20 2e 2e 2e 20     ACMD41 sent ... 
	...

000014c5 <SD_Card_CMD58>:
    14c5:	43 4d 44 35 38 20 73 65 6e 74 20 2e 2e 2e 20 00     CMD58 sent ... .

000014d5 <SD_Card_CMD16>:
    14d5:	43 4d 44 31 36 20 73 65 6e 74 20 2e 2e 2e 20 00     CMD16 sent ... .

000014e5 <SD_Card_CMD8>:
    14e5:	43 4d 44 38 20 73 65 6e 74 20 2e 2e 2e 20 00        CMD8 sent ... .

000014f4 <SD_Card_CMD0>:
    14f4:	43 4d 44 30 20 73 65 6e 74 20 2e 2e 2e 20 00        CMD0 sent ... .

00001503 <SD_Card_Intro>:
    1503:	53 44 20 43 61 72 64 20 49 6e 69 74 69 61 6c 69     SD Card Initiali
    1513:	7a 61 74 69 6f 6e 20 2e 2e 2e 20 0a 0d 00           zation ... ...

00001521 <Config_Complete_prnt>:
    1521:	43 6f 6e 66 69 67 75 72 61 74 69 6f 6e 20 43 6f     Configuration Co
    1531:	6d 70 6c 65 74 65 0a 0d 00                          mplete...

0000153a <STA_rec_prnt>:
    153a:	4f 75 74 70 75 74 20 66 72 6f 6d 20 53 54 41 30     Output from STA0
    154a:	31 33 3a 20 00                                      13: .

0000154f <STA_sent_prnt>:
    154f:	53 65 6e 74 20 74 6f 20 53 54 41 30 31 33 3a 20     Sent to STA013: 
	...

00001560 <Number_written_prnt>:
    1560:	4e 75 6d 62 65 72 20 6f 66 20 76 61 6c 75 65 73     Number of values
    1570:	20 77 72 69 74 74 65 6e 3a 20 00                     written: .

0000157b <Second_config_prnt>:
    157b:	53 65 63 6f 6e 64 20 63 6f 6e 66 69 67 75 72 61     Second configura
    158b:	74 69 6f 6e 20 66 69 6c 65 20 73 65 6e 74 2e 2e     tion file sent..
    159b:	2e 0a 0d 00                                         ....

0000159f <First_config_prnt>:
    159f:	46 69 72 73 74 20 63 6f 6e 66 69 67 75 72 61 74     First configurat
    15af:	69 6f 6e 20 66 69 6c 65 20 73 65 6e 74 2e 2e 2e     ion file sent...
    15bf:	0a 0d 00                                            ...

000015c2 <ID_Reg_prnt>:
    15c2:	4f 75 74 70 75 74 20 66 72 6f 6d 20 49 44 20 72     Output from ID r
    15d2:	65 67 69 73 74 65 72 3a 20 00                       egister: .

000015dc <Error_prnt>:
    15dc:	65 72 72 6f 72 20 66 6c 61 67 3a 20 00              error flag: .

000015e9 <STA_cfg_data>:
    15e9:	07 10 09 02 b8 00 00 00 06 05 a1 00 04 05 07 07     ................
    15f9:	00 01                                               ..

000015fb <STA_cfg_addr>:
    15fb:	54 55 06 0b 52 51 65 64 50 61 05 0d 18 0c 46 48     TU..RQedPa....FH
    160b:	7d 72 00                                            }r.

0000160e <__ctors_end>:
    160e:	11 24       	eor	r1, r1
    1610:	1f be       	out	0x3f, r1	; 63
    1612:	cf ef       	ldi	r28, 0xFF	; 255
    1614:	d8 e0       	ldi	r29, 0x08	; 8
    1616:	de bf       	out	0x3e, r29	; 62
    1618:	cd bf       	out	0x3d, r28	; 61

0000161a <__do_copy_data>:
    161a:	12 e0       	ldi	r17, 0x02	; 2
    161c:	a0 e0       	ldi	r26, 0x00	; 0
    161e:	b1 e0       	ldi	r27, 0x01	; 1
    1620:	e6 e3       	ldi	r30, 0x36	; 54
    1622:	fc e4       	ldi	r31, 0x4C	; 76
    1624:	02 c0       	rjmp	.+4      	; 0x162a <__do_copy_data+0x10>
    1626:	05 90       	lpm	r0, Z+
    1628:	0d 92       	st	X+, r0
    162a:	ac 31       	cpi	r26, 0x1C	; 28
    162c:	b1 07       	cpc	r27, r17
    162e:	d9 f7       	brne	.-10     	; 0x1626 <__do_copy_data+0xc>

00001630 <__do_clear_bss>:
    1630:	26 e0       	ldi	r18, 0x06	; 6
    1632:	ac e1       	ldi	r26, 0x1C	; 28
    1634:	b2 e0       	ldi	r27, 0x02	; 2
    1636:	01 c0       	rjmp	.+2      	; 0x163a <.do_clear_bss_start>

00001638 <.do_clear_bss_loop>:
    1638:	1d 92       	st	X+, r1

0000163a <.do_clear_bss_start>:
    163a:	a3 38       	cpi	r26, 0x83	; 131
    163c:	b2 07       	cpc	r27, r18
    163e:	e1 f7       	brne	.-8      	; 0x1638 <.do_clear_bss_loop>
    1640:	0e 94 81 11 	call	0x2302	; 0x2302 <main>
    1644:	0c 94 19 26 	jmp	0x4c32	; 0x4c32 <_exit>

00001648 <__bad_interrupt>:
    1648:	0c 94 00 00 	jmp	0	; 0x0 <__vectors>

0000164c <Export_Drive_values>:
    164c:	8d e6       	ldi	r24, 0x6D	; 109
    164e:	92 e0       	ldi	r25, 0x02	; 2
    1650:	08 95       	ret

00001652 <Print_Directory>:
    1652:	2f 92       	push	r2
    1654:	3f 92       	push	r3
    1656:	4f 92       	push	r4
    1658:	5f 92       	push	r5
    165a:	6f 92       	push	r6
    165c:	7f 92       	push	r7
    165e:	8f 92       	push	r8
    1660:	9f 92       	push	r9
    1662:	af 92       	push	r10
    1664:	bf 92       	push	r11
    1666:	cf 92       	push	r12
    1668:	df 92       	push	r13
    166a:	ef 92       	push	r14
    166c:	ff 92       	push	r15
    166e:	0f 93       	push	r16
    1670:	1f 93       	push	r17
    1672:	cf 93       	push	r28
    1674:	df 93       	push	r29
    1676:	cd b7       	in	r28, 0x3d	; 61
    1678:	de b7       	in	r29, 0x3e	; 62
    167a:	27 97       	sbiw	r28, 0x07	; 7
    167c:	0f b6       	in	r0, 0x3f	; 63
    167e:	f8 94       	cli
    1680:	de bf       	out	0x3e, r29	; 62
    1682:	0f be       	out	0x3f, r0	; 63
    1684:	cd bf       	out	0x3d, r28	; 61
    1686:	4b 01       	movw	r8, r22
    1688:	5c 01       	movw	r10, r24
    168a:	5a 83       	std	Y+2, r21	; 0x02
    168c:	49 83       	std	Y+1, r20	; 0x01
    168e:	0e 94 49 22 	call	0x4492	; 0x4492 <Export_print_buffer>
    1692:	8c 83       	std	Y+4, r24	; 0x04
    1694:	9d 83       	std	Y+5, r25	; 0x05
    1696:	80 91 6e 02 	lds	r24, 0x026E	; 0x80026e <Drive_values+0x1>
    169a:	82 30       	cpi	r24, 0x02	; 2
    169c:	49 f4       	brne	.+18     	; 0x16b0 <Print_Directory+0x5e>
    169e:	40 90 7f 02 	lds	r4, 0x027F	; 0x80027f <Drive_values+0x12>
    16a2:	50 90 80 02 	lds	r5, 0x0280	; 0x800280 <Drive_values+0x13>
    16a6:	60 90 81 02 	lds	r6, 0x0281	; 0x800281 <Drive_values+0x14>
    16aa:	70 90 82 02 	lds	r7, 0x0282	; 0x800282 <Drive_values+0x15>
    16ae:	05 c0       	rjmp	.+10     	; 0x16ba <Print_Directory+0x68>
    16b0:	40 90 6d 02 	lds	r4, 0x026D	; 0x80026d <Drive_values>
    16b4:	51 2c       	mov	r5, r1
    16b6:	61 2c       	mov	r6, r1
    16b8:	71 2c       	mov	r7, r1
    16ba:	40 91 71 02 	lds	r20, 0x0271	; 0x800271 <Drive_values+0x4>
    16be:	50 91 72 02 	lds	r21, 0x0272	; 0x800272 <Drive_values+0x5>
    16c2:	29 81       	ldd	r18, Y+1	; 0x01
    16c4:	3a 81       	ldd	r19, Y+2	; 0x02
    16c6:	c5 01       	movw	r24, r10
    16c8:	b4 01       	movw	r22, r8
    16ca:	0e 94 63 17 	call	0x2ec6	; 0x2ec6 <Read_Sector>
    16ce:	81 11       	cpse	r24, r1
    16d0:	cd c0       	rjmp	.+410    	; 0x186c <Print_Directory+0x21a>
    16d2:	75 01       	movw	r14, r10
    16d4:	64 01       	movw	r12, r8
    16d6:	00 e0       	ldi	r16, 0x00	; 0
    16d8:	10 e0       	ldi	r17, 0x00	; 0
    16da:	1f 82       	std	Y+7, r1	; 0x07
    16dc:	1e 82       	std	Y+6, r1	; 0x06
    16de:	69 81       	ldd	r22, Y+1	; 0x01
    16e0:	7a 81       	ldd	r23, Y+2	; 0x02
    16e2:	8e 81       	ldd	r24, Y+6	; 0x06
    16e4:	9f 81       	ldd	r25, Y+7	; 0x07
    16e6:	0e 94 89 0d 	call	0x1b12	; 0x1b12 <read8>
    16ea:	38 2e       	mov	r3, r24
    16ec:	25 ee       	ldi	r18, 0xE5	; 229
    16ee:	82 17       	cp	r24, r18
    16f0:	09 f4       	brne	.+2      	; 0x16f4 <Print_Directory+0xa2>
    16f2:	8a c0       	rjmp	.+276    	; 0x1808 <Print_Directory+0x1b6>
    16f4:	88 23       	and	r24, r24
    16f6:	09 f4       	brne	.+2      	; 0x16fa <Print_Directory+0xa8>
    16f8:	87 c0       	rjmp	.+270    	; 0x1808 <Print_Directory+0x1b6>
    16fa:	69 81       	ldd	r22, Y+1	; 0x01
    16fc:	7a 81       	ldd	r23, Y+2	; 0x02
    16fe:	8e 81       	ldd	r24, Y+6	; 0x06
    1700:	9f 81       	ldd	r25, Y+7	; 0x07
    1702:	0b 96       	adiw	r24, 0x0b	; 11
    1704:	0e 94 89 0d 	call	0x1b12	; 0x1b12 <read8>
    1708:	8b 83       	std	Y+3, r24	; 0x03
    170a:	8e 70       	andi	r24, 0x0E	; 14
    170c:	09 f0       	breq	.+2      	; 0x1710 <Print_Directory+0xbe>
    170e:	7c c0       	rjmp	.+248    	; 0x1808 <Print_Directory+0x1b6>
    1710:	0f 5f       	subi	r16, 0xFF	; 255
    1712:	1f 4f       	sbci	r17, 0xFF	; 255
    1714:	1f 93       	push	r17
    1716:	0f 93       	push	r16
    1718:	80 e0       	ldi	r24, 0x00	; 0
    171a:	91 e0       	ldi	r25, 0x01	; 1
    171c:	9f 93       	push	r25
    171e:	8f 93       	push	r24
    1720:	8d 81       	ldd	r24, Y+5	; 0x05
    1722:	8f 93       	push	r24
    1724:	9c 81       	ldd	r25, Y+4	; 0x04
    1726:	9f 93       	push	r25
    1728:	0e 94 2f 23 	call	0x465e	; 0x465e <sprintf>
    172c:	4c 81       	ldd	r20, Y+4	; 0x04
    172e:	5d 81       	ldd	r21, Y+5	; 0x05
    1730:	60 e0       	ldi	r22, 0x00	; 0
    1732:	88 ec       	ldi	r24, 0xC8	; 200
    1734:	90 e0       	ldi	r25, 0x00	; 0
    1736:	0e 94 72 22 	call	0x44e4	; 0x44e4 <UART_Transmit_String>
    173a:	0f 90       	pop	r0
    173c:	0f 90       	pop	r0
    173e:	0f 90       	pop	r0
    1740:	0f 90       	pop	r0
    1742:	0f 90       	pop	r0
    1744:	0f 90       	pop	r0
    1746:	21 2c       	mov	r2, r1
    1748:	0e c0       	rjmp	.+28     	; 0x1766 <Print_Directory+0x114>
    174a:	69 81       	ldd	r22, Y+1	; 0x01
    174c:	7a 81       	ldd	r23, Y+2	; 0x02
    174e:	8e 81       	ldd	r24, Y+6	; 0x06
    1750:	9f 81       	ldd	r25, Y+7	; 0x07
    1752:	82 0d       	add	r24, r2
    1754:	91 1d       	adc	r25, r1
    1756:	0e 94 89 0d 	call	0x1b12	; 0x1b12 <read8>
    175a:	68 2f       	mov	r22, r24
    175c:	88 ec       	ldi	r24, 0xC8	; 200
    175e:	90 e0       	ldi	r25, 0x00	; 0
    1760:	0e 94 3c 22 	call	0x4478	; 0x4478 <UART_Transmit>
    1764:	23 94       	inc	r2
    1766:	27 e0       	ldi	r18, 0x07	; 7
    1768:	22 15       	cp	r18, r2
    176a:	78 f7       	brcc	.-34     	; 0x174a <Print_Directory+0xf8>
    176c:	8b 81       	ldd	r24, Y+3	; 0x03
    176e:	84 fd       	sbrc	r24, 4
    1770:	10 c0       	rjmp	.+32     	; 0x1792 <Print_Directory+0x140>
    1772:	26 c0       	rjmp	.+76     	; 0x17c0 <Print_Directory+0x16e>
    1774:	69 81       	ldd	r22, Y+1	; 0x01
    1776:	7a 81       	ldd	r23, Y+2	; 0x02
    1778:	8e 81       	ldd	r24, Y+6	; 0x06
    177a:	9f 81       	ldd	r25, Y+7	; 0x07
    177c:	82 0d       	add	r24, r2
    177e:	91 1d       	adc	r25, r1
    1780:	0e 94 89 0d 	call	0x1b12	; 0x1b12 <read8>
    1784:	68 2f       	mov	r22, r24
    1786:	88 ec       	ldi	r24, 0xC8	; 200
    1788:	90 e0       	ldi	r25, 0x00	; 0
    178a:	0e 94 3c 22 	call	0x4478	; 0x4478 <UART_Transmit>
    178e:	23 94       	inc	r2
    1790:	03 c0       	rjmp	.+6      	; 0x1798 <Print_Directory+0x146>
    1792:	68 94       	set
    1794:	22 24       	eor	r2, r2
    1796:	23 f8       	bld	r2, 3
    1798:	9a e0       	ldi	r25, 0x0A	; 10
    179a:	92 15       	cp	r25, r2
    179c:	58 f7       	brcc	.-42     	; 0x1774 <Print_Directory+0x122>
    179e:	88 e0       	ldi	r24, 0x08	; 8
    17a0:	e6 e0       	ldi	r30, 0x06	; 6
    17a2:	f1 e0       	ldi	r31, 0x01	; 1
    17a4:	ac 81       	ldd	r26, Y+4	; 0x04
    17a6:	bd 81       	ldd	r27, Y+5	; 0x05
    17a8:	01 90       	ld	r0, Z+
    17aa:	0d 92       	st	X+, r0
    17ac:	8a 95       	dec	r24
    17ae:	e1 f7       	brne	.-8      	; 0x17a8 <Print_Directory+0x156>
    17b0:	4c 81       	ldd	r20, Y+4	; 0x04
    17b2:	5d 81       	ldd	r21, Y+5	; 0x05
    17b4:	60 e0       	ldi	r22, 0x00	; 0
    17b6:	88 ec       	ldi	r24, 0xC8	; 200
    17b8:	90 e0       	ldi	r25, 0x00	; 0
    17ba:	0e 94 72 22 	call	0x44e4	; 0x44e4 <UART_Transmit_String>
    17be:	24 c0       	rjmp	.+72     	; 0x1808 <Print_Directory+0x1b6>
    17c0:	6e e2       	ldi	r22, 0x2E	; 46
    17c2:	88 ec       	ldi	r24, 0xC8	; 200
    17c4:	90 e0       	ldi	r25, 0x00	; 0
    17c6:	0e 94 3c 22 	call	0x4478	; 0x4478 <UART_Transmit>
    17ca:	68 94       	set
    17cc:	22 24       	eor	r2, r2
    17ce:	23 f8       	bld	r2, 3
    17d0:	0e c0       	rjmp	.+28     	; 0x17ee <Print_Directory+0x19c>
    17d2:	69 81       	ldd	r22, Y+1	; 0x01
    17d4:	7a 81       	ldd	r23, Y+2	; 0x02
    17d6:	8e 81       	ldd	r24, Y+6	; 0x06
    17d8:	9f 81       	ldd	r25, Y+7	; 0x07
    17da:	82 0d       	add	r24, r2
    17dc:	91 1d       	adc	r25, r1
    17de:	0e 94 89 0d 	call	0x1b12	; 0x1b12 <read8>
    17e2:	68 2f       	mov	r22, r24
    17e4:	88 ec       	ldi	r24, 0xC8	; 200
    17e6:	90 e0       	ldi	r25, 0x00	; 0
    17e8:	0e 94 3c 22 	call	0x4478	; 0x4478 <UART_Transmit>
    17ec:	23 94       	inc	r2
    17ee:	2a e0       	ldi	r18, 0x0A	; 10
    17f0:	22 15       	cp	r18, r2
    17f2:	78 f7       	brcc	.-34     	; 0x17d2 <Print_Directory+0x180>
    17f4:	6d e0       	ldi	r22, 0x0D	; 13
    17f6:	88 ec       	ldi	r24, 0xC8	; 200
    17f8:	90 e0       	ldi	r25, 0x00	; 0
    17fa:	0e 94 3c 22 	call	0x4478	; 0x4478 <UART_Transmit>
    17fe:	6a e0       	ldi	r22, 0x0A	; 10
    1800:	88 ec       	ldi	r24, 0xC8	; 200
    1802:	90 e0       	ldi	r25, 0x00	; 0
    1804:	0e 94 3c 22 	call	0x4478	; 0x4478 <UART_Transmit>
    1808:	8e 81       	ldd	r24, Y+6	; 0x06
    180a:	9f 81       	ldd	r25, Y+7	; 0x07
    180c:	80 96       	adiw	r24, 0x20	; 32
    180e:	9f 83       	std	Y+7, r25	; 0x07
    1810:	8e 83       	std	Y+6, r24	; 0x06
    1812:	8f 3f       	cpi	r24, 0xFF	; 255
    1814:	91 40       	sbci	r25, 0x01	; 1
    1816:	38 f1       	brcs	.+78     	; 0x1866 <Print_Directory+0x214>
    1818:	8f ef       	ldi	r24, 0xFF	; 255
    181a:	c8 1a       	sub	r12, r24
    181c:	d8 0a       	sbc	r13, r24
    181e:	e8 0a       	sbc	r14, r24
    1820:	f8 0a       	sbc	r15, r24
    1822:	d7 01       	movw	r26, r14
    1824:	c6 01       	movw	r24, r12
    1826:	88 19       	sub	r24, r8
    1828:	99 09       	sbc	r25, r9
    182a:	aa 09       	sbc	r26, r10
    182c:	bb 09       	sbc	r27, r11
    182e:	84 15       	cp	r24, r4
    1830:	95 05       	cpc	r25, r5
    1832:	a6 05       	cpc	r26, r6
    1834:	b7 05       	cpc	r27, r7
    1836:	78 f4       	brcc	.+30     	; 0x1856 <Print_Directory+0x204>
    1838:	40 91 71 02 	lds	r20, 0x0271	; 0x800271 <Drive_values+0x4>
    183c:	50 91 72 02 	lds	r21, 0x0272	; 0x800272 <Drive_values+0x5>
    1840:	29 81       	ldd	r18, Y+1	; 0x01
    1842:	3a 81       	ldd	r19, Y+2	; 0x02
    1844:	c7 01       	movw	r24, r14
    1846:	b6 01       	movw	r22, r12
    1848:	0e 94 63 17 	call	0x2ec6	; 0x2ec6 <Read_Sector>
    184c:	81 11       	cpse	r24, r1
    184e:	06 c0       	rjmp	.+12     	; 0x185c <Print_Directory+0x20a>
    1850:	1f 82       	std	Y+7, r1	; 0x07
    1852:	1e 82       	std	Y+6, r1	; 0x06
    1854:	08 c0       	rjmp	.+16     	; 0x1866 <Print_Directory+0x214>
    1856:	10 68       	ori	r17, 0x80	; 128
    1858:	31 2c       	mov	r3, r1
    185a:	05 c0       	rjmp	.+10     	; 0x1866 <Print_Directory+0x214>
    185c:	31 2c       	mov	r3, r1
    185e:	00 e0       	ldi	r16, 0x00	; 0
    1860:	10 e0       	ldi	r17, 0x00	; 0
    1862:	1f 82       	std	Y+7, r1	; 0x07
    1864:	1e 82       	std	Y+6, r1	; 0x06
    1866:	31 10       	cpse	r3, r1
    1868:	3a cf       	rjmp	.-396    	; 0x16de <Print_Directory+0x8c>
    186a:	02 c0       	rjmp	.+4      	; 0x1870 <Print_Directory+0x21e>
    186c:	00 e0       	ldi	r16, 0x00	; 0
    186e:	10 e0       	ldi	r17, 0x00	; 0
    1870:	c8 01       	movw	r24, r16
    1872:	27 96       	adiw	r28, 0x07	; 7
    1874:	0f b6       	in	r0, 0x3f	; 63
    1876:	f8 94       	cli
    1878:	de bf       	out	0x3e, r29	; 62
    187a:	0f be       	out	0x3f, r0	; 63
    187c:	cd bf       	out	0x3d, r28	; 61
    187e:	df 91       	pop	r29
    1880:	cf 91       	pop	r28
    1882:	1f 91       	pop	r17
    1884:	0f 91       	pop	r16
    1886:	ff 90       	pop	r15
    1888:	ef 90       	pop	r14
    188a:	df 90       	pop	r13
    188c:	cf 90       	pop	r12
    188e:	bf 90       	pop	r11
    1890:	af 90       	pop	r10
    1892:	9f 90       	pop	r9
    1894:	8f 90       	pop	r8
    1896:	7f 90       	pop	r7
    1898:	6f 90       	pop	r6
    189a:	5f 90       	pop	r5
    189c:	4f 90       	pop	r4
    189e:	3f 90       	pop	r3
    18a0:	2f 90       	pop	r2
    18a2:	08 95       	ret

000018a4 <Read_Dir_Entry>:
    18a4:	2f 92       	push	r2
    18a6:	3f 92       	push	r3
    18a8:	4f 92       	push	r4
    18aa:	5f 92       	push	r5
    18ac:	6f 92       	push	r6
    18ae:	7f 92       	push	r7
    18b0:	8f 92       	push	r8
    18b2:	9f 92       	push	r9
    18b4:	af 92       	push	r10
    18b6:	bf 92       	push	r11
    18b8:	cf 92       	push	r12
    18ba:	df 92       	push	r13
    18bc:	ef 92       	push	r14
    18be:	ff 92       	push	r15
    18c0:	1f 93       	push	r17
    18c2:	cf 93       	push	r28
    18c4:	df 93       	push	r29
    18c6:	cd b7       	in	r28, 0x3d	; 61
    18c8:	de b7       	in	r29, 0x3e	; 62
    18ca:	2c 97       	sbiw	r28, 0x0c	; 12
    18cc:	0f b6       	in	r0, 0x3f	; 63
    18ce:	f8 94       	cli
    18d0:	de bf       	out	0x3e, r29	; 62
    18d2:	0f be       	out	0x3f, r0	; 63
    18d4:	cd bf       	out	0x3d, r28	; 61
    18d6:	6b 01       	movw	r12, r22
    18d8:	7c 01       	movw	r14, r24
    18da:	5a 87       	std	Y+10, r21	; 0x0a
    18dc:	49 87       	std	Y+9, r20	; 0x09
    18de:	19 01       	movw	r2, r18
    18e0:	80 91 6e 02 	lds	r24, 0x026E	; 0x80026e <Drive_values+0x1>
    18e4:	82 30       	cpi	r24, 0x02	; 2
    18e6:	49 f4       	brne	.+18     	; 0x18fa <Read_Dir_Entry+0x56>
    18e8:	80 90 7f 02 	lds	r8, 0x027F	; 0x80027f <Drive_values+0x12>
    18ec:	90 90 80 02 	lds	r9, 0x0280	; 0x800280 <Drive_values+0x13>
    18f0:	a0 90 81 02 	lds	r10, 0x0281	; 0x800281 <Drive_values+0x14>
    18f4:	b0 90 82 02 	lds	r11, 0x0282	; 0x800282 <Drive_values+0x15>
    18f8:	06 c0       	rjmp	.+12     	; 0x1906 <Read_Dir_Entry+0x62>
    18fa:	80 91 6d 02 	lds	r24, 0x026D	; 0x80026d <Drive_values>
    18fe:	88 2e       	mov	r8, r24
    1900:	91 2c       	mov	r9, r1
    1902:	a1 2c       	mov	r10, r1
    1904:	b1 2c       	mov	r11, r1
    1906:	40 91 71 02 	lds	r20, 0x0271	; 0x800271 <Drive_values+0x4>
    190a:	50 91 72 02 	lds	r21, 0x0272	; 0x800272 <Drive_values+0x5>
    190e:	91 01       	movw	r18, r2
    1910:	c7 01       	movw	r24, r14
    1912:	b6 01       	movw	r22, r12
    1914:	0e 94 63 17 	call	0x2ec6	; 0x2ec6 <Read_Sector>
    1918:	81 11       	cpse	r24, r1
    191a:	c7 c0       	rjmp	.+398    	; 0x1aaa <Read_Dir_Entry+0x206>
    191c:	26 01       	movw	r4, r12
    191e:	37 01       	movw	r6, r14
    1920:	18 86       	std	Y+8, r1	; 0x08
    1922:	1f 82       	std	Y+7, r1	; 0x07
    1924:	19 82       	std	Y+1, r1	; 0x01
    1926:	1a 82       	std	Y+2, r1	; 0x02
    1928:	1b 82       	std	Y+3, r1	; 0x03
    192a:	1c 82       	std	Y+4, r1	; 0x04
    192c:	20 e0       	ldi	r18, 0x00	; 0
    192e:	30 e0       	ldi	r19, 0x00	; 0
    1930:	3c 87       	std	Y+12, r19	; 0x0c
    1932:	2b 87       	std	Y+11, r18	; 0x0b
    1934:	b1 01       	movw	r22, r2
    1936:	8b 85       	ldd	r24, Y+11	; 0x0b
    1938:	9c 85       	ldd	r25, Y+12	; 0x0c
    193a:	0e 94 89 0d 	call	0x1b12	; 0x1b12 <read8>
    193e:	18 2f       	mov	r17, r24
    1940:	85 3e       	cpi	r24, 0xE5	; 229
    1942:	09 f4       	brne	.+2      	; 0x1946 <Read_Dir_Entry+0xa2>
    1944:	7c c0       	rjmp	.+248    	; 0x1a3e <Read_Dir_Entry+0x19a>
    1946:	88 23       	and	r24, r24
    1948:	09 f4       	brne	.+2      	; 0x194c <Read_Dir_Entry+0xa8>
    194a:	79 c0       	rjmp	.+242    	; 0x1a3e <Read_Dir_Entry+0x19a>
    194c:	4b 85       	ldd	r20, Y+11	; 0x0b
    194e:	5c 85       	ldd	r21, Y+12	; 0x0c
    1950:	45 5f       	subi	r20, 0xF5	; 245
    1952:	5f 4f       	sbci	r21, 0xFF	; 255
    1954:	5e 83       	std	Y+6, r21	; 0x06
    1956:	4d 83       	std	Y+5, r20	; 0x05
    1958:	b1 01       	movw	r22, r2
    195a:	ca 01       	movw	r24, r20
    195c:	0e 94 89 0d 	call	0x1b12	; 0x1b12 <read8>
    1960:	8e 70       	andi	r24, 0x0E	; 14
    1962:	09 f0       	breq	.+2      	; 0x1966 <Read_Dir_Entry+0xc2>
    1964:	6c c0       	rjmp	.+216    	; 0x1a3e <Read_Dir_Entry+0x19a>
    1966:	8f 81       	ldd	r24, Y+7	; 0x07
    1968:	98 85       	ldd	r25, Y+8	; 0x08
    196a:	01 96       	adiw	r24, 0x01	; 1
    196c:	98 87       	std	Y+8, r25	; 0x08
    196e:	8f 83       	std	Y+7, r24	; 0x07
    1970:	a9 85       	ldd	r26, Y+9	; 0x09
    1972:	ba 85       	ldd	r27, Y+10	; 0x0a
    1974:	8a 17       	cp	r24, r26
    1976:	9b 07       	cpc	r25, r27
    1978:	09 f0       	breq	.+2      	; 0x197c <Read_Dir_Entry+0xd8>
    197a:	61 c0       	rjmp	.+194    	; 0x1a3e <Read_Dir_Entry+0x19a>
    197c:	80 91 6e 02 	lds	r24, 0x026E	; 0x80026e <Drive_values+0x1>
    1980:	84 30       	cpi	r24, 0x04	; 4
    1982:	31 f5       	brne	.+76     	; 0x19d0 <Read_Dir_Entry+0x12c>
    1984:	b1 01       	movw	r22, r2
    1986:	8b 85       	ldd	r24, Y+11	; 0x0b
    1988:	9c 85       	ldd	r25, Y+12	; 0x0c
    198a:	45 96       	adiw	r24, 0x15	; 21
    198c:	0e 94 89 0d 	call	0x1b12	; 0x1b12 <read8>
    1990:	90 e0       	ldi	r25, 0x00	; 0
    1992:	a0 e0       	ldi	r26, 0x00	; 0
    1994:	b0 e0       	ldi	r27, 0x00	; 0
    1996:	22 27       	eor	r18, r18
    1998:	38 2f       	mov	r19, r24
    199a:	49 2f       	mov	r20, r25
    199c:	5a 2f       	mov	r21, r26
    199e:	29 83       	std	Y+1, r18	; 0x01
    19a0:	3a 83       	std	Y+2, r19	; 0x02
    19a2:	4b 83       	std	Y+3, r20	; 0x03
    19a4:	5c 83       	std	Y+4, r21	; 0x04
    19a6:	b1 01       	movw	r22, r2
    19a8:	8b 85       	ldd	r24, Y+11	; 0x0b
    19aa:	9c 85       	ldd	r25, Y+12	; 0x0c
    19ac:	44 96       	adiw	r24, 0x14	; 20
    19ae:	0e 94 89 0d 	call	0x1b12	; 0x1b12 <read8>
    19b2:	29 81       	ldd	r18, Y+1	; 0x01
    19b4:	3a 81       	ldd	r19, Y+2	; 0x02
    19b6:	4b 81       	ldd	r20, Y+3	; 0x03
    19b8:	5c 81       	ldd	r21, Y+4	; 0x04
    19ba:	28 2b       	or	r18, r24
    19bc:	da 01       	movw	r26, r20
    19be:	c9 01       	movw	r24, r18
    19c0:	22 27       	eor	r18, r18
    19c2:	38 2f       	mov	r19, r24
    19c4:	49 2f       	mov	r20, r25
    19c6:	5a 2f       	mov	r21, r26
    19c8:	29 83       	std	Y+1, r18	; 0x01
    19ca:	3a 83       	std	Y+2, r19	; 0x02
    19cc:	4b 83       	std	Y+3, r20	; 0x03
    19ce:	5c 83       	std	Y+4, r21	; 0x04
    19d0:	b1 01       	movw	r22, r2
    19d2:	8b 85       	ldd	r24, Y+11	; 0x0b
    19d4:	9c 85       	ldd	r25, Y+12	; 0x0c
    19d6:	4b 96       	adiw	r24, 0x1b	; 27
    19d8:	0e 94 89 0d 	call	0x1b12	; 0x1b12 <read8>
    19dc:	29 81       	ldd	r18, Y+1	; 0x01
    19de:	3a 81       	ldd	r19, Y+2	; 0x02
    19e0:	4b 81       	ldd	r20, Y+3	; 0x03
    19e2:	5c 81       	ldd	r21, Y+4	; 0x04
    19e4:	28 2b       	or	r18, r24
    19e6:	da 01       	movw	r26, r20
    19e8:	c9 01       	movw	r24, r18
    19ea:	22 27       	eor	r18, r18
    19ec:	38 2f       	mov	r19, r24
    19ee:	49 2f       	mov	r20, r25
    19f0:	5a 2f       	mov	r21, r26
    19f2:	29 83       	std	Y+1, r18	; 0x01
    19f4:	3a 83       	std	Y+2, r19	; 0x02
    19f6:	4b 83       	std	Y+3, r20	; 0x03
    19f8:	5c 83       	std	Y+4, r21	; 0x04
    19fa:	b1 01       	movw	r22, r2
    19fc:	8b 85       	ldd	r24, Y+11	; 0x0b
    19fe:	9c 85       	ldd	r25, Y+12	; 0x0c
    1a00:	4a 96       	adiw	r24, 0x1a	; 26
    1a02:	0e 94 89 0d 	call	0x1b12	; 0x1b12 <read8>
    1a06:	29 81       	ldd	r18, Y+1	; 0x01
    1a08:	3a 81       	ldd	r19, Y+2	; 0x02
    1a0a:	4b 81       	ldd	r20, Y+3	; 0x03
    1a0c:	5c 81       	ldd	r21, Y+4	; 0x04
    1a0e:	28 2b       	or	r18, r24
    1a10:	29 83       	std	Y+1, r18	; 0x01
    1a12:	3a 83       	std	Y+2, r19	; 0x02
    1a14:	4b 83       	std	Y+3, r20	; 0x03
    1a16:	5c 83       	std	Y+4, r21	; 0x04
    1a18:	b1 01       	movw	r22, r2
    1a1a:	8d 81       	ldd	r24, Y+5	; 0x05
    1a1c:	9e 81       	ldd	r25, Y+6	; 0x06
    1a1e:	0e 94 89 0d 	call	0x1b12	; 0x1b12 <read8>
    1a22:	84 ff       	sbrs	r24, 4
    1a24:	0b c0       	rjmp	.+22     	; 0x1a3c <Read_Dir_Entry+0x198>
    1a26:	89 81       	ldd	r24, Y+1	; 0x01
    1a28:	9a 81       	ldd	r25, Y+2	; 0x02
    1a2a:	ab 81       	ldd	r26, Y+3	; 0x03
    1a2c:	bc 81       	ldd	r27, Y+4	; 0x04
    1a2e:	b0 61       	ori	r27, 0x10	; 16
    1a30:	89 83       	std	Y+1, r24	; 0x01
    1a32:	9a 83       	std	Y+2, r25	; 0x02
    1a34:	ab 83       	std	Y+3, r26	; 0x03
    1a36:	bc 83       	std	Y+4, r27	; 0x04
    1a38:	10 e0       	ldi	r17, 0x00	; 0
    1a3a:	01 c0       	rjmp	.+2      	; 0x1a3e <Read_Dir_Entry+0x19a>
    1a3c:	10 e0       	ldi	r17, 0x00	; 0
    1a3e:	ab 85       	ldd	r26, Y+11	; 0x0b
    1a40:	bc 85       	ldd	r27, Y+12	; 0x0c
    1a42:	90 96       	adiw	r26, 0x20	; 32
    1a44:	bc 87       	std	Y+12, r27	; 0x0c
    1a46:	ab 87       	std	Y+11, r26	; 0x0b
    1a48:	af 3f       	cpi	r26, 0xFF	; 255
    1a4a:	b1 40       	sbci	r27, 0x01	; 1
    1a4c:	58 f1       	brcs	.+86     	; 0x1aa4 <Read_Dir_Entry+0x200>
    1a4e:	3f ef       	ldi	r19, 0xFF	; 255
    1a50:	43 1a       	sub	r4, r19
    1a52:	53 0a       	sbc	r5, r19
    1a54:	63 0a       	sbc	r6, r19
    1a56:	73 0a       	sbc	r7, r19
    1a58:	d3 01       	movw	r26, r6
    1a5a:	c2 01       	movw	r24, r4
    1a5c:	8c 19       	sub	r24, r12
    1a5e:	9d 09       	sbc	r25, r13
    1a60:	ae 09       	sbc	r26, r14
    1a62:	bf 09       	sbc	r27, r15
    1a64:	88 15       	cp	r24, r8
    1a66:	99 05       	cpc	r25, r9
    1a68:	aa 05       	cpc	r26, r10
    1a6a:	bb 05       	cpc	r27, r11
    1a6c:	70 f4       	brcc	.+28     	; 0x1a8a <Read_Dir_Entry+0x1e6>
    1a6e:	40 91 71 02 	lds	r20, 0x0271	; 0x800271 <Drive_values+0x4>
    1a72:	50 91 72 02 	lds	r21, 0x0272	; 0x800272 <Drive_values+0x5>
    1a76:	91 01       	movw	r18, r2
    1a78:	c3 01       	movw	r24, r6
    1a7a:	b2 01       	movw	r22, r4
    1a7c:	0e 94 63 17 	call	0x2ec6	; 0x2ec6 <Read_Sector>
    1a80:	81 11       	cpse	r24, r1
    1a82:	05 c0       	rjmp	.+10     	; 0x1a8e <Read_Dir_Entry+0x1ea>
    1a84:	1c 86       	std	Y+12, r1	; 0x0c
    1a86:	1b 86       	std	Y+11, r1	; 0x0b
    1a88:	0d c0       	rjmp	.+26     	; 0x1aa4 <Read_Dir_Entry+0x200>
    1a8a:	10 e0       	ldi	r17, 0x00	; 0
    1a8c:	0b c0       	rjmp	.+22     	; 0x1aa4 <Read_Dir_Entry+0x200>
    1a8e:	10 e0       	ldi	r17, 0x00	; 0
    1a90:	1c 86       	std	Y+12, r1	; 0x0c
    1a92:	1b 86       	std	Y+11, r1	; 0x0b
    1a94:	80 e0       	ldi	r24, 0x00	; 0
    1a96:	90 e0       	ldi	r25, 0x00	; 0
    1a98:	a0 e0       	ldi	r26, 0x00	; 0
    1a9a:	b0 e8       	ldi	r27, 0x80	; 128
    1a9c:	89 83       	std	Y+1, r24	; 0x01
    1a9e:	9a 83       	std	Y+2, r25	; 0x02
    1aa0:	ab 83       	std	Y+3, r26	; 0x03
    1aa2:	bc 83       	std	Y+4, r27	; 0x04
    1aa4:	11 11       	cpse	r17, r1
    1aa6:	46 cf       	rjmp	.-372    	; 0x1934 <Read_Dir_Entry+0x90>
    1aa8:	08 c0       	rjmp	.+16     	; 0x1aba <Read_Dir_Entry+0x216>
    1aaa:	20 e0       	ldi	r18, 0x00	; 0
    1aac:	30 e0       	ldi	r19, 0x00	; 0
    1aae:	40 e0       	ldi	r20, 0x00	; 0
    1ab0:	50 e8       	ldi	r21, 0x80	; 128
    1ab2:	29 83       	std	Y+1, r18	; 0x01
    1ab4:	3a 83       	std	Y+2, r19	; 0x02
    1ab6:	4b 83       	std	Y+3, r20	; 0x03
    1ab8:	5c 83       	std	Y+4, r21	; 0x04
    1aba:	89 81       	ldd	r24, Y+1	; 0x01
    1abc:	9a 81       	ldd	r25, Y+2	; 0x02
    1abe:	ab 81       	ldd	r26, Y+3	; 0x03
    1ac0:	bc 81       	ldd	r27, Y+4	; 0x04
    1ac2:	89 2b       	or	r24, r25
    1ac4:	8a 2b       	or	r24, r26
    1ac6:	8b 2b       	or	r24, r27
    1ac8:	41 f4       	brne	.+16     	; 0x1ada <Read_Dir_Entry+0x236>
    1aca:	20 e0       	ldi	r18, 0x00	; 0
    1acc:	30 e0       	ldi	r19, 0x00	; 0
    1ace:	40 e0       	ldi	r20, 0x00	; 0
    1ad0:	50 e8       	ldi	r21, 0x80	; 128
    1ad2:	29 83       	std	Y+1, r18	; 0x01
    1ad4:	3a 83       	std	Y+2, r19	; 0x02
    1ad6:	4b 83       	std	Y+3, r20	; 0x03
    1ad8:	5c 83       	std	Y+4, r21	; 0x04
    1ada:	69 81       	ldd	r22, Y+1	; 0x01
    1adc:	7a 81       	ldd	r23, Y+2	; 0x02
    1ade:	8b 81       	ldd	r24, Y+3	; 0x03
    1ae0:	9c 81       	ldd	r25, Y+4	; 0x04
    1ae2:	2c 96       	adiw	r28, 0x0c	; 12
    1ae4:	0f b6       	in	r0, 0x3f	; 63
    1ae6:	f8 94       	cli
    1ae8:	de bf       	out	0x3e, r29	; 62
    1aea:	0f be       	out	0x3f, r0	; 63
    1aec:	cd bf       	out	0x3d, r28	; 61
    1aee:	df 91       	pop	r29
    1af0:	cf 91       	pop	r28
    1af2:	1f 91       	pop	r17
    1af4:	ff 90       	pop	r15
    1af6:	ef 90       	pop	r14
    1af8:	df 90       	pop	r13
    1afa:	cf 90       	pop	r12
    1afc:	bf 90       	pop	r11
    1afe:	af 90       	pop	r10
    1b00:	9f 90       	pop	r9
    1b02:	8f 90       	pop	r8
    1b04:	7f 90       	pop	r7
    1b06:	6f 90       	pop	r6
    1b08:	5f 90       	pop	r5
    1b0a:	4f 90       	pop	r4
    1b0c:	3f 90       	pop	r3
    1b0e:	2f 90       	pop	r2
    1b10:	08 95       	ret

00001b12 <read8>:
    1b12:	91 70       	andi	r25, 0x01	; 1
    1b14:	fb 01       	movw	r30, r22
    1b16:	e8 0f       	add	r30, r24
    1b18:	f9 1f       	adc	r31, r25
    1b1a:	80 81       	ld	r24, Z
    1b1c:	08 95       	ret

00001b1e <read16>:
    1b1e:	91 70       	andi	r25, 0x01	; 1
    1b20:	fc 01       	movw	r30, r24
    1b22:	31 96       	adiw	r30, 0x01	; 1
    1b24:	e6 0f       	add	r30, r22
    1b26:	f7 1f       	adc	r31, r23
    1b28:	20 81       	ld	r18, Z
    1b2a:	30 e0       	ldi	r19, 0x00	; 0
    1b2c:	32 2f       	mov	r19, r18
    1b2e:	22 27       	eor	r18, r18
    1b30:	fb 01       	movw	r30, r22
    1b32:	e8 0f       	add	r30, r24
    1b34:	f9 1f       	adc	r31, r25
    1b36:	80 81       	ld	r24, Z
    1b38:	a9 01       	movw	r20, r18
    1b3a:	48 2b       	or	r20, r24
    1b3c:	ca 01       	movw	r24, r20
    1b3e:	08 95       	ret

00001b40 <read32>:
    1b40:	9b 01       	movw	r18, r22
    1b42:	ac 01       	movw	r20, r24
    1b44:	51 70       	andi	r21, 0x01	; 1
    1b46:	fa 01       	movw	r30, r20
    1b48:	33 96       	adiw	r30, 0x03	; 3
    1b4a:	e6 0f       	add	r30, r22
    1b4c:	f7 1f       	adc	r31, r23
    1b4e:	60 81       	ld	r22, Z
    1b50:	86 2f       	mov	r24, r22
    1b52:	90 e0       	ldi	r25, 0x00	; 0
    1b54:	a0 e0       	ldi	r26, 0x00	; 0
    1b56:	b0 e0       	ldi	r27, 0x00	; 0
    1b58:	ba 2f       	mov	r27, r26
    1b5a:	a9 2f       	mov	r26, r25
    1b5c:	98 2f       	mov	r25, r24
    1b5e:	88 27       	eor	r24, r24
    1b60:	fa 01       	movw	r30, r20
    1b62:	32 96       	adiw	r30, 0x02	; 2
    1b64:	e2 0f       	add	r30, r18
    1b66:	f3 1f       	adc	r31, r19
    1b68:	e0 81       	ld	r30, Z
    1b6a:	8e 2b       	or	r24, r30
    1b6c:	ba 2f       	mov	r27, r26
    1b6e:	a9 2f       	mov	r26, r25
    1b70:	98 2f       	mov	r25, r24
    1b72:	88 27       	eor	r24, r24
    1b74:	fa 01       	movw	r30, r20
    1b76:	31 96       	adiw	r30, 0x01	; 1
    1b78:	e2 0f       	add	r30, r18
    1b7a:	f3 1f       	adc	r31, r19
    1b7c:	e0 81       	ld	r30, Z
    1b7e:	8e 2b       	or	r24, r30
    1b80:	ba 2f       	mov	r27, r26
    1b82:	a9 2f       	mov	r26, r25
    1b84:	98 2f       	mov	r25, r24
    1b86:	88 27       	eor	r24, r24
    1b88:	f9 01       	movw	r30, r18
    1b8a:	e4 0f       	add	r30, r20
    1b8c:	f5 1f       	adc	r31, r21
    1b8e:	20 81       	ld	r18, Z
    1b90:	bc 01       	movw	r22, r24
    1b92:	cd 01       	movw	r24, r26
    1b94:	62 2b       	or	r22, r18
    1b96:	08 95       	ret

00001b98 <Mount_Drive>:
    1b98:	2f 92       	push	r2
    1b9a:	3f 92       	push	r3
    1b9c:	4f 92       	push	r4
    1b9e:	5f 92       	push	r5
    1ba0:	6f 92       	push	r6
    1ba2:	7f 92       	push	r7
    1ba4:	8f 92       	push	r8
    1ba6:	9f 92       	push	r9
    1ba8:	af 92       	push	r10
    1baa:	bf 92       	push	r11
    1bac:	cf 92       	push	r12
    1bae:	df 92       	push	r13
    1bb0:	ef 92       	push	r14
    1bb2:	ff 92       	push	r15
    1bb4:	0f 93       	push	r16
    1bb6:	1f 93       	push	r17
    1bb8:	cf 93       	push	r28
    1bba:	df 93       	push	r29
    1bbc:	cd b7       	in	r28, 0x3d	; 61
    1bbe:	de b7       	in	r29, 0x3e	; 62
    1bc0:	2c 97       	sbiw	r28, 0x0c	; 12
    1bc2:	0f b6       	in	r0, 0x3f	; 63
    1bc4:	f8 94       	cli
    1bc6:	de bf       	out	0x3e, r29	; 62
    1bc8:	0f be       	out	0x3f, r0	; 63
    1bca:	cd bf       	out	0x3d, r28	; 61
    1bcc:	1c 01       	movw	r2, r24
    1bce:	0e 94 26 0b 	call	0x164c	; 0x164c <Export_Drive_values>
    1bd2:	9c 87       	std	Y+12, r25	; 0x0c
    1bd4:	8b 87       	std	Y+11, r24	; 0x0b
    1bd6:	0e 94 49 22 	call	0x4492	; 0x4492 <Export_print_buffer>
    1bda:	08 2f       	mov	r16, r24
    1bdc:	19 2f       	mov	r17, r25
    1bde:	48 2f       	mov	r20, r24
    1be0:	59 2f       	mov	r21, r25
    1be2:	60 e0       	ldi	r22, 0x00	; 0
    1be4:	88 e1       	ldi	r24, 0x18	; 24
    1be6:	91 e1       	ldi	r25, 0x11	; 17
    1be8:	0e 94 4c 22 	call	0x4498	; 0x4498 <Copy_String_to_Buffer>
    1bec:	40 2f       	mov	r20, r16
    1bee:	51 2f       	mov	r21, r17
    1bf0:	60 e0       	ldi	r22, 0x00	; 0
    1bf2:	88 ec       	ldi	r24, 0xC8	; 200
    1bf4:	90 e0       	ldi	r25, 0x00	; 0
    1bf6:	0e 94 72 22 	call	0x44e4	; 0x44e4 <UART_Transmit_String>
    1bfa:	91 01       	movw	r18, r2
    1bfc:	40 e0       	ldi	r20, 0x00	; 0
    1bfe:	52 e0       	ldi	r21, 0x02	; 2
    1c00:	60 e0       	ldi	r22, 0x00	; 0
    1c02:	70 e0       	ldi	r23, 0x00	; 0
    1c04:	cb 01       	movw	r24, r22
    1c06:	0e 94 63 17 	call	0x2ec6	; 0x2ec6 <Read_Sector>
    1c0a:	b1 01       	movw	r22, r2
    1c0c:	80 e0       	ldi	r24, 0x00	; 0
    1c0e:	90 e0       	ldi	r25, 0x00	; 0
    1c10:	0e 94 89 0d 	call	0x1b12	; 0x1b12 <read8>
    1c14:	8b 3e       	cpi	r24, 0xEB	; 235
    1c16:	09 f4       	brne	.+2      	; 0x1c1a <Mount_Drive+0x82>
    1c18:	41 c0       	rjmp	.+130    	; 0x1c9c <Mount_Drive+0x104>
    1c1a:	89 3e       	cpi	r24, 0xE9	; 233
    1c1c:	09 f4       	brne	.+2      	; 0x1c20 <Mount_Drive+0x88>
    1c1e:	43 c0       	rjmp	.+134    	; 0x1ca6 <Mount_Drive+0x10e>
    1c20:	b1 01       	movw	r22, r2
    1c22:	86 ec       	ldi	r24, 0xC6	; 198
    1c24:	91 e0       	ldi	r25, 0x01	; 1
    1c26:	0e 94 a0 0d 	call	0x1b40	; 0x1b40 <read32>
    1c2a:	69 83       	std	Y+1, r22	; 0x01
    1c2c:	7a 83       	std	Y+2, r23	; 0x02
    1c2e:	8b 83       	std	Y+3, r24	; 0x03
    1c30:	9c 83       	std	Y+4, r25	; 0x04
    1c32:	91 01       	movw	r18, r2
    1c34:	40 e0       	ldi	r20, 0x00	; 0
    1c36:	52 e0       	ldi	r21, 0x02	; 2
    1c38:	0e 94 63 17 	call	0x2ec6	; 0x2ec6 <Read_Sector>
    1c3c:	40 2f       	mov	r20, r16
    1c3e:	51 2f       	mov	r21, r17
    1c40:	60 e0       	ldi	r22, 0x00	; 0
    1c42:	84 e0       	ldi	r24, 0x04	; 4
    1c44:	91 e1       	ldi	r25, 0x11	; 17
    1c46:	0e 94 4c 22 	call	0x4498	; 0x4498 <Copy_String_to_Buffer>
    1c4a:	40 2f       	mov	r20, r16
    1c4c:	51 2f       	mov	r21, r17
    1c4e:	60 e0       	ldi	r22, 0x00	; 0
    1c50:	88 ec       	ldi	r24, 0xC8	; 200
    1c52:	90 e0       	ldi	r25, 0x00	; 0
    1c54:	0e 94 72 22 	call	0x44e4	; 0x44e4 <UART_Transmit_String>
    1c58:	2c 81       	ldd	r18, Y+4	; 0x04
    1c5a:	2f 93       	push	r18
    1c5c:	3b 81       	ldd	r19, Y+3	; 0x03
    1c5e:	3f 93       	push	r19
    1c60:	4a 81       	ldd	r20, Y+2	; 0x02
    1c62:	4f 93       	push	r20
    1c64:	59 81       	ldd	r21, Y+1	; 0x01
    1c66:	5f 93       	push	r21
    1c68:	8a e3       	ldi	r24, 0x3A	; 58
    1c6a:	91 e0       	ldi	r25, 0x01	; 1
    1c6c:	9f 93       	push	r25
    1c6e:	8f 93       	push	r24
    1c70:	1f 93       	push	r17
    1c72:	0f 93       	push	r16
    1c74:	0e 94 2f 23 	call	0x465e	; 0x465e <sprintf>
    1c78:	40 2f       	mov	r20, r16
    1c7a:	51 2f       	mov	r21, r17
    1c7c:	60 e0       	ldi	r22, 0x00	; 0
    1c7e:	88 ec       	ldi	r24, 0xC8	; 200
    1c80:	90 e0       	ldi	r25, 0x00	; 0
    1c82:	0e 94 72 22 	call	0x44e4	; 0x44e4 <UART_Transmit_String>
    1c86:	b1 01       	movw	r22, r2
    1c88:	80 e0       	ldi	r24, 0x00	; 0
    1c8a:	90 e0       	ldi	r25, 0x00	; 0
    1c8c:	0e 94 89 0d 	call	0x1b12	; 0x1b12 <read8>
    1c90:	0f b6       	in	r0, 0x3f	; 63
    1c92:	f8 94       	cli
    1c94:	de bf       	out	0x3e, r29	; 62
    1c96:	0f be       	out	0x3f, r0	; 63
    1c98:	cd bf       	out	0x3d, r28	; 61
    1c9a:	09 c0       	rjmp	.+18     	; 0x1cae <Mount_Drive+0x116>
    1c9c:	19 82       	std	Y+1, r1	; 0x01
    1c9e:	1a 82       	std	Y+2, r1	; 0x02
    1ca0:	1b 82       	std	Y+3, r1	; 0x03
    1ca2:	1c 82       	std	Y+4, r1	; 0x04
    1ca4:	04 c0       	rjmp	.+8      	; 0x1cae <Mount_Drive+0x116>
    1ca6:	19 82       	std	Y+1, r1	; 0x01
    1ca8:	1a 82       	std	Y+2, r1	; 0x02
    1caa:	1b 82       	std	Y+3, r1	; 0x03
    1cac:	1c 82       	std	Y+4, r1	; 0x04
    1cae:	8b 3e       	cpi	r24, 0xEB	; 235
    1cb0:	91 f0       	breq	.+36     	; 0x1cd6 <Mount_Drive+0x13e>
    1cb2:	89 3e       	cpi	r24, 0xE9	; 233
    1cb4:	81 f0       	breq	.+32     	; 0x1cd6 <Mount_Drive+0x13e>
    1cb6:	40 2f       	mov	r20, r16
    1cb8:	51 2f       	mov	r21, r17
    1cba:	60 e0       	ldi	r22, 0x00	; 0
    1cbc:	86 ef       	ldi	r24, 0xF6	; 246
    1cbe:	90 e1       	ldi	r25, 0x10	; 16
    1cc0:	0e 94 4c 22 	call	0x4498	; 0x4498 <Copy_String_to_Buffer>
    1cc4:	40 2f       	mov	r20, r16
    1cc6:	51 2f       	mov	r21, r17
    1cc8:	60 e0       	ldi	r22, 0x00	; 0
    1cca:	88 ec       	ldi	r24, 0xC8	; 200
    1ccc:	90 e0       	ldi	r25, 0x00	; 0
    1cce:	0e 94 72 22 	call	0x44e4	; 0x44e4 <UART_Transmit_String>
    1cd2:	80 ef       	ldi	r24, 0xF0	; 240
    1cd4:	c4 c1       	rjmp	.+904    	; 0x205e <Mount_Drive+0x4c6>
    1cd6:	b1 01       	movw	r22, r2
    1cd8:	8b e0       	ldi	r24, 0x0B	; 11
    1cda:	90 e0       	ldi	r25, 0x00	; 0
    1cdc:	0e 94 8f 0d 	call	0x1b1e	; 0x1b1e <read16>
    1ce0:	6c 01       	movw	r12, r24
    1ce2:	eb 85       	ldd	r30, Y+11	; 0x0b
    1ce4:	fc 85       	ldd	r31, Y+12	; 0x0c
    1ce6:	95 83       	std	Z+5, r25	; 0x05
    1ce8:	84 83       	std	Z+4, r24	; 0x04
    1cea:	12 82       	std	Z+2, r1	; 0x02
    1cec:	9c 01       	movw	r18, r24
    1cee:	0a c0       	rjmp	.+20     	; 0x1d04 <Mount_Drive+0x16c>
    1cf0:	ab 85       	ldd	r26, Y+11	; 0x0b
    1cf2:	bc 85       	ldd	r27, Y+12	; 0x0c
    1cf4:	12 96       	adiw	r26, 0x02	; 2
    1cf6:	8c 91       	ld	r24, X
    1cf8:	12 97       	sbiw	r26, 0x02	; 2
    1cfa:	8f 5f       	subi	r24, 0xFF	; 255
    1cfc:	12 96       	adiw	r26, 0x02	; 2
    1cfe:	8c 93       	st	X, r24
    1d00:	36 95       	lsr	r19
    1d02:	27 95       	ror	r18
    1d04:	21 30       	cpi	r18, 0x01	; 1
    1d06:	31 05       	cpc	r19, r1
    1d08:	99 f7       	brne	.-26     	; 0x1cf0 <Mount_Drive+0x158>
    1d0a:	b1 01       	movw	r22, r2
    1d0c:	8d e0       	ldi	r24, 0x0D	; 13
    1d0e:	90 e0       	ldi	r25, 0x00	; 0
    1d10:	0e 94 89 0d 	call	0x1b12	; 0x1b12 <read8>
    1d14:	89 87       	std	Y+9, r24	; 0x09
    1d16:	ab 85       	ldd	r26, Y+11	; 0x0b
    1d18:	bc 85       	ldd	r27, Y+12	; 0x0c
    1d1a:	8c 93       	st	X, r24
    1d1c:	b1 01       	movw	r22, r2
    1d1e:	8e e0       	ldi	r24, 0x0E	; 14
    1d20:	90 e0       	ldi	r25, 0x00	; 0
    1d22:	0e 94 8f 0d 	call	0x1b1e	; 0x1b1e <read16>
    1d26:	9e 83       	std	Y+6, r25	; 0x06
    1d28:	8d 83       	std	Y+5, r24	; 0x05
    1d2a:	b1 01       	movw	r22, r2
    1d2c:	80 e1       	ldi	r24, 0x10	; 16
    1d2e:	90 e0       	ldi	r25, 0x00	; 0
    1d30:	0e 94 89 0d 	call	0x1b12	; 0x1b12 <read8>
    1d34:	8a 87       	std	Y+10, r24	; 0x0a
    1d36:	b1 01       	movw	r22, r2
    1d38:	81 e1       	ldi	r24, 0x11	; 17
    1d3a:	90 e0       	ldi	r25, 0x00	; 0
    1d3c:	0e 94 8f 0d 	call	0x1b1e	; 0x1b1e <read16>
    1d40:	7c 01       	movw	r14, r24
    1d42:	b1 01       	movw	r22, r2
    1d44:	83 e1       	ldi	r24, 0x13	; 19
    1d46:	90 e0       	ldi	r25, 0x00	; 0
    1d48:	0e 94 8f 0d 	call	0x1b1e	; 0x1b1e <read16>
    1d4c:	2c 01       	movw	r4, r24
    1d4e:	61 2c       	mov	r6, r1
    1d50:	71 2c       	mov	r7, r1
    1d52:	41 14       	cp	r4, r1
    1d54:	51 04       	cpc	r5, r1
    1d56:	61 04       	cpc	r6, r1
    1d58:	71 04       	cpc	r7, r1
    1d5a:	39 f4       	brne	.+14     	; 0x1d6a <Mount_Drive+0x1d2>
    1d5c:	b1 01       	movw	r22, r2
    1d5e:	80 e2       	ldi	r24, 0x20	; 32
    1d60:	90 e0       	ldi	r25, 0x00	; 0
    1d62:	0e 94 a0 0d 	call	0x1b40	; 0x1b40 <read32>
    1d66:	2b 01       	movw	r4, r22
    1d68:	3c 01       	movw	r6, r24
    1d6a:	b1 01       	movw	r22, r2
    1d6c:	86 e1       	ldi	r24, 0x16	; 22
    1d6e:	90 e0       	ldi	r25, 0x00	; 0
    1d70:	0e 94 8f 0d 	call	0x1b1e	; 0x1b1e <read16>
    1d74:	4c 01       	movw	r8, r24
    1d76:	a1 2c       	mov	r10, r1
    1d78:	b1 2c       	mov	r11, r1
    1d7a:	81 14       	cp	r8, r1
    1d7c:	91 04       	cpc	r9, r1
    1d7e:	a1 04       	cpc	r10, r1
    1d80:	b1 04       	cpc	r11, r1
    1d82:	39 f4       	brne	.+14     	; 0x1d92 <Mount_Drive+0x1fa>
    1d84:	b1 01       	movw	r22, r2
    1d86:	84 e2       	ldi	r24, 0x24	; 36
    1d88:	90 e0       	ldi	r25, 0x00	; 0
    1d8a:	0e 94 a0 0d 	call	0x1b40	; 0x1b40 <read32>
    1d8e:	4b 01       	movw	r8, r22
    1d90:	5c 01       	movw	r10, r24
    1d92:	c7 01       	movw	r24, r14
    1d94:	88 0f       	add	r24, r24
    1d96:	99 1f       	adc	r25, r25
    1d98:	82 95       	swap	r24
    1d9a:	92 95       	swap	r25
    1d9c:	90 7f       	andi	r25, 0xF0	; 240
    1d9e:	98 27       	eor	r25, r24
    1da0:	80 7f       	andi	r24, 0xF0	; 240
    1da2:	98 27       	eor	r25, r24
    1da4:	8c 0d       	add	r24, r12
    1da6:	9d 1d       	adc	r25, r13
    1da8:	01 97       	sbiw	r24, 0x01	; 1
    1daa:	b6 01       	movw	r22, r12
    1dac:	0e 94 a3 22 	call	0x4546	; 0x4546 <__udivmodhi4>
    1db0:	6b 01       	movw	r12, r22
    1db2:	e1 2c       	mov	r14, r1
    1db4:	f1 2c       	mov	r15, r1
    1db6:	eb 85       	ldd	r30, Y+11	; 0x0b
    1db8:	fc 85       	ldd	r31, Y+12	; 0x0c
    1dba:	c2 8a       	std	Z+18, r12	; 0x12
    1dbc:	d3 8a       	std	Z+19, r13	; 0x13
    1dbe:	e4 8a       	std	Z+20, r14	; 0x14
    1dc0:	f5 8a       	std	Z+21, r15	; 0x15
    1dc2:	4d 81       	ldd	r20, Y+5	; 0x05
    1dc4:	5e 81       	ldd	r21, Y+6	; 0x06
    1dc6:	9a 01       	movw	r18, r20
    1dc8:	40 e0       	ldi	r20, 0x00	; 0
    1dca:	50 e0       	ldi	r21, 0x00	; 0
    1dcc:	2d 83       	std	Y+5, r18	; 0x05
    1dce:	3e 83       	std	Y+6, r19	; 0x06
    1dd0:	4f 83       	std	Y+7, r20	; 0x07
    1dd2:	58 87       	std	Y+8, r21	; 0x08
    1dd4:	5a 85       	ldd	r21, Y+10	; 0x0a
    1dd6:	a5 2f       	mov	r26, r21
    1dd8:	b0 e0       	ldi	r27, 0x00	; 0
    1dda:	a5 01       	movw	r20, r10
    1ddc:	94 01       	movw	r18, r8
    1dde:	0e 94 d9 22 	call	0x45b2	; 0x45b2 <__muluhisi3>
    1de2:	4b 01       	movw	r8, r22
    1de4:	5c 01       	movw	r10, r24
    1de6:	8d 81       	ldd	r24, Y+5	; 0x05
    1de8:	9e 81       	ldd	r25, Y+6	; 0x06
    1dea:	af 81       	ldd	r26, Y+7	; 0x07
    1dec:	b8 85       	ldd	r27, Y+8	; 0x08
    1dee:	88 0d       	add	r24, r8
    1df0:	99 1d       	adc	r25, r9
    1df2:	aa 1d       	adc	r26, r10
    1df4:	bb 1d       	adc	r27, r11
    1df6:	c8 0e       	add	r12, r24
    1df8:	d9 1e       	adc	r13, r25
    1dfa:	ea 1e       	adc	r14, r26
    1dfc:	fb 1e       	adc	r15, r27
    1dfe:	c3 01       	movw	r24, r6
    1e00:	b2 01       	movw	r22, r4
    1e02:	6c 19       	sub	r22, r12
    1e04:	7d 09       	sbc	r23, r13
    1e06:	8e 09       	sbc	r24, r14
    1e08:	9f 09       	sbc	r25, r15
    1e0a:	a9 85       	ldd	r26, Y+9	; 0x09
    1e0c:	2a 2f       	mov	r18, r26
    1e0e:	30 e0       	ldi	r19, 0x00	; 0
    1e10:	40 e0       	ldi	r20, 0x00	; 0
    1e12:	50 e0       	ldi	r21, 0x00	; 0
    1e14:	0e 94 b7 22 	call	0x456e	; 0x456e <__udivmodsi4>
    1e18:	29 01       	movw	r4, r18
    1e1a:	3a 01       	movw	r6, r20
    1e1c:	89 81       	ldd	r24, Y+1	; 0x01
    1e1e:	9a 81       	ldd	r25, Y+2	; 0x02
    1e20:	ab 81       	ldd	r26, Y+3	; 0x03
    1e22:	bc 81       	ldd	r27, Y+4	; 0x04
    1e24:	2d 81       	ldd	r18, Y+5	; 0x05
    1e26:	3e 81       	ldd	r19, Y+6	; 0x06
    1e28:	4f 81       	ldd	r20, Y+7	; 0x07
    1e2a:	58 85       	ldd	r21, Y+8	; 0x08
    1e2c:	82 0f       	add	r24, r18
    1e2e:	93 1f       	adc	r25, r19
    1e30:	a4 1f       	adc	r26, r20
    1e32:	b5 1f       	adc	r27, r21
    1e34:	eb 85       	ldd	r30, Y+11	; 0x0b
    1e36:	fc 85       	ldd	r31, Y+12	; 0x0c
    1e38:	86 87       	std	Z+14, r24	; 0x0e
    1e3a:	97 87       	std	Z+15, r25	; 0x0f
    1e3c:	a0 8b       	std	Z+16, r26	; 0x10
    1e3e:	b1 8b       	std	Z+17, r27	; 0x11
    1e40:	40 2f       	mov	r20, r16
    1e42:	51 2f       	mov	r21, r17
    1e44:	60 e0       	ldi	r22, 0x00	; 0
    1e46:	80 ec       	ldi	r24, 0xC0	; 192
    1e48:	90 e1       	ldi	r25, 0x10	; 16
    1e4a:	0e 94 4c 22 	call	0x4498	; 0x4498 <Copy_String_to_Buffer>
    1e4e:	40 2f       	mov	r20, r16
    1e50:	51 2f       	mov	r21, r17
    1e52:	60 e0       	ldi	r22, 0x00	; 0
    1e54:	88 ec       	ldi	r24, 0xC8	; 200
    1e56:	90 e0       	ldi	r25, 0x00	; 0
    1e58:	0e 94 72 22 	call	0x44e4	; 0x44e4 <UART_Transmit_String>
    1e5c:	ab 85       	ldd	r26, Y+11	; 0x0b
    1e5e:	bc 85       	ldd	r27, Y+12	; 0x0c
    1e60:	51 96       	adiw	r26, 0x11	; 17
    1e62:	8c 91       	ld	r24, X
    1e64:	51 97       	sbiw	r26, 0x11	; 17
    1e66:	8f 93       	push	r24
    1e68:	50 96       	adiw	r26, 0x10	; 16
    1e6a:	8c 91       	ld	r24, X
    1e6c:	50 97       	sbiw	r26, 0x10	; 16
    1e6e:	8f 93       	push	r24
    1e70:	1f 96       	adiw	r26, 0x0f	; 15
    1e72:	8c 91       	ld	r24, X
    1e74:	1f 97       	sbiw	r26, 0x0f	; 15
    1e76:	8f 93       	push	r24
    1e78:	1e 96       	adiw	r26, 0x0e	; 14
    1e7a:	8c 91       	ld	r24, X
    1e7c:	8f 93       	push	r24
    1e7e:	0f 2e       	mov	r0, r31
    1e80:	fa e3       	ldi	r31, 0x3A	; 58
    1e82:	ef 2e       	mov	r14, r31
    1e84:	f1 e0       	ldi	r31, 0x01	; 1
    1e86:	ff 2e       	mov	r15, r31
    1e88:	f0 2d       	mov	r31, r0
    1e8a:	ff 92       	push	r15
    1e8c:	ef 92       	push	r14
    1e8e:	1f 93       	push	r17
    1e90:	0f 93       	push	r16
    1e92:	0e 94 2f 23 	call	0x465e	; 0x465e <sprintf>
    1e96:	40 2f       	mov	r20, r16
    1e98:	51 2f       	mov	r21, r17
    1e9a:	60 e0       	ldi	r22, 0x00	; 0
    1e9c:	88 ec       	ldi	r24, 0xC8	; 200
    1e9e:	90 e0       	ldi	r25, 0x00	; 0
    1ea0:	0e 94 72 22 	call	0x44e4	; 0x44e4 <UART_Transmit_String>
    1ea4:	eb 85       	ldd	r30, Y+11	; 0x0b
    1ea6:	fc 85       	ldd	r31, Y+12	; 0x0c
    1ea8:	86 85       	ldd	r24, Z+14	; 0x0e
    1eaa:	97 85       	ldd	r25, Z+15	; 0x0f
    1eac:	a0 89       	ldd	r26, Z+16	; 0x10
    1eae:	b1 89       	ldd	r27, Z+17	; 0x11
    1eb0:	88 0d       	add	r24, r8
    1eb2:	99 1d       	adc	r25, r9
    1eb4:	aa 1d       	adc	r26, r10
    1eb6:	bb 1d       	adc	r27, r11
    1eb8:	42 89       	ldd	r20, Z+18	; 0x12
    1eba:	53 89       	ldd	r21, Z+19	; 0x13
    1ebc:	64 89       	ldd	r22, Z+20	; 0x14
    1ebe:	75 89       	ldd	r23, Z+21	; 0x15
    1ec0:	84 0f       	add	r24, r20
    1ec2:	95 1f       	adc	r25, r21
    1ec4:	a6 1f       	adc	r26, r22
    1ec6:	b7 1f       	adc	r27, r23
    1ec8:	82 87       	std	Z+10, r24	; 0x0a
    1eca:	93 87       	std	Z+11, r25	; 0x0b
    1ecc:	a4 87       	std	Z+12, r26	; 0x0c
    1ece:	b5 87       	std	Z+13, r27	; 0x0d
    1ed0:	40 2f       	mov	r20, r16
    1ed2:	51 2f       	mov	r21, r17
    1ed4:	60 e0       	ldi	r22, 0x00	; 0
    1ed6:	80 eb       	ldi	r24, 0xB0	; 176
    1ed8:	90 e1       	ldi	r25, 0x10	; 16
    1eda:	0e 94 4c 22 	call	0x4498	; 0x4498 <Copy_String_to_Buffer>
    1ede:	40 2f       	mov	r20, r16
    1ee0:	51 2f       	mov	r21, r17
    1ee2:	60 e0       	ldi	r22, 0x00	; 0
    1ee4:	88 ec       	ldi	r24, 0xC8	; 200
    1ee6:	90 e0       	ldi	r25, 0x00	; 0
    1ee8:	0e 94 72 22 	call	0x44e4	; 0x44e4 <UART_Transmit_String>
    1eec:	ab 85       	ldd	r26, Y+11	; 0x0b
    1eee:	bc 85       	ldd	r27, Y+12	; 0x0c
    1ef0:	1d 96       	adiw	r26, 0x0d	; 13
    1ef2:	8c 91       	ld	r24, X
    1ef4:	1d 97       	sbiw	r26, 0x0d	; 13
    1ef6:	8f 93       	push	r24
    1ef8:	1c 96       	adiw	r26, 0x0c	; 12
    1efa:	8c 91       	ld	r24, X
    1efc:	1c 97       	sbiw	r26, 0x0c	; 12
    1efe:	8f 93       	push	r24
    1f00:	1b 96       	adiw	r26, 0x0b	; 11
    1f02:	8c 91       	ld	r24, X
    1f04:	1b 97       	sbiw	r26, 0x0b	; 11
    1f06:	8f 93       	push	r24
    1f08:	1a 96       	adiw	r26, 0x0a	; 10
    1f0a:	8c 91       	ld	r24, X
    1f0c:	8f 93       	push	r24
    1f0e:	ff 92       	push	r15
    1f10:	ef 92       	push	r14
    1f12:	1f 93       	push	r17
    1f14:	0f 93       	push	r16
    1f16:	0e 94 2f 23 	call	0x465e	; 0x465e <sprintf>
    1f1a:	40 2f       	mov	r20, r16
    1f1c:	51 2f       	mov	r21, r17
    1f1e:	60 e0       	ldi	r22, 0x00	; 0
    1f20:	88 ec       	ldi	r24, 0xC8	; 200
    1f22:	90 e0       	ldi	r25, 0x00	; 0
    1f24:	0e 94 72 22 	call	0x44e4	; 0x44e4 <UART_Transmit_String>
    1f28:	0f b6       	in	r0, 0x3f	; 63
    1f2a:	f8 94       	cli
    1f2c:	de bf       	out	0x3e, r29	; 62
    1f2e:	0f be       	out	0x3f, r0	; 63
    1f30:	cd bf       	out	0x3d, r28	; 61
    1f32:	f5 ef       	ldi	r31, 0xF5	; 245
    1f34:	4f 16       	cp	r4, r31
    1f36:	ff ef       	ldi	r31, 0xFF	; 255
    1f38:	5f 06       	cpc	r5, r31
    1f3a:	61 04       	cpc	r6, r1
    1f3c:	71 04       	cpc	r7, r1
    1f3e:	30 f5       	brcc	.+76     	; 0x1f8c <Mount_Drive+0x3f4>
    1f40:	82 e0       	ldi	r24, 0x02	; 2
    1f42:	ab 85       	ldd	r26, Y+11	; 0x0b
    1f44:	bc 85       	ldd	r27, Y+12	; 0x0c
    1f46:	11 96       	adiw	r26, 0x01	; 1
    1f48:	8c 93       	st	X, r24
    1f4a:	11 97       	sbiw	r26, 0x01	; 1
    1f4c:	81 e0       	ldi	r24, 0x01	; 1
    1f4e:	13 96       	adiw	r26, 0x03	; 3
    1f50:	8c 93       	st	X, r24
    1f52:	40 2f       	mov	r20, r16
    1f54:	51 2f       	mov	r21, r17
    1f56:	60 e0       	ldi	r22, 0x00	; 0
    1f58:	82 ee       	ldi	r24, 0xE2	; 226
    1f5a:	90 e1       	ldi	r25, 0x10	; 16
    1f5c:	0e 94 4c 22 	call	0x4498	; 0x4498 <Copy_String_to_Buffer>
    1f60:	40 2f       	mov	r20, r16
    1f62:	51 2f       	mov	r21, r17
    1f64:	60 e0       	ldi	r22, 0x00	; 0
    1f66:	88 ec       	ldi	r24, 0xC8	; 200
    1f68:	90 e0       	ldi	r25, 0x00	; 0
    1f6a:	0e 94 72 22 	call	0x44e4	; 0x44e4 <UART_Transmit_String>
    1f6e:	eb 85       	ldd	r30, Y+11	; 0x0b
    1f70:	fc 85       	ldd	r31, Y+12	; 0x0c
    1f72:	86 85       	ldd	r24, Z+14	; 0x0e
    1f74:	97 85       	ldd	r25, Z+15	; 0x0f
    1f76:	a0 89       	ldd	r26, Z+16	; 0x10
    1f78:	b1 89       	ldd	r27, Z+17	; 0x11
    1f7a:	88 0e       	add	r8, r24
    1f7c:	99 1e       	adc	r9, r25
    1f7e:	aa 1e       	adc	r10, r26
    1f80:	bb 1e       	adc	r11, r27
    1f82:	86 82       	std	Z+6, r8	; 0x06
    1f84:	97 82       	std	Z+7, r9	; 0x07
    1f86:	a0 86       	std	Z+8, r10	; 0x08
    1f88:	b1 86       	std	Z+9, r11	; 0x09
    1f8a:	35 c0       	rjmp	.+106    	; 0x1ff6 <Mount_Drive+0x45e>
    1f8c:	84 e0       	ldi	r24, 0x04	; 4
    1f8e:	eb 85       	ldd	r30, Y+11	; 0x0b
    1f90:	fc 85       	ldd	r31, Y+12	; 0x0c
    1f92:	81 83       	std	Z+1, r24	; 0x01
    1f94:	82 e0       	ldi	r24, 0x02	; 2
    1f96:	83 83       	std	Z+3, r24	; 0x03
    1f98:	b1 01       	movw	r22, r2
    1f9a:	8c e2       	ldi	r24, 0x2C	; 44
    1f9c:	90 e0       	ldi	r25, 0x00	; 0
    1f9e:	0e 94 a0 0d 	call	0x1b40	; 0x1b40 <read32>
    1fa2:	6b 01       	movw	r12, r22
    1fa4:	7c 01       	movw	r14, r24
    1fa6:	40 2f       	mov	r20, r16
    1fa8:	51 2f       	mov	r21, r17
    1faa:	60 e0       	ldi	r22, 0x00	; 0
    1fac:	8e ec       	ldi	r24, 0xCE	; 206
    1fae:	90 e1       	ldi	r25, 0x10	; 16
    1fb0:	0e 94 4c 22 	call	0x4498	; 0x4498 <Copy_String_to_Buffer>
    1fb4:	40 2f       	mov	r20, r16
    1fb6:	51 2f       	mov	r21, r17
    1fb8:	60 e0       	ldi	r22, 0x00	; 0
    1fba:	88 ec       	ldi	r24, 0xC8	; 200
    1fbc:	90 e0       	ldi	r25, 0x00	; 0
    1fbe:	0e 94 72 22 	call	0x44e4	; 0x44e4 <UART_Transmit_String>
    1fc2:	a7 01       	movw	r20, r14
    1fc4:	96 01       	movw	r18, r12
    1fc6:	22 50       	subi	r18, 0x02	; 2
    1fc8:	31 09       	sbc	r19, r1
    1fca:	41 09       	sbc	r20, r1
    1fcc:	51 09       	sbc	r21, r1
    1fce:	eb 85       	ldd	r30, Y+11	; 0x0b
    1fd0:	fc 85       	ldd	r31, Y+12	; 0x0c
    1fd2:	a0 81       	ld	r26, Z
    1fd4:	b0 e0       	ldi	r27, 0x00	; 0
    1fd6:	0e 94 d9 22 	call	0x45b2	; 0x45b2 <__muluhisi3>
    1fda:	c2 84       	ldd	r12, Z+10	; 0x0a
    1fdc:	d3 84       	ldd	r13, Z+11	; 0x0b
    1fde:	e4 84       	ldd	r14, Z+12	; 0x0c
    1fe0:	f5 84       	ldd	r15, Z+13	; 0x0d
    1fe2:	dc 01       	movw	r26, r24
    1fe4:	cb 01       	movw	r24, r22
    1fe6:	8c 0d       	add	r24, r12
    1fe8:	9d 1d       	adc	r25, r13
    1fea:	ae 1d       	adc	r26, r14
    1fec:	bf 1d       	adc	r27, r15
    1fee:	86 83       	std	Z+6, r24	; 0x06
    1ff0:	97 83       	std	Z+7, r25	; 0x07
    1ff2:	a0 87       	std	Z+8, r26	; 0x08
    1ff4:	b1 87       	std	Z+9, r27	; 0x09
    1ff6:	40 2f       	mov	r20, r16
    1ff8:	51 2f       	mov	r21, r17
    1ffa:	60 e0       	ldi	r22, 0x00	; 0
    1ffc:	8c e9       	ldi	r24, 0x9C	; 156
    1ffe:	90 e1       	ldi	r25, 0x10	; 16
    2000:	0e 94 4c 22 	call	0x4498	; 0x4498 <Copy_String_to_Buffer>
    2004:	40 2f       	mov	r20, r16
    2006:	51 2f       	mov	r21, r17
    2008:	60 e0       	ldi	r22, 0x00	; 0
    200a:	88 ec       	ldi	r24, 0xC8	; 200
    200c:	90 e0       	ldi	r25, 0x00	; 0
    200e:	0e 94 72 22 	call	0x44e4	; 0x44e4 <UART_Transmit_String>
    2012:	ab 85       	ldd	r26, Y+11	; 0x0b
    2014:	bc 85       	ldd	r27, Y+12	; 0x0c
    2016:	19 96       	adiw	r26, 0x09	; 9
    2018:	8c 91       	ld	r24, X
    201a:	19 97       	sbiw	r26, 0x09	; 9
    201c:	8f 93       	push	r24
    201e:	18 96       	adiw	r26, 0x08	; 8
    2020:	8c 91       	ld	r24, X
    2022:	18 97       	sbiw	r26, 0x08	; 8
    2024:	8f 93       	push	r24
    2026:	17 96       	adiw	r26, 0x07	; 7
    2028:	8c 91       	ld	r24, X
    202a:	17 97       	sbiw	r26, 0x07	; 7
    202c:	8f 93       	push	r24
    202e:	16 96       	adiw	r26, 0x06	; 6
    2030:	8c 91       	ld	r24, X
    2032:	8f 93       	push	r24
    2034:	8a e3       	ldi	r24, 0x3A	; 58
    2036:	91 e0       	ldi	r25, 0x01	; 1
    2038:	9f 93       	push	r25
    203a:	8f 93       	push	r24
    203c:	1f 93       	push	r17
    203e:	0f 93       	push	r16
    2040:	0e 94 2f 23 	call	0x465e	; 0x465e <sprintf>
    2044:	40 2f       	mov	r20, r16
    2046:	51 2f       	mov	r21, r17
    2048:	60 e0       	ldi	r22, 0x00	; 0
    204a:	88 ec       	ldi	r24, 0xC8	; 200
    204c:	90 e0       	ldi	r25, 0x00	; 0
    204e:	0e 94 72 22 	call	0x44e4	; 0x44e4 <UART_Transmit_String>
    2052:	0f b6       	in	r0, 0x3f	; 63
    2054:	f8 94       	cli
    2056:	de bf       	out	0x3e, r29	; 62
    2058:	0f be       	out	0x3f, r0	; 63
    205a:	cd bf       	out	0x3d, r28	; 61
    205c:	80 e0       	ldi	r24, 0x00	; 0
    205e:	2c 96       	adiw	r28, 0x0c	; 12
    2060:	0f b6       	in	r0, 0x3f	; 63
    2062:	f8 94       	cli
    2064:	de bf       	out	0x3e, r29	; 62
    2066:	0f be       	out	0x3f, r0	; 63
    2068:	cd bf       	out	0x3d, r28	; 61
    206a:	df 91       	pop	r29
    206c:	cf 91       	pop	r28
    206e:	1f 91       	pop	r17
    2070:	0f 91       	pop	r16
    2072:	ff 90       	pop	r15
    2074:	ef 90       	pop	r14
    2076:	df 90       	pop	r13
    2078:	cf 90       	pop	r12
    207a:	bf 90       	pop	r11
    207c:	af 90       	pop	r10
    207e:	9f 90       	pop	r9
    2080:	8f 90       	pop	r8
    2082:	7f 90       	pop	r7
    2084:	6f 90       	pop	r6
    2086:	5f 90       	pop	r5
    2088:	4f 90       	pop	r4
    208a:	3f 90       	pop	r3
    208c:	2f 90       	pop	r2
    208e:	08 95       	ret

00002090 <First_Sector>:
    2090:	cf 92       	push	r12
    2092:	df 92       	push	r13
    2094:	ef 92       	push	r14
    2096:	ff 92       	push	r15
    2098:	6b 01       	movw	r12, r22
    209a:	7c 01       	movw	r14, r24
    209c:	0e 94 26 0b 	call	0x164c	; 0x164c <Export_Drive_values>
    20a0:	fc 01       	movw	r30, r24
    20a2:	c1 14       	cp	r12, r1
    20a4:	d1 04       	cpc	r13, r1
    20a6:	e1 04       	cpc	r14, r1
    20a8:	f1 04       	cpc	r15, r1
    20aa:	29 f4       	brne	.+10     	; 0x20b6 <First_Sector+0x26>
    20ac:	66 81       	ldd	r22, Z+6	; 0x06
    20ae:	77 81       	ldd	r23, Z+7	; 0x07
    20b0:	80 85       	ldd	r24, Z+8	; 0x08
    20b2:	91 85       	ldd	r25, Z+9	; 0x09
    20b4:	12 c0       	rjmp	.+36     	; 0x20da <First_Sector+0x4a>
    20b6:	a7 01       	movw	r20, r14
    20b8:	96 01       	movw	r18, r12
    20ba:	22 50       	subi	r18, 0x02	; 2
    20bc:	31 09       	sbc	r19, r1
    20be:	41 09       	sbc	r20, r1
    20c0:	51 09       	sbc	r21, r1
    20c2:	a0 81       	ld	r26, Z
    20c4:	b0 e0       	ldi	r27, 0x00	; 0
    20c6:	0e 94 d9 22 	call	0x45b2	; 0x45b2 <__muluhisi3>
    20ca:	c2 84       	ldd	r12, Z+10	; 0x0a
    20cc:	d3 84       	ldd	r13, Z+11	; 0x0b
    20ce:	e4 84       	ldd	r14, Z+12	; 0x0c
    20d0:	f5 84       	ldd	r15, Z+13	; 0x0d
    20d2:	6c 0d       	add	r22, r12
    20d4:	7d 1d       	adc	r23, r13
    20d6:	8e 1d       	adc	r24, r14
    20d8:	9f 1d       	adc	r25, r15
    20da:	ff 90       	pop	r15
    20dc:	ef 90       	pop	r14
    20de:	df 90       	pop	r13
    20e0:	cf 90       	pop	r12
    20e2:	08 95       	ret

000020e4 <Find_Next_Clus>:
    20e4:	8f 92       	push	r8
    20e6:	9f 92       	push	r9
    20e8:	af 92       	push	r10
    20ea:	bf 92       	push	r11
    20ec:	cf 92       	push	r12
    20ee:	df 92       	push	r13
    20f0:	ef 92       	push	r14
    20f2:	ff 92       	push	r15
    20f4:	0f 93       	push	r16
    20f6:	1f 93       	push	r17
    20f8:	cf 93       	push	r28
    20fa:	df 93       	push	r29
    20fc:	6b 01       	movw	r12, r22
    20fe:	7c 01       	movw	r14, r24
    2100:	8a 01       	movw	r16, r20
    2102:	0e 94 26 0b 	call	0x164c	; 0x164c <Export_Drive_values>
    2106:	ec 01       	movw	r28, r24
    2108:	8a 81       	ldd	r24, Y+2	; 0x02
    210a:	2b 81       	ldd	r18, Y+3	; 0x03
    210c:	90 e0       	ldi	r25, 0x00	; 0
    210e:	82 1b       	sub	r24, r18
    2110:	91 09       	sbc	r25, r1
    2112:	b7 01       	movw	r22, r14
    2114:	a6 01       	movw	r20, r12
    2116:	04 c0       	rjmp	.+8      	; 0x2120 <Find_Next_Clus+0x3c>
    2118:	76 95       	lsr	r23
    211a:	67 95       	ror	r22
    211c:	57 95       	ror	r21
    211e:	47 95       	ror	r20
    2120:	8a 95       	dec	r24
    2122:	d2 f7       	brpl	.-12     	; 0x2118 <Find_Next_Clus+0x34>
    2124:	8e 85       	ldd	r24, Y+14	; 0x0e
    2126:	9f 85       	ldd	r25, Y+15	; 0x0f
    2128:	a8 89       	ldd	r26, Y+16	; 0x10
    212a:	b9 89       	ldd	r27, Y+17	; 0x11
    212c:	4a 01       	movw	r8, r20
    212e:	5b 01       	movw	r10, r22
    2130:	88 0e       	add	r8, r24
    2132:	99 1e       	adc	r9, r25
    2134:	aa 1e       	adc	r10, r26
    2136:	bb 1e       	adc	r11, r27
    2138:	c5 01       	movw	r24, r10
    213a:	b4 01       	movw	r22, r8
    213c:	4c 81       	ldd	r20, Y+4	; 0x04
    213e:	5d 81       	ldd	r21, Y+5	; 0x05
    2140:	98 01       	movw	r18, r16
    2142:	0e 94 63 17 	call	0x2ec6	; 0x2ec6 <Read_Sector>
    2146:	0b 80       	ldd	r0, Y+3	; 0x03
    2148:	04 c0       	rjmp	.+8      	; 0x2152 <Find_Next_Clus+0x6e>
    214a:	cc 0c       	add	r12, r12
    214c:	dd 1c       	adc	r13, r13
    214e:	ee 1c       	adc	r14, r14
    2150:	ff 1c       	adc	r15, r15
    2152:	0a 94       	dec	r0
    2154:	d2 f7       	brpl	.-12     	; 0x214a <Find_Next_Clus+0x66>
    2156:	8c 81       	ldd	r24, Y+4	; 0x04
    2158:	9d 81       	ldd	r25, Y+5	; 0x05
    215a:	01 97       	sbiw	r24, 0x01	; 1
    215c:	c8 22       	and	r12, r24
    215e:	d9 22       	and	r13, r25
    2160:	89 81       	ldd	r24, Y+1	; 0x01
    2162:	82 30       	cpi	r24, 0x02	; 2
    2164:	71 f4       	brne	.+28     	; 0x2182 <Find_Next_Clus+0x9e>
    2166:	b8 01       	movw	r22, r16
    2168:	c6 01       	movw	r24, r12
    216a:	0e 94 8f 0d 	call	0x1b1e	; 0x1b1e <read16>
    216e:	bc 01       	movw	r22, r24
    2170:	80 e0       	ldi	r24, 0x00	; 0
    2172:	90 e0       	ldi	r25, 0x00	; 0
    2174:	6f 3f       	cpi	r22, 0xFF	; 255
    2176:	2f ef       	ldi	r18, 0xFF	; 255
    2178:	72 07       	cpc	r23, r18
    217a:	81 05       	cpc	r24, r1
    217c:	91 05       	cpc	r25, r1
    217e:	59 f4       	brne	.+22     	; 0x2196 <Find_Next_Clus+0xb2>
    2180:	06 c0       	rjmp	.+12     	; 0x218e <Find_Next_Clus+0xaa>
    2182:	b8 01       	movw	r22, r16
    2184:	c6 01       	movw	r24, r12
    2186:	0e 94 a0 0d 	call	0x1b40	; 0x1b40 <read32>
    218a:	9f 70       	andi	r25, 0x0F	; 15
    218c:	04 c0       	rjmp	.+8      	; 0x2196 <Find_Next_Clus+0xb2>
    218e:	6f ef       	ldi	r22, 0xFF	; 255
    2190:	7f ef       	ldi	r23, 0xFF	; 255
    2192:	8f ef       	ldi	r24, 0xFF	; 255
    2194:	9f e0       	ldi	r25, 0x0F	; 15
    2196:	df 91       	pop	r29
    2198:	cf 91       	pop	r28
    219a:	1f 91       	pop	r17
    219c:	0f 91       	pop	r16
    219e:	ff 90       	pop	r15
    21a0:	ef 90       	pop	r14
    21a2:	df 90       	pop	r13
    21a4:	cf 90       	pop	r12
    21a6:	bf 90       	pop	r11
    21a8:	af 90       	pop	r10
    21aa:	9f 90       	pop	r9
    21ac:	8f 90       	pop	r8
    21ae:	08 95       	ret

000021b0 <GPIO_Output_Init>:
    21b0:	fc 01       	movw	r30, r24
    21b2:	21 81       	ldd	r18, Z+1	; 0x01
    21b4:	62 2b       	or	r22, r18
    21b6:	61 83       	std	Z+1, r22	; 0x01
    21b8:	08 95       	ret

000021ba <GPIO_Output_Set>:
    21ba:	fc 01       	movw	r30, r24
    21bc:	22 81       	ldd	r18, Z+2	; 0x02
    21be:	62 2b       	or	r22, r18
    21c0:	62 83       	std	Z+2, r22	; 0x02
    21c2:	08 95       	ret

000021c4 <GPIO_Output_Clear>:
    21c4:	fc 01       	movw	r30, r24
    21c6:	92 81       	ldd	r25, Z+2	; 0x02
    21c8:	60 95       	com	r22
    21ca:	69 23       	and	r22, r25
    21cc:	62 83       	std	Z+2, r22	; 0x02
    21ce:	08 95       	ret

000021d0 <LEDS_Init>:
    21d0:	0e 94 d8 10 	call	0x21b0	; 0x21b0 <GPIO_Output_Init>
    21d4:	08 95       	ret

000021d6 <LEDS_Off>:
    21d6:	0e 94 dd 10 	call	0x21ba	; 0x21ba <GPIO_Output_Set>
    21da:	08 95       	ret

000021dc <LEDS_On>:
    21dc:	0e 94 e2 10 	call	0x21c4	; 0x21c4 <GPIO_Output_Clear>
    21e0:	08 95       	ret

000021e2 <Long_Serial_Input>:
    21e2:	8f 92       	push	r8
    21e4:	9f 92       	push	r9
    21e6:	af 92       	push	r10
    21e8:	bf 92       	push	r11
    21ea:	ef 92       	push	r14
    21ec:	ff 92       	push	r15
    21ee:	0f 93       	push	r16
    21f0:	1f 93       	push	r17
    21f2:	cf 93       	push	r28
    21f4:	df 93       	push	r29
    21f6:	cd b7       	in	r28, 0x3d	; 61
    21f8:	de b7       	in	r29, 0x3e	; 62
    21fa:	2b 97       	sbiw	r28, 0x0b	; 11
    21fc:	0f b6       	in	r0, 0x3f	; 63
    21fe:	f8 94       	cli
    2200:	de bf       	out	0x3e, r29	; 62
    2202:	0f be       	out	0x3f, r0	; 63
    2204:	cd bf       	out	0x3d, r28	; 61
    2206:	7c 01       	movw	r14, r24
    2208:	80 e0       	ldi	r24, 0x00	; 0
    220a:	08 c0       	rjmp	.+16     	; 0x221c <Long_Serial_Input+0x3a>
    220c:	e1 e0       	ldi	r30, 0x01	; 1
    220e:	f0 e0       	ldi	r31, 0x00	; 0
    2210:	ec 0f       	add	r30, r28
    2212:	fd 1f       	adc	r31, r29
    2214:	e8 0f       	add	r30, r24
    2216:	f1 1d       	adc	r31, r1
    2218:	10 82       	st	Z, r1
    221a:	8f 5f       	subi	r24, 0xFF	; 255
    221c:	8b 30       	cpi	r24, 0x0B	; 11
    221e:	b0 f3       	brcs	.-20     	; 0x220c <Long_Serial_Input+0x2a>
    2220:	88 24       	eor	r8, r8
    2222:	8a 94       	dec	r8
    2224:	98 2c       	mov	r9, r8
    2226:	54 01       	movw	r10, r8
    2228:	00 e0       	ldi	r16, 0x00	; 0
    222a:	c7 01       	movw	r24, r14
    222c:	0e 94 43 22 	call	0x4486	; 0x4486 <UART_Receive>
    2230:	18 2f       	mov	r17, r24
    2232:	80 ed       	ldi	r24, 0xD0	; 208
    2234:	81 0f       	add	r24, r17
    2236:	8a 30       	cpi	r24, 0x0A	; 10
    2238:	68 f4       	brcc	.+26     	; 0x2254 <Long_Serial_Input+0x72>
    223a:	61 2f       	mov	r22, r17
    223c:	c7 01       	movw	r24, r14
    223e:	0e 94 3c 22 	call	0x4478	; 0x4478 <UART_Transmit>
    2242:	e1 e0       	ldi	r30, 0x01	; 1
    2244:	f0 e0       	ldi	r31, 0x00	; 0
    2246:	ec 0f       	add	r30, r28
    2248:	fd 1f       	adc	r31, r29
    224a:	e0 0f       	add	r30, r16
    224c:	f1 1d       	adc	r31, r1
    224e:	10 83       	st	Z, r17
    2250:	0f 5f       	subi	r16, 0xFF	; 255
    2252:	2d c0       	rjmp	.+90     	; 0x22ae <Long_Serial_Input+0xcc>
    2254:	18 30       	cpi	r17, 0x08	; 8
    2256:	11 f0       	breq	.+4      	; 0x225c <Long_Serial_Input+0x7a>
    2258:	1f 37       	cpi	r17, 0x7F	; 127
    225a:	a9 f4       	brne	.+42     	; 0x2286 <Long_Serial_Input+0xa4>
    225c:	01 50       	subi	r16, 0x01	; 1
    225e:	e1 e0       	ldi	r30, 0x01	; 1
    2260:	f0 e0       	ldi	r31, 0x00	; 0
    2262:	ec 0f       	add	r30, r28
    2264:	fd 1f       	adc	r31, r29
    2266:	e0 0f       	add	r30, r16
    2268:	f1 1d       	adc	r31, r1
    226a:	10 82       	st	Z, r1
    226c:	68 e0       	ldi	r22, 0x08	; 8
    226e:	c7 01       	movw	r24, r14
    2270:	0e 94 3c 22 	call	0x4478	; 0x4478 <UART_Transmit>
    2274:	60 e2       	ldi	r22, 0x20	; 32
    2276:	c7 01       	movw	r24, r14
    2278:	0e 94 3c 22 	call	0x4478	; 0x4478 <UART_Transmit>
    227c:	68 e0       	ldi	r22, 0x08	; 8
    227e:	c7 01       	movw	r24, r14
    2280:	0e 94 3c 22 	call	0x4478	; 0x4478 <UART_Transmit>
    2284:	14 c0       	rjmp	.+40     	; 0x22ae <Long_Serial_Input+0xcc>
    2286:	1d 30       	cpi	r17, 0x0D	; 13
    2288:	21 f0       	breq	.+8      	; 0x2292 <Long_Serial_Input+0xb0>
    228a:	1a 30       	cpi	r17, 0x0A	; 10
    228c:	11 f0       	breq	.+4      	; 0x2292 <Long_Serial_Input+0xb0>
    228e:	1e 32       	cpi	r17, 0x2E	; 46
    2290:	71 f4       	brne	.+28     	; 0x22ae <Long_Serial_Input+0xcc>
    2292:	ce 01       	movw	r24, r28
    2294:	01 96       	adiw	r24, 0x01	; 1
    2296:	0e 94 f3 22 	call	0x45e6	; 0x45e6 <atol>
    229a:	4b 01       	movw	r8, r22
    229c:	5c 01       	movw	r10, r24
    229e:	6d e0       	ldi	r22, 0x0D	; 13
    22a0:	c7 01       	movw	r24, r14
    22a2:	0e 94 3c 22 	call	0x4478	; 0x4478 <UART_Transmit>
    22a6:	6a e0       	ldi	r22, 0x0A	; 10
    22a8:	c7 01       	movw	r24, r14
    22aa:	0e 94 3c 22 	call	0x4478	; 0x4478 <UART_Transmit>
    22ae:	0a 30       	cpi	r16, 0x0A	; 10
    22b0:	71 f4       	brne	.+28     	; 0x22ce <Long_Serial_Input+0xec>
    22b2:	ce 01       	movw	r24, r28
    22b4:	01 96       	adiw	r24, 0x01	; 1
    22b6:	0e 94 f3 22 	call	0x45e6	; 0x45e6 <atol>
    22ba:	4b 01       	movw	r8, r22
    22bc:	5c 01       	movw	r10, r24
    22be:	6d e0       	ldi	r22, 0x0D	; 13
    22c0:	c7 01       	movw	r24, r14
    22c2:	0e 94 3c 22 	call	0x4478	; 0x4478 <UART_Transmit>
    22c6:	6a e0       	ldi	r22, 0x0A	; 10
    22c8:	c7 01       	movw	r24, r14
    22ca:	0e 94 3c 22 	call	0x4478	; 0x4478 <UART_Transmit>
    22ce:	8f ef       	ldi	r24, 0xFF	; 255
    22d0:	88 16       	cp	r8, r24
    22d2:	98 06       	cpc	r9, r24
    22d4:	a8 06       	cpc	r10, r24
    22d6:	b8 06       	cpc	r11, r24
    22d8:	09 f4       	brne	.+2      	; 0x22dc <Long_Serial_Input+0xfa>
    22da:	a7 cf       	rjmp	.-178    	; 0x222a <Long_Serial_Input+0x48>
    22dc:	c5 01       	movw	r24, r10
    22de:	b4 01       	movw	r22, r8
    22e0:	2b 96       	adiw	r28, 0x0b	; 11
    22e2:	0f b6       	in	r0, 0x3f	; 63
    22e4:	f8 94       	cli
    22e6:	de bf       	out	0x3e, r29	; 62
    22e8:	0f be       	out	0x3f, r0	; 63
    22ea:	cd bf       	out	0x3d, r28	; 61
    22ec:	df 91       	pop	r29
    22ee:	cf 91       	pop	r28
    22f0:	1f 91       	pop	r17
    22f2:	0f 91       	pop	r16
    22f4:	ff 90       	pop	r15
    22f6:	ef 90       	pop	r14
    22f8:	bf 90       	pop	r11
    22fa:	af 90       	pop	r10
    22fc:	9f 90       	pop	r9
    22fe:	8f 90       	pop	r8
    2300:	08 95       	ret

00002302 <main>:
	char string_in_SRAM [63] = "This is a string in SRAM - Garrett Mason & Harrison Heselbarth";
	char temp8,error_flag;
	uint32_t input32, Current_directory, num_entries, Entry_clus;
	char *string_p;
	FS_values_t * Drive_p;
	LEDS_Off(LED0_port, LED0_pin);
    2302:	60 e8       	ldi	r22, 0x80	; 128
    2304:	86 e2       	ldi	r24, 0x26	; 38
    2306:	90 e0       	ldi	r25, 0x00	; 0
    2308:	0e 94 eb 10 	call	0x21d6	; 0x21d6 <LEDS_Off>
	LEDS_Init(LED0_port, LED0_pin);
    230c:	60 e8       	ldi	r22, 0x80	; 128
    230e:	86 e2       	ldi	r24, 0x26	; 38
    2310:	90 e0       	ldi	r25, 0x00	; 0
    2312:	0e 94 e8 10 	call	0x21d0	; 0x21d0 <LEDS_Init>
	LEDS_Off(LED1_port, LED1_pin);
    2316:	68 e0       	ldi	r22, 0x08	; 8
    2318:	83 e2       	ldi	r24, 0x23	; 35
    231a:	90 e0       	ldi	r25, 0x00	; 0
    231c:	0e 94 eb 10 	call	0x21d6	; 0x21d6 <LEDS_Off>
	LEDS_Init(LED1_port, LED1_pin);
    2320:	68 e0       	ldi	r22, 0x08	; 8
    2322:	83 e2       	ldi	r24, 0x23	; 35
    2324:	90 e0       	ldi	r25, 0x00	; 0
    2326:	0e 94 e8 10 	call	0x21d0	; 0x21d0 <LEDS_Init>
	LEDS_Off(LED2_port, LED2_pin);
    232a:	60 e1       	ldi	r22, 0x10	; 16
    232c:	8c e2       	ldi	r24, 0x2C	; 44
    232e:	90 e0       	ldi	r25, 0x00	; 0
    2330:	0e 94 eb 10 	call	0x21d6	; 0x21d6 <LEDS_Off>
	LEDS_Init(LED2_port, LED2_pin);
    2334:	60 e1       	ldi	r22, 0x10	; 16
    2336:	8c e2       	ldi	r24, 0x2C	; 44
    2338:	90 e0       	ldi	r25, 0x00	; 0
    233a:	0e 94 e8 10 	call	0x21d0	; 0x21d0 <LEDS_Init>
	LEDS_Off(LED3_port, LED3_pin);
    233e:	60 e8       	ldi	r22, 0x80	; 128
    2340:	80 e2       	ldi	r24, 0x20	; 32
    2342:	90 e0       	ldi	r25, 0x00	; 0
    2344:	0e 94 eb 10 	call	0x21d6	; 0x21d6 <LEDS_Off>
	LEDS_Init(LED3_port, LED3_pin);
    2348:	60 e8       	ldi	r22, 0x80	; 128
    234a:	80 e2       	ldi	r24, 0x20	; 32
    234c:	90 e0       	ldi	r25, 0x00	; 0
    234e:	0e 94 e8 10 	call	0x21d0	; 0x21d0 <LEDS_Init>
	UART_Init(UART1,9600);
    2352:	60 e8       	ldi	r22, 0x80	; 128
    2354:	75 e2       	ldi	r23, 0x25	; 37
    2356:	88 ec       	ldi	r24, 0xC8	; 200
    2358:	90 e0       	ldi	r25, 0x00	; 0
    235a:	0e 94 12 22 	call	0x4424	; 0x4424 <UART_Init>
	string_p=Export_print_buffer();
    235e:	0e 94 49 22 	call	0x4492	; 0x4492 <Export_print_buffer>
    2362:	c8 2f       	mov	r28, r24
    2364:	d9 2f       	mov	r29, r25
	Copy_String_to_Buffer(test_string,0,string_p);
    2366:	48 2f       	mov	r20, r24
    2368:	59 2f       	mov	r21, r25
    236a:	60 e0       	ldi	r22, 0x00	; 0
    236c:	8d e5       	ldi	r24, 0x5D	; 93
    236e:	91 e1       	ldi	r25, 0x11	; 17
    2370:	0e 94 4c 22 	call	0x4498	; 0x4498 <Copy_String_to_Buffer>
	UART_Transmit_String(UART1,0,string_p);
    2374:	4c 2f       	mov	r20, r28
    2376:	5d 2f       	mov	r21, r29
    2378:	60 e0       	ldi	r22, 0x00	; 0
    237a:	88 ec       	ldi	r24, 0xC8	; 200
    237c:	90 e0       	ldi	r25, 0x00	; 0
    237e:	0e 94 72 22 	call	0x44e4	; 0x44e4 <UART_Transmit_String>
	
	LEDS_On(LED0_port, LED0_pin);
    2382:	60 e8       	ldi	r22, 0x80	; 128
    2384:	86 e2       	ldi	r24, 0x26	; 38
    2386:	90 e0       	ldi	r25, 0x00	; 0
    2388:	0e 94 ee 10 	call	0x21dc	; 0x21dc <LEDS_On>
	#else
		//round up by default
		__ticks_dc = (uint32_t)(ceil(fabs(__tmp)));
	#endif

	__builtin_avr_delay_cycles(__ticks_dc);
    238c:	2f ef       	ldi	r18, 0xFF	; 255
    238e:	31 ee       	ldi	r19, 0xE1	; 225
    2390:	84 e0       	ldi	r24, 0x04	; 4
    2392:	21 50       	subi	r18, 0x01	; 1
    2394:	30 40       	sbci	r19, 0x00	; 0
    2396:	80 40       	sbci	r24, 0x00	; 0
    2398:	e1 f7       	brne	.-8      	; 0x2392 <main+0x90>
    239a:	00 c0       	rjmp	.+0      	; 0x239c <main+0x9a>
    239c:	00 00       	nop
	_delay_ms(100);
	LEDS_Off(LED0_port, LED0_pin);
    239e:	60 e8       	ldi	r22, 0x80	; 128
    23a0:	86 e2       	ldi	r24, 0x26	; 38
    23a2:	90 e0       	ldi	r25, 0x00	; 0
    23a4:	0e 94 eb 10 	call	0x21d6	; 0x21d6 <LEDS_Off>
	error_flag=SPI_Master_Init(SPI0,400000);
    23a8:	40 e8       	ldi	r20, 0x80	; 128
    23aa:	5a e1       	ldi	r21, 0x1A	; 26
    23ac:	66 e0       	ldi	r22, 0x06	; 6
    23ae:	70 e0       	ldi	r23, 0x00	; 0
    23b0:	8c e4       	ldi	r24, 0x4C	; 76
    23b2:	90 e0       	ldi	r25, 0x00	; 0
    23b4:	0e 94 ef 1c 	call	0x39de	; 0x39de <SPI_Master_Init>
	if(error_flag!=no_errors)
    23b8:	81 11       	cpse	r24, r1
    23ba:	ff cf       	rjmp	.-2      	; 0x23ba <main+0xb8>
	{
		while(1);
		LEDS_On(LED1_port, LED1_pin);
	}
	OLED_Init(OLED_SPI_Port);
    23bc:	8c e4       	ldi	r24, 0x4C	; 76
    23be:	90 e0       	ldi	r25, 0x00	; 0
    23c0:	0e 94 42 14 	call	0x2884	; 0x2884 <OLED_Init>
	OLED_Set_Line_0 (OLED_SPI_Port);
    23c4:	8c e4       	ldi	r24, 0x4C	; 76
    23c6:	90 e0       	ldi	r25, 0x00	; 0
    23c8:	0e 94 ba 12 	call	0x2574	; 0x2574 <OLED_Set_Line_0>
	Copy_String_to_Buffer(test_string,0,string_p);
    23cc:	4c 2f       	mov	r20, r28
    23ce:	5d 2f       	mov	r21, r29
    23d0:	60 e0       	ldi	r22, 0x00	; 0
    23d2:	8d e5       	ldi	r24, 0x5D	; 93
    23d4:	91 e1       	ldi	r25, 0x11	; 17
    23d6:	0e 94 4c 22 	call	0x4498	; 0x4498 <Copy_String_to_Buffer>
	OLED_Transmit_String(OLED_SPI_Port,7,string_p);
    23da:	4c 2f       	mov	r20, r28
    23dc:	5d 2f       	mov	r21, r29
    23de:	67 e0       	ldi	r22, 0x07	; 7
    23e0:	8c e4       	ldi	r24, 0x4C	; 76
    23e2:	90 e0       	ldi	r25, 0x00	; 0
    23e4:	0e 94 b0 14 	call	0x2960	; 0x2960 <OLED_Transmit_String>
	error_flag=SD_Card_Init();
    23e8:	0e 94 f4 18 	call	0x31e8	; 0x31e8 <SD_Card_Init>
	if(error_flag!=no_errors)
    23ec:	81 11       	cpse	r24, r1
    23ee:	ff cf       	rjmp	.-2      	; 0x23ee <main+0xec>
	{
		while(1);
		LEDS_On(LED2_port, LED2_pin);
	}
	error_flag=SPI_Master_Init(SPI0,10000000);
    23f0:	40 e8       	ldi	r20, 0x80	; 128
    23f2:	56 e9       	ldi	r21, 0x96	; 150
    23f4:	68 e9       	ldi	r22, 0x98	; 152
    23f6:	70 e0       	ldi	r23, 0x00	; 0
    23f8:	8c e4       	ldi	r24, 0x4C	; 76
    23fa:	90 e0       	ldi	r25, 0x00	; 0
    23fc:	0e 94 ef 1c 	call	0x39de	; 0x39de <SPI_Master_Init>
	Copy_String_to_Buffer(Complete,0,string_p);
    2400:	4c 2f       	mov	r20, r28
    2402:	5d 2f       	mov	r21, r29
    2404:	60 e0       	ldi	r22, 0x00	; 0
    2406:	84 e5       	ldi	r24, 0x54	; 84
    2408:	91 e1       	ldi	r25, 0x11	; 17
    240a:	0e 94 4c 22 	call	0x4498	; 0x4498 <Copy_String_to_Buffer>
	OLED_Transmit_String(OLED_SPI_Port,5,string_p);
    240e:	4c 2f       	mov	r20, r28
    2410:	5d 2f       	mov	r21, r29
    2412:	65 e0       	ldi	r22, 0x05	; 5
    2414:	8c e4       	ldi	r24, 0x4C	; 76
    2416:	90 e0       	ldi	r25, 0x00	; 0
    2418:	0e 94 b0 14 	call	0x2960	; 0x2960 <OLED_Transmit_String>
	OLED_Set_Line_1 (OLED_SPI_Port);
    241c:	8c e4       	ldi	r24, 0x4C	; 76
    241e:	90 e0       	ldi	r25, 0x00	; 0
    2420:	0e 94 ef 12 	call	0x25de	; 0x25de <OLED_Set_Line_1>
	temp8=Return_SD_Card_Type();
    2424:	0e 94 ec 1c 	call	0x39d8	; 0x39d8 <Return_SD_Card_Type>
	if(temp8==Standard_Capacity)
    2428:	89 30       	cpi	r24, 0x09	; 9
    242a:	79 f4       	brne	.+30     	; 0x244a <main+0x148>
	{
		Copy_String_to_Buffer(Stnd_Cap,0,string_p);
    242c:	4c 2f       	mov	r20, r28
    242e:	5d 2f       	mov	r21, r29
    2430:	60 e0       	ldi	r22, 0x00	; 0
    2432:	82 e3       	ldi	r24, 0x32	; 50
    2434:	91 e1       	ldi	r25, 0x11	; 17
    2436:	0e 94 4c 22 	call	0x4498	; 0x4498 <Copy_String_to_Buffer>
		OLED_Transmit_String(OLED_SPI_Port,0,string_p);
    243a:	4c 2f       	mov	r20, r28
    243c:	5d 2f       	mov	r21, r29
    243e:	60 e0       	ldi	r22, 0x00	; 0
    2440:	8c e4       	ldi	r24, 0x4C	; 76
    2442:	90 e0       	ldi	r25, 0x00	; 0
    2444:	0e 94 b0 14 	call	0x2960	; 0x2960 <OLED_Transmit_String>
    2448:	0e c0       	rjmp	.+28     	; 0x2466 <main+0x164>
	}
	else
	{
		Copy_String_to_Buffer(High_Cap,0,string_p);
    244a:	4c 2f       	mov	r20, r28
    244c:	5d 2f       	mov	r21, r29
    244e:	60 e0       	ldi	r22, 0x00	; 0
    2450:	85 e4       	ldi	r24, 0x45	; 69
    2452:	91 e1       	ldi	r25, 0x11	; 17
    2454:	0e 94 4c 22 	call	0x4498	; 0x4498 <Copy_String_to_Buffer>
		OLED_Transmit_String(OLED_SPI_Port,0,string_p);
    2458:	4c 2f       	mov	r20, r28
    245a:	5d 2f       	mov	r21, r29
    245c:	60 e0       	ldi	r22, 0x00	; 0
    245e:	8c e4       	ldi	r24, 0x4C	; 76
    2460:	90 e0       	ldi	r25, 0x00	; 0
    2462:	0e 94 b0 14 	call	0x2960	; 0x2960 <OLED_Transmit_String>
	}
	LEDS_Off(LED0_port, LED0_pin);
    2466:	60 e8       	ldi	r22, 0x80	; 128
    2468:	86 e2       	ldi	r24, 0x26	; 38
    246a:	90 e0       	ldi	r25, 0x00	; 0
    246c:	0e 94 eb 10 	call	0x21d6	; 0x21d6 <LEDS_Off>
	
	TWI_Master_Init(STA013_TWI_Port,50000);
    2470:	40 e5       	ldi	r20, 0x50	; 80
    2472:	53 ec       	ldi	r21, 0xC3	; 195
    2474:	60 e0       	ldi	r22, 0x00	; 0
    2476:	70 e0       	ldi	r23, 0x00	; 0
    2478:	88 ed       	ldi	r24, 0xD8	; 216
    247a:	90 e0       	ldi	r25, 0x00	; 0
    247c:	0e 94 26 20 	call	0x404c	; 0x404c <TWI_Master_Init>
	error_flag=STA013_Init();
    2480:	0e 94 90 1d 	call	0x3b20	; 0x3b20 <STA013_Init>
	if(error_flag!=no_errors)
    2484:	81 11       	cpse	r24, r1
    2486:	ff cf       	rjmp	.-2      	; 0x2486 <main+0x184>
	{
		while(1);
		LEDS_On(LED2_port, LED2_pin);
	}
	
	Mount_Drive(buffer1_g);
    2488:	83 e8       	ldi	r24, 0x83	; 131
    248a:	92 e0       	ldi	r25, 0x02	; 2
    248c:	0e 94 cc 0d 	call	0x1b98	; 0x1b98 <Mount_Drive>
	Drive_p=Export_Drive_values();
    2490:	0e 94 26 0b 	call	0x164c	; 0x164c <Export_Drive_values>
    2494:	fc 01       	movw	r30, r24
	Current_directory=Drive_p->FirstRootDirSec;
    2496:	a6 80       	ldd	r10, Z+6	; 0x06
    2498:	b7 80       	ldd	r11, Z+7	; 0x07
    249a:	00 85       	ldd	r16, Z+8	; 0x08
    249c:	11 85       	ldd	r17, Z+9	; 0x09
	while (1)
	{
			sprintf(string_p,"Current Directory = %lu\n\r",Current_directory);
    249e:	1f 93       	push	r17
    24a0:	0f 93       	push	r16
    24a2:	bf 92       	push	r11
    24a4:	af 92       	push	r10
    24a6:	87 e6       	ldi	r24, 0x67	; 103
    24a8:	91 e0       	ldi	r25, 0x01	; 1
    24aa:	9f 93       	push	r25
    24ac:	8f 93       	push	r24
    24ae:	df 93       	push	r29
    24b0:	cf 93       	push	r28
    24b2:	0e 94 2f 23 	call	0x465e	; 0x465e <sprintf>
			UART_Transmit_String(UART1,0,string_p);
    24b6:	4c 2f       	mov	r20, r28
    24b8:	5d 2f       	mov	r21, r29
    24ba:	60 e0       	ldi	r22, 0x00	; 0
    24bc:	88 ec       	ldi	r24, 0xC8	; 200
    24be:	90 e0       	ldi	r25, 0x00	; 0
    24c0:	0e 94 72 22 	call	0x44e4	; 0x44e4 <UART_Transmit_String>
			num_entries=Print_Directory(Current_directory, buffer1_g);
    24c4:	43 e8       	ldi	r20, 0x83	; 131
    24c6:	52 e0       	ldi	r21, 0x02	; 2
    24c8:	6a 2d       	mov	r22, r10
    24ca:	7b 2d       	mov	r23, r11
    24cc:	80 2f       	mov	r24, r16
    24ce:	91 2f       	mov	r25, r17
    24d0:	0e 94 29 0b 	call	0x1652	; 0x1652 <Print_Directory>
    24d4:	6c 01       	movw	r12, r24
    24d6:	e1 2c       	mov	r14, r1
    24d8:	f1 2c       	mov	r15, r1
			sprintf(string_p,"Enter Selection = ");
    24da:	83 e1       	ldi	r24, 0x13	; 19
    24dc:	e1 e8       	ldi	r30, 0x81	; 129
    24de:	f1 e0       	ldi	r31, 0x01	; 1
    24e0:	ac 2f       	mov	r26, r28
    24e2:	bd 2f       	mov	r27, r29
    24e4:	01 90       	ld	r0, Z+
    24e6:	0d 92       	st	X+, r0
    24e8:	8a 95       	dec	r24
    24ea:	e1 f7       	brne	.-8      	; 0x24e4 <main+0x1e2>
			UART_Transmit_String(UART1,0,string_p);
    24ec:	4c 2f       	mov	r20, r28
    24ee:	5d 2f       	mov	r21, r29
    24f0:	60 e0       	ldi	r22, 0x00	; 0
    24f2:	88 ec       	ldi	r24, 0xC8	; 200
    24f4:	90 e0       	ldi	r25, 0x00	; 0
    24f6:	0e 94 72 22 	call	0x44e4	; 0x44e4 <UART_Transmit_String>
			input32=(uint16_t)Long_Serial_Input(UART1);
    24fa:	88 ec       	ldi	r24, 0xC8	; 200
    24fc:	90 e0       	ldi	r25, 0x00	; 0
    24fe:	0e 94 f1 10 	call	0x21e2	; 0x21e2 <Long_Serial_Input>
    2502:	2b 01       	movw	r4, r22
    2504:	3c 01       	movw	r6, r24
    2506:	66 24       	eor	r6, r6
    2508:	77 24       	eor	r7, r7
			if(input32<=num_entries)
    250a:	2d b7       	in	r18, 0x3d	; 61
    250c:	3e b7       	in	r19, 0x3e	; 62
    250e:	28 5f       	subi	r18, 0xF8	; 248
    2510:	3f 4f       	sbci	r19, 0xFF	; 255
    2512:	0f b6       	in	r0, 0x3f	; 63
    2514:	f8 94       	cli
    2516:	3e bf       	out	0x3e, r19	; 62
    2518:	0f be       	out	0x3f, r0	; 63
    251a:	2d bf       	out	0x3d, r18	; 61
    251c:	c4 14       	cp	r12, r4
    251e:	d5 04       	cpc	r13, r5
    2520:	e6 04       	cpc	r14, r6
    2522:	f7 04       	cpc	r15, r7
    2524:	b0 f0       	brcs	.+44     	; 0x2552 <main+0x250>
			{
				Entry_clus=Read_Dir_Entry(Current_directory, input32, buffer1_g);
    2526:	23 e8       	ldi	r18, 0x83	; 131
    2528:	32 e0       	ldi	r19, 0x02	; 2
    252a:	ab 01       	movw	r20, r22
    252c:	6a 2d       	mov	r22, r10
    252e:	7b 2d       	mov	r23, r11
    2530:	80 2f       	mov	r24, r16
    2532:	91 2f       	mov	r25, r17
    2534:	0e 94 52 0c 	call	0x18a4	; 0x18a4 <Read_Dir_Entry>
				if((Entry_clus&directory_bit)==directory_bit)
    2538:	94 ff       	sbrs	r25, 4
    253a:	08 c0       	rjmp	.+16     	; 0x254c <main+0x24a>
				{
					Entry_clus&=0x0FFFFFFF;
    253c:	9f 70       	andi	r25, 0x0F	; 15
					Current_directory=First_Sector(Entry_clus);
    253e:	0e 94 48 10 	call	0x2090	; 0x2090 <First_Sector>
    2542:	a6 2e       	mov	r10, r22
    2544:	b7 2e       	mov	r11, r23
    2546:	08 2f       	mov	r16, r24
    2548:	19 2f       	mov	r17, r25
    254a:	a9 cf       	rjmp	.-174    	; 0x249e <main+0x19c>
				}
				else
				{
					/*Open_File(Entry_clus, buffer1_g);*/
					Play_Song(Entry_clus);
    254c:	0e 94 e1 14 	call	0x29c2	; 0x29c2 <Play_Song>
    2550:	a6 cf       	rjmp	.-180    	; 0x249e <main+0x19c>
				}
				
			}
			else
			{
				sprintf(string_p,"Invalid Selection\n\r");
    2552:	84 e1       	ldi	r24, 0x14	; 20
    2554:	e4 e9       	ldi	r30, 0x94	; 148
    2556:	f1 e0       	ldi	r31, 0x01	; 1
    2558:	ac 2f       	mov	r26, r28
    255a:	bd 2f       	mov	r27, r29
    255c:	01 90       	ld	r0, Z+
    255e:	0d 92       	st	X+, r0
    2560:	8a 95       	dec	r24
    2562:	e1 f7       	brne	.-8      	; 0x255c <main+0x25a>
				UART_Transmit_String(UART1,0,string_p);
    2564:	4c 2f       	mov	r20, r28
    2566:	5d 2f       	mov	r21, r29
    2568:	60 e0       	ldi	r22, 0x00	; 0
    256a:	88 ec       	ldi	r24, 0xC8	; 200
    256c:	90 e0       	ldi	r25, 0x00	; 0
    256e:	0e 94 72 22 	call	0x44e4	; 0x44e4 <UART_Transmit_String>
    2572:	95 cf       	rjmp	.-214    	; 0x249e <main+0x19c>

00002574 <OLED_Set_Line_0>:
    2574:	cf 93       	push	r28
    2576:	df 93       	push	r29
    2578:	ec 01       	movw	r28, r24
    257a:	60 e4       	ldi	r22, 0x40	; 64
    257c:	80 e2       	ldi	r24, 0x20	; 32
    257e:	90 e0       	ldi	r25, 0x00	; 0
    2580:	0e 94 e2 10 	call	0x21c4	; 0x21c4 <GPIO_Output_Clear>
    2584:	61 e0       	ldi	r22, 0x01	; 1
    2586:	83 e2       	ldi	r24, 0x23	; 35
    2588:	90 e0       	ldi	r25, 0x00	; 0
    258a:	0e 94 e2 10 	call	0x21c4	; 0x21c4 <GPIO_Output_Clear>
    258e:	60 eb       	ldi	r22, 0xB0	; 176
    2590:	ce 01       	movw	r24, r28
    2592:	0e 94 60 1d 	call	0x3ac0	; 0x3ac0 <SPI_Transmit>
    2596:	61 e0       	ldi	r22, 0x01	; 1
    2598:	83 e2       	ldi	r24, 0x23	; 35
    259a:	90 e0       	ldi	r25, 0x00	; 0
    259c:	0e 94 dd 10 	call	0x21ba	; 0x21ba <GPIO_Output_Set>
    25a0:	61 e0       	ldi	r22, 0x01	; 1
    25a2:	83 e2       	ldi	r24, 0x23	; 35
    25a4:	90 e0       	ldi	r25, 0x00	; 0
    25a6:	0e 94 e2 10 	call	0x21c4	; 0x21c4 <GPIO_Output_Clear>
    25aa:	60 e0       	ldi	r22, 0x00	; 0
    25ac:	ce 01       	movw	r24, r28
    25ae:	0e 94 60 1d 	call	0x3ac0	; 0x3ac0 <SPI_Transmit>
    25b2:	61 e0       	ldi	r22, 0x01	; 1
    25b4:	83 e2       	ldi	r24, 0x23	; 35
    25b6:	90 e0       	ldi	r25, 0x00	; 0
    25b8:	0e 94 dd 10 	call	0x21ba	; 0x21ba <GPIO_Output_Set>
    25bc:	61 e0       	ldi	r22, 0x01	; 1
    25be:	83 e2       	ldi	r24, 0x23	; 35
    25c0:	90 e0       	ldi	r25, 0x00	; 0
    25c2:	0e 94 e2 10 	call	0x21c4	; 0x21c4 <GPIO_Output_Clear>
    25c6:	60 e1       	ldi	r22, 0x10	; 16
    25c8:	ce 01       	movw	r24, r28
    25ca:	0e 94 60 1d 	call	0x3ac0	; 0x3ac0 <SPI_Transmit>
    25ce:	61 e0       	ldi	r22, 0x01	; 1
    25d0:	83 e2       	ldi	r24, 0x23	; 35
    25d2:	90 e0       	ldi	r25, 0x00	; 0
    25d4:	0e 94 dd 10 	call	0x21ba	; 0x21ba <GPIO_Output_Set>
    25d8:	df 91       	pop	r29
    25da:	cf 91       	pop	r28
    25dc:	08 95       	ret

000025de <OLED_Set_Line_1>:
    25de:	cf 93       	push	r28
    25e0:	df 93       	push	r29
    25e2:	ec 01       	movw	r28, r24
    25e4:	60 e4       	ldi	r22, 0x40	; 64
    25e6:	80 e2       	ldi	r24, 0x20	; 32
    25e8:	90 e0       	ldi	r25, 0x00	; 0
    25ea:	0e 94 e2 10 	call	0x21c4	; 0x21c4 <GPIO_Output_Clear>
    25ee:	61 e0       	ldi	r22, 0x01	; 1
    25f0:	83 e2       	ldi	r24, 0x23	; 35
    25f2:	90 e0       	ldi	r25, 0x00	; 0
    25f4:	0e 94 e2 10 	call	0x21c4	; 0x21c4 <GPIO_Output_Clear>
    25f8:	61 eb       	ldi	r22, 0xB1	; 177
    25fa:	ce 01       	movw	r24, r28
    25fc:	0e 94 60 1d 	call	0x3ac0	; 0x3ac0 <SPI_Transmit>
    2600:	61 e0       	ldi	r22, 0x01	; 1
    2602:	83 e2       	ldi	r24, 0x23	; 35
    2604:	90 e0       	ldi	r25, 0x00	; 0
    2606:	0e 94 dd 10 	call	0x21ba	; 0x21ba <GPIO_Output_Set>
    260a:	61 e0       	ldi	r22, 0x01	; 1
    260c:	83 e2       	ldi	r24, 0x23	; 35
    260e:	90 e0       	ldi	r25, 0x00	; 0
    2610:	0e 94 e2 10 	call	0x21c4	; 0x21c4 <GPIO_Output_Clear>
    2614:	60 e0       	ldi	r22, 0x00	; 0
    2616:	ce 01       	movw	r24, r28
    2618:	0e 94 60 1d 	call	0x3ac0	; 0x3ac0 <SPI_Transmit>
    261c:	61 e0       	ldi	r22, 0x01	; 1
    261e:	83 e2       	ldi	r24, 0x23	; 35
    2620:	90 e0       	ldi	r25, 0x00	; 0
    2622:	0e 94 dd 10 	call	0x21ba	; 0x21ba <GPIO_Output_Set>
    2626:	61 e0       	ldi	r22, 0x01	; 1
    2628:	83 e2       	ldi	r24, 0x23	; 35
    262a:	90 e0       	ldi	r25, 0x00	; 0
    262c:	0e 94 e2 10 	call	0x21c4	; 0x21c4 <GPIO_Output_Clear>
    2630:	60 e1       	ldi	r22, 0x10	; 16
    2632:	ce 01       	movw	r24, r28
    2634:	0e 94 60 1d 	call	0x3ac0	; 0x3ac0 <SPI_Transmit>
    2638:	61 e0       	ldi	r22, 0x01	; 1
    263a:	83 e2       	ldi	r24, 0x23	; 35
    263c:	90 e0       	ldi	r25, 0x00	; 0
    263e:	0e 94 dd 10 	call	0x21ba	; 0x21ba <GPIO_Output_Set>
    2642:	df 91       	pop	r29
    2644:	cf 91       	pop	r28
    2646:	08 95       	ret

00002648 <OLED_Set_Line_2>:
    2648:	cf 93       	push	r28
    264a:	df 93       	push	r29
    264c:	ec 01       	movw	r28, r24
    264e:	60 e4       	ldi	r22, 0x40	; 64
    2650:	80 e2       	ldi	r24, 0x20	; 32
    2652:	90 e0       	ldi	r25, 0x00	; 0
    2654:	0e 94 e2 10 	call	0x21c4	; 0x21c4 <GPIO_Output_Clear>
    2658:	61 e0       	ldi	r22, 0x01	; 1
    265a:	83 e2       	ldi	r24, 0x23	; 35
    265c:	90 e0       	ldi	r25, 0x00	; 0
    265e:	0e 94 e2 10 	call	0x21c4	; 0x21c4 <GPIO_Output_Clear>
    2662:	62 eb       	ldi	r22, 0xB2	; 178
    2664:	ce 01       	movw	r24, r28
    2666:	0e 94 60 1d 	call	0x3ac0	; 0x3ac0 <SPI_Transmit>
    266a:	61 e0       	ldi	r22, 0x01	; 1
    266c:	83 e2       	ldi	r24, 0x23	; 35
    266e:	90 e0       	ldi	r25, 0x00	; 0
    2670:	0e 94 dd 10 	call	0x21ba	; 0x21ba <GPIO_Output_Set>
    2674:	61 e0       	ldi	r22, 0x01	; 1
    2676:	83 e2       	ldi	r24, 0x23	; 35
    2678:	90 e0       	ldi	r25, 0x00	; 0
    267a:	0e 94 e2 10 	call	0x21c4	; 0x21c4 <GPIO_Output_Clear>
    267e:	60 e0       	ldi	r22, 0x00	; 0
    2680:	ce 01       	movw	r24, r28
    2682:	0e 94 60 1d 	call	0x3ac0	; 0x3ac0 <SPI_Transmit>
    2686:	61 e0       	ldi	r22, 0x01	; 1
    2688:	83 e2       	ldi	r24, 0x23	; 35
    268a:	90 e0       	ldi	r25, 0x00	; 0
    268c:	0e 94 dd 10 	call	0x21ba	; 0x21ba <GPIO_Output_Set>
    2690:	61 e0       	ldi	r22, 0x01	; 1
    2692:	83 e2       	ldi	r24, 0x23	; 35
    2694:	90 e0       	ldi	r25, 0x00	; 0
    2696:	0e 94 e2 10 	call	0x21c4	; 0x21c4 <GPIO_Output_Clear>
    269a:	60 e1       	ldi	r22, 0x10	; 16
    269c:	ce 01       	movw	r24, r28
    269e:	0e 94 60 1d 	call	0x3ac0	; 0x3ac0 <SPI_Transmit>
    26a2:	61 e0       	ldi	r22, 0x01	; 1
    26a4:	83 e2       	ldi	r24, 0x23	; 35
    26a6:	90 e0       	ldi	r25, 0x00	; 0
    26a8:	0e 94 dd 10 	call	0x21ba	; 0x21ba <GPIO_Output_Set>
    26ac:	df 91       	pop	r29
    26ae:	cf 91       	pop	r28
    26b0:	08 95       	ret

000026b2 <OLED_Set_Line_3>:
    26b2:	cf 93       	push	r28
    26b4:	df 93       	push	r29
    26b6:	ec 01       	movw	r28, r24
    26b8:	60 e4       	ldi	r22, 0x40	; 64
    26ba:	80 e2       	ldi	r24, 0x20	; 32
    26bc:	90 e0       	ldi	r25, 0x00	; 0
    26be:	0e 94 e2 10 	call	0x21c4	; 0x21c4 <GPIO_Output_Clear>
    26c2:	61 e0       	ldi	r22, 0x01	; 1
    26c4:	83 e2       	ldi	r24, 0x23	; 35
    26c6:	90 e0       	ldi	r25, 0x00	; 0
    26c8:	0e 94 e2 10 	call	0x21c4	; 0x21c4 <GPIO_Output_Clear>
    26cc:	63 eb       	ldi	r22, 0xB3	; 179
    26ce:	ce 01       	movw	r24, r28
    26d0:	0e 94 60 1d 	call	0x3ac0	; 0x3ac0 <SPI_Transmit>
    26d4:	61 e0       	ldi	r22, 0x01	; 1
    26d6:	83 e2       	ldi	r24, 0x23	; 35
    26d8:	90 e0       	ldi	r25, 0x00	; 0
    26da:	0e 94 dd 10 	call	0x21ba	; 0x21ba <GPIO_Output_Set>
    26de:	61 e0       	ldi	r22, 0x01	; 1
    26e0:	83 e2       	ldi	r24, 0x23	; 35
    26e2:	90 e0       	ldi	r25, 0x00	; 0
    26e4:	0e 94 e2 10 	call	0x21c4	; 0x21c4 <GPIO_Output_Clear>
    26e8:	60 e0       	ldi	r22, 0x00	; 0
    26ea:	ce 01       	movw	r24, r28
    26ec:	0e 94 60 1d 	call	0x3ac0	; 0x3ac0 <SPI_Transmit>
    26f0:	61 e0       	ldi	r22, 0x01	; 1
    26f2:	83 e2       	ldi	r24, 0x23	; 35
    26f4:	90 e0       	ldi	r25, 0x00	; 0
    26f6:	0e 94 dd 10 	call	0x21ba	; 0x21ba <GPIO_Output_Set>
    26fa:	61 e0       	ldi	r22, 0x01	; 1
    26fc:	83 e2       	ldi	r24, 0x23	; 35
    26fe:	90 e0       	ldi	r25, 0x00	; 0
    2700:	0e 94 e2 10 	call	0x21c4	; 0x21c4 <GPIO_Output_Clear>
    2704:	60 e1       	ldi	r22, 0x10	; 16
    2706:	ce 01       	movw	r24, r28
    2708:	0e 94 60 1d 	call	0x3ac0	; 0x3ac0 <SPI_Transmit>
    270c:	61 e0       	ldi	r22, 0x01	; 1
    270e:	83 e2       	ldi	r24, 0x23	; 35
    2710:	90 e0       	ldi	r25, 0x00	; 0
    2712:	0e 94 dd 10 	call	0x21ba	; 0x21ba <GPIO_Output_Set>
    2716:	df 91       	pop	r29
    2718:	cf 91       	pop	r28
    271a:	08 95       	ret

0000271c <OLED_Send_Char>:
    271c:	ff 92       	push	r15
    271e:	0f 93       	push	r16
    2720:	1f 93       	push	r17
    2722:	cf 93       	push	r28
    2724:	df 93       	push	r29
    2726:	8c 01       	movw	r16, r24
    2728:	f6 2e       	mov	r15, r22
    272a:	60 e4       	ldi	r22, 0x40	; 64
    272c:	80 e2       	ldi	r24, 0x20	; 32
    272e:	90 e0       	ldi	r25, 0x00	; 0
    2730:	0e 94 dd 10 	call	0x21ba	; 0x21ba <GPIO_Output_Set>
    2734:	d0 e0       	ldi	r29, 0x00	; 0
    2736:	1d c0       	rjmp	.+58     	; 0x2772 <OLED_Send_Char+0x56>
    2738:	8f 2d       	mov	r24, r15
    273a:	90 e0       	ldi	r25, 0x00	; 0
    273c:	fc 01       	movw	r30, r24
    273e:	ee 0f       	add	r30, r30
    2740:	ff 1f       	adc	r31, r31
    2742:	ee 0f       	add	r30, r30
    2744:	ff 1f       	adc	r31, r31
    2746:	e8 0f       	add	r30, r24
    2748:	f9 1f       	adc	r31, r25
    274a:	ed 0f       	add	r30, r29
    274c:	f1 1d       	adc	r31, r1
    274e:	ef 56       	subi	r30, 0x6F	; 111
    2750:	fe 4e       	sbci	r31, 0xEE	; 238
    2752:	c4 91       	lpm	r28, Z
    2754:	61 e0       	ldi	r22, 0x01	; 1
    2756:	83 e2       	ldi	r24, 0x23	; 35
    2758:	90 e0       	ldi	r25, 0x00	; 0
    275a:	0e 94 e2 10 	call	0x21c4	; 0x21c4 <GPIO_Output_Clear>
    275e:	6c 2f       	mov	r22, r28
    2760:	c8 01       	movw	r24, r16
    2762:	0e 94 60 1d 	call	0x3ac0	; 0x3ac0 <SPI_Transmit>
    2766:	61 e0       	ldi	r22, 0x01	; 1
    2768:	83 e2       	ldi	r24, 0x23	; 35
    276a:	90 e0       	ldi	r25, 0x00	; 0
    276c:	0e 94 dd 10 	call	0x21ba	; 0x21ba <GPIO_Output_Set>
    2770:	df 5f       	subi	r29, 0xFF	; 255
    2772:	d5 30       	cpi	r29, 0x05	; 5
    2774:	08 f3       	brcs	.-62     	; 0x2738 <OLED_Send_Char+0x1c>
    2776:	61 e0       	ldi	r22, 0x01	; 1
    2778:	83 e2       	ldi	r24, 0x23	; 35
    277a:	90 e0       	ldi	r25, 0x00	; 0
    277c:	0e 94 e2 10 	call	0x21c4	; 0x21c4 <GPIO_Output_Clear>
    2780:	60 e0       	ldi	r22, 0x00	; 0
    2782:	c8 01       	movw	r24, r16
    2784:	0e 94 60 1d 	call	0x3ac0	; 0x3ac0 <SPI_Transmit>
    2788:	61 e0       	ldi	r22, 0x01	; 1
    278a:	83 e2       	ldi	r24, 0x23	; 35
    278c:	90 e0       	ldi	r25, 0x00	; 0
    278e:	0e 94 dd 10 	call	0x21ba	; 0x21ba <GPIO_Output_Set>
    2792:	df 91       	pop	r29
    2794:	cf 91       	pop	r28
    2796:	1f 91       	pop	r17
    2798:	0f 91       	pop	r16
    279a:	ff 90       	pop	r15
    279c:	08 95       	ret

0000279e <OLED_Clear_Display>:
    279e:	1f 93       	push	r17
    27a0:	cf 93       	push	r28
    27a2:	df 93       	push	r29
    27a4:	ec 01       	movw	r28, r24
    27a6:	0e 94 ba 12 	call	0x2574	; 0x2574 <OLED_Set_Line_0>
    27aa:	60 e4       	ldi	r22, 0x40	; 64
    27ac:	80 e2       	ldi	r24, 0x20	; 32
    27ae:	90 e0       	ldi	r25, 0x00	; 0
    27b0:	0e 94 dd 10 	call	0x21ba	; 0x21ba <GPIO_Output_Set>
    27b4:	10 e0       	ldi	r17, 0x00	; 0
    27b6:	0f c0       	rjmp	.+30     	; 0x27d6 <OLED_Clear_Display+0x38>
    27b8:	61 e0       	ldi	r22, 0x01	; 1
    27ba:	83 e2       	ldi	r24, 0x23	; 35
    27bc:	90 e0       	ldi	r25, 0x00	; 0
    27be:	0e 94 e2 10 	call	0x21c4	; 0x21c4 <GPIO_Output_Clear>
    27c2:	60 e0       	ldi	r22, 0x00	; 0
    27c4:	ce 01       	movw	r24, r28
    27c6:	0e 94 60 1d 	call	0x3ac0	; 0x3ac0 <SPI_Transmit>
    27ca:	61 e0       	ldi	r22, 0x01	; 1
    27cc:	83 e2       	ldi	r24, 0x23	; 35
    27ce:	90 e0       	ldi	r25, 0x00	; 0
    27d0:	0e 94 dd 10 	call	0x21ba	; 0x21ba <GPIO_Output_Set>
    27d4:	1f 5f       	subi	r17, 0xFF	; 255
    27d6:	11 23       	and	r17, r17
    27d8:	7c f7       	brge	.-34     	; 0x27b8 <OLED_Clear_Display+0x1a>
    27da:	ce 01       	movw	r24, r28
    27dc:	0e 94 ef 12 	call	0x25de	; 0x25de <OLED_Set_Line_1>
    27e0:	60 e4       	ldi	r22, 0x40	; 64
    27e2:	80 e2       	ldi	r24, 0x20	; 32
    27e4:	90 e0       	ldi	r25, 0x00	; 0
    27e6:	0e 94 dd 10 	call	0x21ba	; 0x21ba <GPIO_Output_Set>
    27ea:	10 e0       	ldi	r17, 0x00	; 0
    27ec:	0f c0       	rjmp	.+30     	; 0x280c <OLED_Clear_Display+0x6e>
    27ee:	61 e0       	ldi	r22, 0x01	; 1
    27f0:	83 e2       	ldi	r24, 0x23	; 35
    27f2:	90 e0       	ldi	r25, 0x00	; 0
    27f4:	0e 94 e2 10 	call	0x21c4	; 0x21c4 <GPIO_Output_Clear>
    27f8:	60 e0       	ldi	r22, 0x00	; 0
    27fa:	ce 01       	movw	r24, r28
    27fc:	0e 94 60 1d 	call	0x3ac0	; 0x3ac0 <SPI_Transmit>
    2800:	61 e0       	ldi	r22, 0x01	; 1
    2802:	83 e2       	ldi	r24, 0x23	; 35
    2804:	90 e0       	ldi	r25, 0x00	; 0
    2806:	0e 94 dd 10 	call	0x21ba	; 0x21ba <GPIO_Output_Set>
    280a:	1f 5f       	subi	r17, 0xFF	; 255
    280c:	11 23       	and	r17, r17
    280e:	7c f7       	brge	.-34     	; 0x27ee <OLED_Clear_Display+0x50>
    2810:	ce 01       	movw	r24, r28
    2812:	0e 94 24 13 	call	0x2648	; 0x2648 <OLED_Set_Line_2>
    2816:	60 e4       	ldi	r22, 0x40	; 64
    2818:	80 e2       	ldi	r24, 0x20	; 32
    281a:	90 e0       	ldi	r25, 0x00	; 0
    281c:	0e 94 dd 10 	call	0x21ba	; 0x21ba <GPIO_Output_Set>
    2820:	10 e0       	ldi	r17, 0x00	; 0
    2822:	0f c0       	rjmp	.+30     	; 0x2842 <OLED_Clear_Display+0xa4>
    2824:	61 e0       	ldi	r22, 0x01	; 1
    2826:	83 e2       	ldi	r24, 0x23	; 35
    2828:	90 e0       	ldi	r25, 0x00	; 0
    282a:	0e 94 e2 10 	call	0x21c4	; 0x21c4 <GPIO_Output_Clear>
    282e:	60 e0       	ldi	r22, 0x00	; 0
    2830:	ce 01       	movw	r24, r28
    2832:	0e 94 60 1d 	call	0x3ac0	; 0x3ac0 <SPI_Transmit>
    2836:	61 e0       	ldi	r22, 0x01	; 1
    2838:	83 e2       	ldi	r24, 0x23	; 35
    283a:	90 e0       	ldi	r25, 0x00	; 0
    283c:	0e 94 dd 10 	call	0x21ba	; 0x21ba <GPIO_Output_Set>
    2840:	1f 5f       	subi	r17, 0xFF	; 255
    2842:	11 23       	and	r17, r17
    2844:	7c f7       	brge	.-34     	; 0x2824 <OLED_Clear_Display+0x86>
    2846:	ce 01       	movw	r24, r28
    2848:	0e 94 59 13 	call	0x26b2	; 0x26b2 <OLED_Set_Line_3>
    284c:	60 e4       	ldi	r22, 0x40	; 64
    284e:	80 e2       	ldi	r24, 0x20	; 32
    2850:	90 e0       	ldi	r25, 0x00	; 0
    2852:	0e 94 dd 10 	call	0x21ba	; 0x21ba <GPIO_Output_Set>
    2856:	10 e0       	ldi	r17, 0x00	; 0
    2858:	0f c0       	rjmp	.+30     	; 0x2878 <OLED_Clear_Display+0xda>
    285a:	61 e0       	ldi	r22, 0x01	; 1
    285c:	83 e2       	ldi	r24, 0x23	; 35
    285e:	90 e0       	ldi	r25, 0x00	; 0
    2860:	0e 94 e2 10 	call	0x21c4	; 0x21c4 <GPIO_Output_Clear>
    2864:	60 e0       	ldi	r22, 0x00	; 0
    2866:	ce 01       	movw	r24, r28
    2868:	0e 94 60 1d 	call	0x3ac0	; 0x3ac0 <SPI_Transmit>
    286c:	61 e0       	ldi	r22, 0x01	; 1
    286e:	83 e2       	ldi	r24, 0x23	; 35
    2870:	90 e0       	ldi	r25, 0x00	; 0
    2872:	0e 94 dd 10 	call	0x21ba	; 0x21ba <GPIO_Output_Set>
    2876:	1f 5f       	subi	r17, 0xFF	; 255
    2878:	11 23       	and	r17, r17
    287a:	7c f7       	brge	.-34     	; 0x285a <OLED_Clear_Display+0xbc>
    287c:	df 91       	pop	r29
    287e:	cf 91       	pop	r28
    2880:	1f 91       	pop	r17
    2882:	08 95       	ret

00002884 <OLED_Init>:
    2884:	ef 92       	push	r14
    2886:	ff 92       	push	r15
    2888:	0f 93       	push	r16
    288a:	1f 93       	push	r17
    288c:	cf 93       	push	r28
    288e:	7c 01       	movw	r14, r24
    2890:	60 e8       	ldi	r22, 0x80	; 128
    2892:	89 e2       	ldi	r24, 0x29	; 41
    2894:	90 e0       	ldi	r25, 0x00	; 0
    2896:	0e 94 dd 10 	call	0x21ba	; 0x21ba <GPIO_Output_Set>
    289a:	60 e8       	ldi	r22, 0x80	; 128
    289c:	89 e2       	ldi	r24, 0x29	; 41
    289e:	90 e0       	ldi	r25, 0x00	; 0
    28a0:	0e 94 d8 10 	call	0x21b0	; 0x21b0 <GPIO_Output_Init>
    28a4:	60 e4       	ldi	r22, 0x40	; 64
    28a6:	80 e2       	ldi	r24, 0x20	; 32
    28a8:	90 e0       	ldi	r25, 0x00	; 0
    28aa:	0e 94 dd 10 	call	0x21ba	; 0x21ba <GPIO_Output_Set>
    28ae:	60 e4       	ldi	r22, 0x40	; 64
    28b0:	80 e2       	ldi	r24, 0x20	; 32
    28b2:	90 e0       	ldi	r25, 0x00	; 0
    28b4:	0e 94 d8 10 	call	0x21b0	; 0x21b0 <GPIO_Output_Init>
    28b8:	61 e0       	ldi	r22, 0x01	; 1
    28ba:	83 e2       	ldi	r24, 0x23	; 35
    28bc:	90 e0       	ldi	r25, 0x00	; 0
    28be:	0e 94 dd 10 	call	0x21ba	; 0x21ba <GPIO_Output_Set>
    28c2:	61 e0       	ldi	r22, 0x01	; 1
    28c4:	83 e2       	ldi	r24, 0x23	; 35
    28c6:	90 e0       	ldi	r25, 0x00	; 0
    28c8:	0e 94 d8 10 	call	0x21b0	; 0x21b0 <GPIO_Output_Init>
    28cc:	60 e8       	ldi	r22, 0x80	; 128
    28ce:	89 e2       	ldi	r24, 0x29	; 41
    28d0:	90 e0       	ldi	r25, 0x00	; 0
    28d2:	0e 94 e2 10 	call	0x21c4	; 0x21c4 <GPIO_Output_Clear>
    28d6:	80 e0       	ldi	r24, 0x00	; 0
    28d8:	90 e0       	ldi	r25, 0x00	; 0
    28da:	01 c0       	rjmp	.+2      	; 0x28de <OLED_Init+0x5a>
    28dc:	01 96       	adiw	r24, 0x01	; 1
    28de:	84 3f       	cpi	r24, 0xF4	; 244
    28e0:	21 e0       	ldi	r18, 0x01	; 1
    28e2:	92 07       	cpc	r25, r18
    28e4:	d8 f3       	brcs	.-10     	; 0x28dc <OLED_Init+0x58>
    28e6:	60 e8       	ldi	r22, 0x80	; 128
    28e8:	89 e2       	ldi	r24, 0x29	; 41
    28ea:	90 e0       	ldi	r25, 0x00	; 0
    28ec:	0e 94 dd 10 	call	0x21ba	; 0x21ba <GPIO_Output_Set>
    28f0:	60 e4       	ldi	r22, 0x40	; 64
    28f2:	80 e2       	ldi	r24, 0x20	; 32
    28f4:	90 e0       	ldi	r25, 0x00	; 0
    28f6:	0e 94 e2 10 	call	0x21c4	; 0x21c4 <GPIO_Output_Clear>
    28fa:	e9 e7       	ldi	r30, 0x79	; 121
    28fc:	f1 e1       	ldi	r31, 0x11	; 17
    28fe:	c4 91       	lpm	r28, Z
    2900:	00 e0       	ldi	r16, 0x00	; 0
    2902:	10 e0       	ldi	r17, 0x00	; 0
    2904:	14 c0       	rjmp	.+40     	; 0x292e <OLED_Init+0xaa>
    2906:	61 e0       	ldi	r22, 0x01	; 1
    2908:	83 e2       	ldi	r24, 0x23	; 35
    290a:	90 e0       	ldi	r25, 0x00	; 0
    290c:	0e 94 e2 10 	call	0x21c4	; 0x21c4 <GPIO_Output_Clear>
    2910:	6c 2f       	mov	r22, r28
    2912:	c7 01       	movw	r24, r14
    2914:	0e 94 60 1d 	call	0x3ac0	; 0x3ac0 <SPI_Transmit>
    2918:	61 e0       	ldi	r22, 0x01	; 1
    291a:	83 e2       	ldi	r24, 0x23	; 35
    291c:	90 e0       	ldi	r25, 0x00	; 0
    291e:	0e 94 dd 10 	call	0x21ba	; 0x21ba <GPIO_Output_Set>
    2922:	0f 5f       	subi	r16, 0xFF	; 255
    2924:	1f 4f       	sbci	r17, 0xFF	; 255
    2926:	f8 01       	movw	r30, r16
    2928:	e7 58       	subi	r30, 0x87	; 135
    292a:	fe 4e       	sbci	r31, 0xEE	; 238
    292c:	c4 91       	lpm	r28, Z
    292e:	cf 3f       	cpi	r28, 0xFF	; 255
    2930:	51 f7       	brne	.-44     	; 0x2906 <OLED_Init+0x82>
    2932:	61 e0       	ldi	r22, 0x01	; 1
    2934:	83 e2       	ldi	r24, 0x23	; 35
    2936:	90 e0       	ldi	r25, 0x00	; 0
    2938:	0e 94 e2 10 	call	0x21c4	; 0x21c4 <GPIO_Output_Clear>
    293c:	60 e4       	ldi	r22, 0x40	; 64
    293e:	c7 01       	movw	r24, r14
    2940:	0e 94 60 1d 	call	0x3ac0	; 0x3ac0 <SPI_Transmit>
    2944:	61 e0       	ldi	r22, 0x01	; 1
    2946:	83 e2       	ldi	r24, 0x23	; 35
    2948:	90 e0       	ldi	r25, 0x00	; 0
    294a:	0e 94 dd 10 	call	0x21ba	; 0x21ba <GPIO_Output_Set>
    294e:	c7 01       	movw	r24, r14
    2950:	0e 94 cf 13 	call	0x279e	; 0x279e <OLED_Clear_Display>
    2954:	cf 91       	pop	r28
    2956:	1f 91       	pop	r17
    2958:	0f 91       	pop	r16
    295a:	ff 90       	pop	r15
    295c:	ef 90       	pop	r14
    295e:	08 95       	ret

00002960 <OLED_Transmit_String>:
    2960:	ef 92       	push	r14
    2962:	ff 92       	push	r15
    2964:	0f 93       	push	r16
    2966:	1f 93       	push	r17
    2968:	cf 93       	push	r28
    296a:	df 93       	push	r29
    296c:	7c 01       	movw	r14, r24
    296e:	06 2f       	mov	r16, r22
    2970:	ea 01       	movw	r28, r20
    2972:	61 11       	cpse	r22, r1
    2974:	15 c0       	rjmp	.+42     	; 0x29a0 <OLED_Transmit_String+0x40>
    2976:	68 81       	ld	r22, Y
    2978:	05 c0       	rjmp	.+10     	; 0x2984 <OLED_Transmit_String+0x24>
    297a:	c7 01       	movw	r24, r14
    297c:	0e 94 8e 13 	call	0x271c	; 0x271c <OLED_Send_Char>
    2980:	21 96       	adiw	r28, 0x01	; 1
    2982:	68 81       	ld	r22, Y
    2984:	61 11       	cpse	r22, r1
    2986:	f9 cf       	rjmp	.-14     	; 0x297a <OLED_Transmit_String+0x1a>
    2988:	15 c0       	rjmp	.+42     	; 0x29b4 <OLED_Transmit_String+0x54>
    298a:	fe 01       	movw	r30, r28
    298c:	e1 0f       	add	r30, r17
    298e:	f1 1d       	adc	r31, r1
    2990:	17 fd       	sbrc	r17, 7
    2992:	fa 95       	dec	r31
    2994:	60 81       	ld	r22, Z
    2996:	c7 01       	movw	r24, r14
    2998:	0e 94 8e 13 	call	0x271c	; 0x271c <OLED_Send_Char>
    299c:	1f 5f       	subi	r17, 0xFF	; 255
    299e:	01 c0       	rjmp	.+2      	; 0x29a2 <OLED_Transmit_String+0x42>
    29a0:	10 e0       	ldi	r17, 0x00	; 0
    29a2:	20 2f       	mov	r18, r16
    29a4:	30 e0       	ldi	r19, 0x00	; 0
    29a6:	81 2f       	mov	r24, r17
    29a8:	01 2e       	mov	r0, r17
    29aa:	00 0c       	add	r0, r0
    29ac:	99 0b       	sbc	r25, r25
    29ae:	82 17       	cp	r24, r18
    29b0:	93 07       	cpc	r25, r19
    29b2:	5c f3       	brlt	.-42     	; 0x298a <OLED_Transmit_String+0x2a>
    29b4:	df 91       	pop	r29
    29b6:	cf 91       	pop	r28
    29b8:	1f 91       	pop	r17
    29ba:	0f 91       	pop	r16
    29bc:	ff 90       	pop	r15
    29be:	ef 90       	pop	r14
    29c0:	08 95       	ret

000029c2 <Play_Song>:
#include "Directory_Functions_struct.h"
extern uint8_t buffer1_g[512];
extern uint8_t buffer2_g[512];

void Play_Song(uint32_t Start_Cluster)
{
    29c2:	2f 92       	push	r2
    29c4:	3f 92       	push	r3
    29c6:	4f 92       	push	r4
    29c8:	5f 92       	push	r5
    29ca:	6f 92       	push	r6
    29cc:	7f 92       	push	r7
    29ce:	8f 92       	push	r8
    29d0:	9f 92       	push	r9
    29d2:	af 92       	push	r10
    29d4:	bf 92       	push	r11
    29d6:	cf 92       	push	r12
    29d8:	df 92       	push	r13
    29da:	ef 92       	push	r14
    29dc:	ff 92       	push	r15
    29de:	0f 93       	push	r16
    29e0:	1f 93       	push	r17
    29e2:	cf 93       	push	r28
    29e4:	df 93       	push	r29
    29e6:	00 d0       	rcall	.+0      	; 0x29e8 <Play_Song+0x26>
    29e8:	00 d0       	rcall	.+0      	; 0x29ea <Play_Song+0x28>
    29ea:	cd b7       	in	r28, 0x3d	; 61
    29ec:	de b7       	in	r29, 0x3e	; 62
    29ee:	2b 01       	movw	r4, r22
    29f0:	3c 01       	movw	r6, r24
	uint16_t index1, index2;
	uint8_t buf_flag1, buf_flag2, temp8;
	uint32_t sector, sector_offset;
	char *prnt_bffr;
	FS_values_t * Drive_p = Export_Drive_values();
    29f2:	0e 94 26 0b 	call	0x164c	; 0x164c <Export_Drive_values>
    29f6:	1c 01       	movw	r2, r24

	prnt_bffr=Export_print_buffer();
    29f8:	0e 94 49 22 	call	0x4492	; 0x4492 <Export_print_buffer>
    29fc:	8a 83       	std	Y+2, r24	; 0x02
    29fe:	99 83       	std	Y+1, r25	; 0x01
	//**** LEDS initialized for debugging ****//
	LEDS_Off(LED3_port,LED3_pin);
    2a00:	60 e8       	ldi	r22, 0x80	; 128
    2a02:	80 e2       	ldi	r24, 0x20	; 32
    2a04:	90 e0       	ldi	r25, 0x00	; 0
    2a06:	0e 94 eb 10 	call	0x21d6	; 0x21d6 <LEDS_Off>
	LEDS_Init(LED3_port,LED3_pin);
    2a0a:	60 e8       	ldi	r22, 0x80	; 128
    2a0c:	80 e2       	ldi	r24, 0x20	; 32
    2a0e:	90 e0       	ldi	r25, 0x00	; 0
    2a10:	0e 94 e8 10 	call	0x21d0	; 0x21d0 <LEDS_Init>
	LEDS_Off(LED1_port,LED1_pin);
    2a14:	68 e0       	ldi	r22, 0x08	; 8
    2a16:	83 e2       	ldi	r24, 0x23	; 35
    2a18:	90 e0       	ldi	r25, 0x00	; 0
    2a1a:	0e 94 eb 10 	call	0x21d6	; 0x21d6 <LEDS_Off>
	LEDS_Init(LED1_port,LED1_pin);
    2a1e:	68 e0       	ldi	r22, 0x08	; 8
    2a20:	83 e2       	ldi	r24, 0x23	; 35
    2a22:	90 e0       	ldi	r25, 0x00	; 0
    2a24:	0e 94 e8 10 	call	0x21d0	; 0x21d0 <LEDS_Init>
	LEDS_Off(LED0_port,LED0_pin);
    2a28:	60 e8       	ldi	r22, 0x80	; 128
    2a2a:	86 e2       	ldi	r24, 0x26	; 38
    2a2c:	90 e0       	ldi	r25, 0x00	; 0
    2a2e:	0e 94 eb 10 	call	0x21d6	; 0x21d6 <LEDS_Off>
	LEDS_Init(LED0_port,LED0_pin);
    2a32:	60 e8       	ldi	r22, 0x80	; 128
    2a34:	86 e2       	ldi	r24, 0x26	; 38
    2a36:	90 e0       	ldi	r25, 0x00	; 0
    2a38:	0e 94 e8 10 	call	0x21d0	; 0x21d0 <LEDS_Init>
	LEDS_Off(LED2_port,LED2_pin);
    2a3c:	60 e1       	ldi	r22, 0x10	; 16
    2a3e:	8c e2       	ldi	r24, 0x2C	; 44
    2a40:	90 e0       	ldi	r25, 0x00	; 0
    2a42:	0e 94 eb 10 	call	0x21d6	; 0x21d6 <LEDS_Off>
	LEDS_Init(LED2_port,LED2_pin);
    2a46:	60 e1       	ldi	r22, 0x10	; 16
    2a48:	8c e2       	ldi	r24, 0x2C	; 44
    2a4a:	90 e0       	ldi	r25, 0x00	; 0
    2a4c:	0e 94 e8 10 	call	0x21d0	; 0x21d0 <LEDS_Init>
	GPIO_Output_Clear(STA013_BITEN_Port,STA013_BITEN_Pin);
    2a50:	60 e4       	ldi	r22, 0x40	; 64
    2a52:	89 e2       	ldi	r24, 0x29	; 41
    2a54:	90 e0       	ldi	r25, 0x00	; 0
    2a56:	0e 94 e2 10 	call	0x21c4	; 0x21c4 <GPIO_Output_Clear>
	GPIO_Output_Init(STA013_BITEN_Port,STA013_BITEN_Pin);
    2a5a:	60 e4       	ldi	r22, 0x40	; 64
    2a5c:	89 e2       	ldi	r24, 0x29	; 41
    2a5e:	90 e0       	ldi	r25, 0x00	; 0
    2a60:	0e 94 d8 10 	call	0x21b0	; 0x21b0 <GPIO_Output_Init>
	GPIO_Pull_Up_Enable(STA013_DATAREQ_Port,STA013_DATAREQ_Pin);
    2a64:	60 e4       	ldi	r22, 0x40	; 64
    2a66:	86 e2       	ldi	r24, 0x26	; 38
    2a68:	90 e0       	ldi	r25, 0x00	; 0
    2a6a:	0e 94 56 17 	call	0x2eac	; 0x2eac <GPIO_Pull_Up_Enable>
	GPIO_Input_Init(STA013_DATAREQ_Port,STA013_DATAREQ_Pin);
    2a6e:	60 e4       	ldi	r22, 0x40	; 64
    2a70:	86 e2       	ldi	r24, 0x26	; 38
    2a72:	90 e0       	ldi	r25, 0x00	; 0
    2a74:	0e 94 50 17 	call	0x2ea0	; 0x2ea0 <GPIO_Input_Init>
	sprintf(prnt_bffr,"Starting Cluster = %lu\n\r",Start_Cluster);
    2a78:	7f 92       	push	r7
    2a7a:	6f 92       	push	r6
    2a7c:	5f 92       	push	r5
    2a7e:	4f 92       	push	r4
    2a80:	88 ea       	ldi	r24, 0xA8	; 168
    2a82:	91 e0       	ldi	r25, 0x01	; 1
    2a84:	9f 93       	push	r25
    2a86:	8f 93       	push	r24
    2a88:	29 81       	ldd	r18, Y+1	; 0x01
    2a8a:	2f 93       	push	r18
    2a8c:	8a 81       	ldd	r24, Y+2	; 0x02
    2a8e:	8f 93       	push	r24
    2a90:	0e 94 2f 23 	call	0x465e	; 0x465e <sprintf>
	UART_Transmit_String(UART1,0,prnt_bffr);
    2a94:	4a 81       	ldd	r20, Y+2	; 0x02
    2a96:	59 81       	ldd	r21, Y+1	; 0x01
    2a98:	60 e0       	ldi	r22, 0x00	; 0
    2a9a:	88 ec       	ldi	r24, 0xC8	; 200
    2a9c:	90 e0       	ldi	r25, 0x00	; 0
    2a9e:	0e 94 72 22 	call	0x44e4	; 0x44e4 <UART_Transmit_String>
	sector=First_Sector(Start_Cluster);
    2aa2:	c3 01       	movw	r24, r6
    2aa4:	b2 01       	movw	r22, r4
    2aa6:	0e 94 48 10 	call	0x2090	; 0x2090 <First_Sector>
    2aaa:	4b 01       	movw	r8, r22
    2aac:	5c 01       	movw	r10, r24
	sprintf(prnt_bffr,"Starting Sector = %lu\n\r",sector);
    2aae:	bf 92       	push	r11
    2ab0:	af 92       	push	r10
    2ab2:	9f 92       	push	r9
    2ab4:	6f 93       	push	r22
    2ab6:	81 ec       	ldi	r24, 0xC1	; 193
    2ab8:	91 e0       	ldi	r25, 0x01	; 1
    2aba:	9f 93       	push	r25
    2abc:	8f 93       	push	r24
    2abe:	99 81       	ldd	r25, Y+1	; 0x01
    2ac0:	9f 93       	push	r25
    2ac2:	ea 81       	ldd	r30, Y+2	; 0x02
    2ac4:	ef 93       	push	r30
    2ac6:	0e 94 2f 23 	call	0x465e	; 0x465e <sprintf>
	UART_Transmit_String(UART1,0,prnt_bffr);
    2aca:	4a 81       	ldd	r20, Y+2	; 0x02
    2acc:	59 81       	ldd	r21, Y+1	; 0x01
    2ace:	60 e0       	ldi	r22, 0x00	; 0
    2ad0:	88 ec       	ldi	r24, 0xC8	; 200
    2ad2:	90 e0       	ldi	r25, 0x00	; 0
    2ad4:	0e 94 72 22 	call	0x44e4	; 0x44e4 <UART_Transmit_String>
	sector_offset=0;
	buf_flag1=1;
	buf_flag2=0;
	//P3_2=ON;
	LEDS_On(LED1_port,LED1_pin);
    2ad8:	68 e0       	ldi	r22, 0x08	; 8
    2ada:	83 e2       	ldi	r24, 0x23	; 35
    2adc:	90 e0       	ldi	r25, 0x00	; 0
    2ade:	0e 94 ee 10 	call	0x21dc	; 0x21dc <LEDS_On>
	index1=0;
	
	Read_Sector(sector+sector_offset, 512, buffer1_g);
    2ae2:	23 e8       	ldi	r18, 0x83	; 131
    2ae4:	32 e0       	ldi	r19, 0x02	; 2
    2ae6:	40 e0       	ldi	r20, 0x00	; 0
    2ae8:	52 e0       	ldi	r21, 0x02	; 2
    2aea:	c5 01       	movw	r24, r10
    2aec:	b4 01       	movw	r22, r8
    2aee:	0e 94 63 17 	call	0x2ec6	; 0x2ec6 <Read_Sector>

	sector_offset++;
	LEDS_Off(LED1_port,LED1_pin);
    2af2:	68 e0       	ldi	r22, 0x08	; 8
    2af4:	83 e2       	ldi	r24, 0x23	; 35
    2af6:	90 e0       	ldi	r25, 0x00	; 0
    2af8:	0e 94 eb 10 	call	0x21d6	; 0x21d6 <LEDS_Off>
	LEDS_On(LED2_port,LED2_pin);
    2afc:	60 e1       	ldi	r22, 0x10	; 16
    2afe:	8c e2       	ldi	r24, 0x2C	; 44
    2b00:	90 e0       	ldi	r25, 0x00	; 0
    2b02:	0e 94 ee 10 	call	0x21dc	; 0x21dc <LEDS_On>
	index2=0;
	
	Read_Sector(sector+sector_offset, 512, buffer2_g);
    2b06:	c5 01       	movw	r24, r10
    2b08:	b4 01       	movw	r22, r8
    2b0a:	6f 5f       	subi	r22, 0xFF	; 255
    2b0c:	7f 4f       	sbci	r23, 0xFF	; 255
    2b0e:	8f 4f       	sbci	r24, 0xFF	; 255
    2b10:	9f 4f       	sbci	r25, 0xFF	; 255
    2b12:	23 e8       	ldi	r18, 0x83	; 131
    2b14:	34 e0       	ldi	r19, 0x04	; 4
    2b16:	40 e0       	ldi	r20, 0x00	; 0
    2b18:	52 e0       	ldi	r21, 0x02	; 2
    2b1a:	0e 94 63 17 	call	0x2ec6	; 0x2ec6 <Read_Sector>
	sector_offset++;
	LEDS_Off(LED2_port,LED2_pin);
    2b1e:	60 e1       	ldi	r22, 0x10	; 16
    2b20:	8c e2       	ldi	r24, 0x2C	; 44
    2b22:	90 e0       	ldi	r25, 0x00	; 0
    2b24:	0e 94 eb 10 	call	0x21d6	; 0x21d6 <LEDS_Off>
    2b28:	0f b6       	in	r0, 0x3f	; 63
    2b2a:	f8 94       	cli
    2b2c:	de bf       	out	0x3e, r29	; 62
    2b2e:	0f be       	out	0x3f, r0	; 63
    2b30:	cd bf       	out	0x3d, r28	; 61
	LEDS_Off(LED1_port,LED1_pin);
	LEDS_On(LED2_port,LED2_pin);
	index2=0;
	
	Read_Sector(sector+sector_offset, 512, buffer2_g);
	sector_offset++;
    2b32:	c1 2c       	mov	r12, r1
    2b34:	d1 2c       	mov	r13, r1
    2b36:	76 01       	movw	r14, r12
    2b38:	68 94       	set
    2b3a:	c1 f8       	bld	r12, 1
	sector=First_Sector(Start_Cluster);
	sprintf(prnt_bffr,"Starting Sector = %lu\n\r",sector);
	UART_Transmit_String(UART1,0,prnt_bffr);
	sector_offset=0;
	buf_flag1=1;
	buf_flag2=0;
    2b3c:	1a 82       	std	Y+2, r1	; 0x02
	UART_Transmit_String(UART1,0,prnt_bffr);
	sector=First_Sector(Start_Cluster);
	sprintf(prnt_bffr,"Starting Sector = %lu\n\r",sector);
	UART_Transmit_String(UART1,0,prnt_bffr);
	sector_offset=0;
	buf_flag1=1;
    2b3e:	91 e0       	ldi	r25, 0x01	; 1
    2b40:	99 83       	std	Y+1, r25	; 0x01
	Read_Sector(sector+sector_offset, 512, buffer1_g);

	sector_offset++;
	LEDS_Off(LED1_port,LED1_pin);
	LEDS_On(LED2_port,LED2_pin);
	index2=0;
    2b42:	00 e0       	ldi	r16, 0x00	; 0
    2b44:	10 e0       	ldi	r17, 0x00	; 0
	sector_offset=0;
	buf_flag1=1;
	buf_flag2=0;
	//P3_2=ON;
	LEDS_On(LED1_port,LED1_pin);
	index1=0;
    2b46:	1c 82       	std	Y+4, r1	; 0x04
    2b48:	1b 82       	std	Y+3, r1	; 0x03
	LEDS_Off(LED2_port,LED2_pin);
	do
	{
		do
		{
			temp8=GPIO_Read_Pin(STA013_DATAREQ_Port,STA013_DATAREQ_Pin);
    2b4a:	60 e4       	ldi	r22, 0x40	; 64
    2b4c:	86 e2       	ldi	r24, 0x26	; 38
    2b4e:	90 e0       	ldi	r25, 0x00	; 0
    2b50:	0e 94 5b 17 	call	0x2eb6	; 0x2eb6 <GPIO_Read_Pin>
			if(temp8==0)
    2b54:	81 11       	cpse	r24, r1
    2b56:	67 c0       	rjmp	.+206    	; 0x2c26 <Play_Song+0x264>
			{
				//GREENLED=ON;
				GPIO_Output_Set(STA013_BITEN_Port,STA013_BITEN_Pin);
    2b58:	60 e4       	ldi	r22, 0x40	; 64
    2b5a:	89 e2       	ldi	r24, 0x29	; 41
    2b5c:	90 e0       	ldi	r25, 0x00	; 0
    2b5e:	0e 94 dd 10 	call	0x21ba	; 0x21ba <GPIO_Output_Set>
				SPI_Transmit(STA013_SPI_Port,buffer1_g[index1]);
    2b62:	eb 81       	ldd	r30, Y+3	; 0x03
    2b64:	fc 81       	ldd	r31, Y+4	; 0x04
    2b66:	ed 57       	subi	r30, 0x7D	; 125
    2b68:	fd 4f       	sbci	r31, 0xFD	; 253
    2b6a:	60 81       	ld	r22, Z
    2b6c:	8c e4       	ldi	r24, 0x4C	; 76
    2b6e:	90 e0       	ldi	r25, 0x00	; 0
    2b70:	0e 94 60 1d 	call	0x3ac0	; 0x3ac0 <SPI_Transmit>
				GPIO_Output_Clear(STA013_BITEN_Port,STA013_BITEN_Pin);
    2b74:	60 e4       	ldi	r22, 0x40	; 64
    2b76:	89 e2       	ldi	r24, 0x29	; 41
    2b78:	90 e0       	ldi	r25, 0x00	; 0
    2b7a:	0e 94 e2 10 	call	0x21c4	; 0x21c4 <GPIO_Output_Clear>
				//GREENLED=OFF;
				index1++;
    2b7e:	eb 81       	ldd	r30, Y+3	; 0x03
    2b80:	fc 81       	ldd	r31, Y+4	; 0x04
    2b82:	31 96       	adiw	r30, 0x01	; 1
    2b84:	fc 83       	std	Y+4, r31	; 0x04
    2b86:	eb 83       	std	Y+3, r30	; 0x03
				if(index1>511)
    2b88:	e1 15       	cp	r30, r1
    2b8a:	f2 40       	sbci	r31, 0x02	; 2
    2b8c:	08 f4       	brcc	.+2      	; 0x2b90 <Play_Song+0x1ce>
    2b8e:	a0 c0       	rjmp	.+320    	; 0x2cd0 <Play_Song+0x30e>
				{
					if(index2>511)
    2b90:	01 15       	cp	r16, r1
    2b92:	82 e0       	ldi	r24, 0x02	; 2
    2b94:	18 07       	cpc	r17, r24
    2b96:	08 f4       	brcc	.+2      	; 0x2b9a <Play_Song+0x1d8>
    2b98:	94 c0       	rjmp	.+296    	; 0x2cc2 <Play_Song+0x300>
					{
						//BIT_EN=0;
						LEDS_On(LED2_port,LED2_pin);
    2b9a:	60 e1       	ldi	r22, 0x10	; 16
    2b9c:	8c e2       	ldi	r24, 0x2C	; 44
    2b9e:	90 e0       	ldi	r25, 0x00	; 0
    2ba0:	0e 94 ee 10 	call	0x21dc	; 0x21dc <LEDS_On>
						index2=0;
						
						// If end of sector reached, get next cluster
						if (sector_offset >= (Drive_p->SecPerClus)){
    2ba4:	f1 01       	movw	r30, r2
    2ba6:	80 81       	ld	r24, Z
    2ba8:	90 e0       	ldi	r25, 0x00	; 0
    2baa:	a0 e0       	ldi	r26, 0x00	; 0
    2bac:	b0 e0       	ldi	r27, 0x00	; 0
    2bae:	c8 16       	cp	r12, r24
    2bb0:	d9 06       	cpc	r13, r25
    2bb2:	ea 06       	cpc	r14, r26
    2bb4:	fb 06       	cpc	r15, r27
    2bb6:	d8 f0       	brcs	.+54     	; 0x2bee <Play_Song+0x22c>
							// LED for debugging
							LEDS_On(LED3_port, LED3_pin);
    2bb8:	60 e8       	ldi	r22, 0x80	; 128
    2bba:	80 e2       	ldi	r24, 0x20	; 32
    2bbc:	90 e0       	ldi	r25, 0x00	; 0
    2bbe:	0e 94 ee 10 	call	0x21dc	; 0x21dc <LEDS_On>
							Start_Cluster = Find_Next_Clus(Start_Cluster, buffer2_g);
    2bc2:	43 e8       	ldi	r20, 0x83	; 131
    2bc4:	54 e0       	ldi	r21, 0x04	; 4
    2bc6:	c3 01       	movw	r24, r6
    2bc8:	b2 01       	movw	r22, r4
    2bca:	0e 94 72 10 	call	0x20e4	; 0x20e4 <Find_Next_Clus>
    2bce:	2b 01       	movw	r4, r22
    2bd0:	3c 01       	movw	r6, r24
							LEDS_Off(LED3_port, LED3_pin);
    2bd2:	60 e8       	ldi	r22, 0x80	; 128
    2bd4:	80 e2       	ldi	r24, 0x20	; 32
    2bd6:	90 e0       	ldi	r25, 0x00	; 0
    2bd8:	0e 94 eb 10 	call	0x21d6	; 0x21d6 <LEDS_Off>
							sector = First_Sector(Start_Cluster);
    2bdc:	c3 01       	movw	r24, r6
    2bde:	b2 01       	movw	r22, r4
    2be0:	0e 94 48 10 	call	0x2090	; 0x2090 <First_Sector>
    2be4:	4b 01       	movw	r8, r22
    2be6:	5c 01       	movw	r10, r24
							// Reset offset
							sector_offset = 0;
    2be8:	c1 2c       	mov	r12, r1
    2bea:	d1 2c       	mov	r13, r1
    2bec:	76 01       	movw	r14, r12
						}
						
						// Fill buffer2
						Read_Sector(sector+sector_offset, 512, buffer2_g);
    2bee:	c5 01       	movw	r24, r10
    2bf0:	b4 01       	movw	r22, r8
    2bf2:	6c 0d       	add	r22, r12
    2bf4:	7d 1d       	adc	r23, r13
    2bf6:	8e 1d       	adc	r24, r14
    2bf8:	9f 1d       	adc	r25, r15
    2bfa:	23 e8       	ldi	r18, 0x83	; 131
    2bfc:	34 e0       	ldi	r19, 0x04	; 4
    2bfe:	40 e0       	ldi	r20, 0x00	; 0
    2c00:	52 e0       	ldi	r21, 0x02	; 2
    2c02:	0e 94 63 17 	call	0x2ec6	; 0x2ec6 <Read_Sector>
						sector_offset++;
    2c06:	ff ef       	ldi	r31, 0xFF	; 255
    2c08:	cf 1a       	sub	r12, r31
    2c0a:	df 0a       	sbc	r13, r31
    2c0c:	ef 0a       	sbc	r14, r31
    2c0e:	ff 0a       	sbc	r15, r31
						
						LEDS_Off(LED2_port,LED2_pin);
    2c10:	60 e1       	ldi	r22, 0x10	; 16
    2c12:	8c e2       	ldi	r24, 0x2C	; 44
    2c14:	90 e0       	ldi	r25, 0x00	; 0
    2c16:	0e 94 eb 10 	call	0x21d6	; 0x21d6 <LEDS_Off>
					}
					buf_flag1=0;
					buf_flag2=1;
    2c1a:	21 e0       	ldi	r18, 0x01	; 1
    2c1c:	2a 83       	std	Y+2, r18	; 0x02
						Read_Sector(sector+sector_offset, 512, buffer2_g);
						sector_offset++;
						
						LEDS_Off(LED2_port,LED2_pin);
					}
					buf_flag1=0;
    2c1e:	19 82       	std	Y+1, r1	; 0x01
				{
					if(index2>511)
					{
						//BIT_EN=0;
						LEDS_On(LED2_port,LED2_pin);
						index2=0;
    2c20:	00 e0       	ldi	r16, 0x00	; 0
    2c22:	10 e0       	ldi	r17, 0x00	; 0
    2c24:	55 c0       	rjmp	.+170    	; 0x2cd0 <Play_Song+0x30e>

				}
			}
			else
			{
				if(index2>511)
    2c26:	01 15       	cp	r16, r1
    2c28:	82 e0       	ldi	r24, 0x02	; 2
    2c2a:	18 07       	cpc	r17, r24
    2c2c:	08 f4       	brcc	.+2      	; 0x2c30 <Play_Song+0x26e>
    2c2e:	43 c0       	rjmp	.+134    	; 0x2cb6 <Play_Song+0x2f4>
				{
					//BIT_EN=0;
					LEDS_On(LED2_port,LED2_pin);
    2c30:	60 e1       	ldi	r22, 0x10	; 16
    2c32:	8c e2       	ldi	r24, 0x2C	; 44
    2c34:	90 e0       	ldi	r25, 0x00	; 0
    2c36:	0e 94 ee 10 	call	0x21dc	; 0x21dc <LEDS_On>
					index2=0;
					
					// If end of sector reached, get next cluster
					if (sector_offset >= (Drive_p->SecPerClus)){
    2c3a:	f1 01       	movw	r30, r2
    2c3c:	80 81       	ld	r24, Z
    2c3e:	90 e0       	ldi	r25, 0x00	; 0
    2c40:	a0 e0       	ldi	r26, 0x00	; 0
    2c42:	b0 e0       	ldi	r27, 0x00	; 0
    2c44:	c8 16       	cp	r12, r24
    2c46:	d9 06       	cpc	r13, r25
    2c48:	ea 06       	cpc	r14, r26
    2c4a:	fb 06       	cpc	r15, r27
    2c4c:	d8 f0       	brcs	.+54     	; 0x2c84 <Play_Song+0x2c2>
						// LED for debugging
						LEDS_On(LED3_port, LED3_pin);
    2c4e:	60 e8       	ldi	r22, 0x80	; 128
    2c50:	80 e2       	ldi	r24, 0x20	; 32
    2c52:	90 e0       	ldi	r25, 0x00	; 0
    2c54:	0e 94 ee 10 	call	0x21dc	; 0x21dc <LEDS_On>
						Start_Cluster = Find_Next_Clus(Start_Cluster, buffer2_g);
    2c58:	43 e8       	ldi	r20, 0x83	; 131
    2c5a:	54 e0       	ldi	r21, 0x04	; 4
    2c5c:	c3 01       	movw	r24, r6
    2c5e:	b2 01       	movw	r22, r4
    2c60:	0e 94 72 10 	call	0x20e4	; 0x20e4 <Find_Next_Clus>
    2c64:	2b 01       	movw	r4, r22
    2c66:	3c 01       	movw	r6, r24
						LEDS_Off(LED3_port, LED3_pin);
    2c68:	60 e8       	ldi	r22, 0x80	; 128
    2c6a:	80 e2       	ldi	r24, 0x20	; 32
    2c6c:	90 e0       	ldi	r25, 0x00	; 0
    2c6e:	0e 94 eb 10 	call	0x21d6	; 0x21d6 <LEDS_Off>
						sector = First_Sector(Start_Cluster);
    2c72:	c3 01       	movw	r24, r6
    2c74:	b2 01       	movw	r22, r4
    2c76:	0e 94 48 10 	call	0x2090	; 0x2090 <First_Sector>
    2c7a:	4b 01       	movw	r8, r22
    2c7c:	5c 01       	movw	r10, r24
						// Reset offset
						sector_offset = 0;
    2c7e:	c1 2c       	mov	r12, r1
    2c80:	d1 2c       	mov	r13, r1
    2c82:	76 01       	movw	r14, r12
					}
					
					// Fill buffer2
					Read_Sector(sector+sector_offset, 512, buffer2_g);
    2c84:	c5 01       	movw	r24, r10
    2c86:	b4 01       	movw	r22, r8
    2c88:	6c 0d       	add	r22, r12
    2c8a:	7d 1d       	adc	r23, r13
    2c8c:	8e 1d       	adc	r24, r14
    2c8e:	9f 1d       	adc	r25, r15
    2c90:	23 e8       	ldi	r18, 0x83	; 131
    2c92:	34 e0       	ldi	r19, 0x04	; 4
    2c94:	40 e0       	ldi	r20, 0x00	; 0
    2c96:	52 e0       	ldi	r21, 0x02	; 2
    2c98:	0e 94 63 17 	call	0x2ec6	; 0x2ec6 <Read_Sector>
					sector_offset++;
    2c9c:	ff ef       	ldi	r31, 0xFF	; 255
    2c9e:	cf 1a       	sub	r12, r31
    2ca0:	df 0a       	sbc	r13, r31
    2ca2:	ef 0a       	sbc	r14, r31
    2ca4:	ff 0a       	sbc	r15, r31
					
					LEDS_Off(LED2_port,LED2_pin);
    2ca6:	60 e1       	ldi	r22, 0x10	; 16
    2ca8:	8c e2       	ldi	r24, 0x2C	; 44
    2caa:	90 e0       	ldi	r25, 0x00	; 0
    2cac:	0e 94 eb 10 	call	0x21d6	; 0x21d6 <LEDS_Off>
			{
				if(index2>511)
				{
					//BIT_EN=0;
					LEDS_On(LED2_port,LED2_pin);
					index2=0;
    2cb0:	00 e0       	ldi	r16, 0x00	; 0
    2cb2:	10 e0       	ldi	r17, 0x00	; 0
    2cb4:	0d c0       	rjmp	.+26     	; 0x2cd0 <Play_Song+0x30e>
					
					LEDS_Off(LED2_port,LED2_pin);
				}
				else
				{
					if(index1>511)
    2cb6:	8b 81       	ldd	r24, Y+3	; 0x03
    2cb8:	9c 81       	ldd	r25, Y+4	; 0x04
    2cba:	81 15       	cp	r24, r1
    2cbc:	92 40       	sbci	r25, 0x02	; 2
    2cbe:	28 f4       	brcc	.+10     	; 0x2cca <Play_Song+0x308>
    2cc0:	07 c0       	rjmp	.+14     	; 0x2cd0 <Play_Song+0x30e>
						sector_offset++;
						
						LEDS_Off(LED2_port,LED2_pin);
					}
					buf_flag1=0;
					buf_flag2=1;
    2cc2:	f1 e0       	ldi	r31, 0x01	; 1
    2cc4:	fa 83       	std	Y+2, r31	; 0x02
						Read_Sector(sector+sector_offset, 512, buffer2_g);
						sector_offset++;
						
						LEDS_Off(LED2_port,LED2_pin);
					}
					buf_flag1=0;
    2cc6:	19 82       	std	Y+1, r1	; 0x01
    2cc8:	03 c0       	rjmp	.+6      	; 0x2cd0 <Play_Song+0x30e>
				else
				{
					if(index1>511)
					{
						buf_flag1=0;
						buf_flag2=1;
    2cca:	21 e0       	ldi	r18, 0x01	; 1
    2ccc:	2a 83       	std	Y+2, r18	; 0x02
				}
				else
				{
					if(index1>511)
					{
						buf_flag1=0;
    2cce:	19 82       	std	Y+1, r1	; 0x01
						buf_flag2=1;
					}
				}
			}
		}while(buf_flag1==1);
    2cd0:	89 81       	ldd	r24, Y+1	; 0x01
    2cd2:	81 30       	cpi	r24, 0x01	; 1
    2cd4:	09 f4       	brne	.+2      	; 0x2cd8 <Play_Song+0x316>
    2cd6:	39 cf       	rjmp	.-398    	; 0x2b4a <Play_Song+0x188>
		do
		{
			temp8=GPIO_Read_Pin(STA013_DATAREQ_Port,STA013_DATAREQ_Pin);
    2cd8:	60 e4       	ldi	r22, 0x40	; 64
    2cda:	86 e2       	ldi	r24, 0x26	; 38
    2cdc:	90 e0       	ldi	r25, 0x00	; 0
    2cde:	0e 94 5b 17 	call	0x2eb6	; 0x2eb6 <GPIO_Read_Pin>
			if(temp8==0)
    2ce2:	81 11       	cpse	r24, r1
    2ce4:	65 c0       	rjmp	.+202    	; 0x2db0 <Play_Song+0x3ee>
			{
				//REDLED=ON;
				GPIO_Output_Set(STA013_BITEN_Port,STA013_BITEN_Pin);
    2ce6:	60 e4       	ldi	r22, 0x40	; 64
    2ce8:	89 e2       	ldi	r24, 0x29	; 41
    2cea:	90 e0       	ldi	r25, 0x00	; 0
    2cec:	0e 94 dd 10 	call	0x21ba	; 0x21ba <GPIO_Output_Set>
				SPI_Transmit(STA013_SPI_Port,buffer2_g[index2]);
    2cf0:	f8 01       	movw	r30, r16
    2cf2:	ed 57       	subi	r30, 0x7D	; 125
    2cf4:	fb 4f       	sbci	r31, 0xFB	; 251
    2cf6:	60 81       	ld	r22, Z
    2cf8:	8c e4       	ldi	r24, 0x4C	; 76
    2cfa:	90 e0       	ldi	r25, 0x00	; 0
    2cfc:	0e 94 60 1d 	call	0x3ac0	; 0x3ac0 <SPI_Transmit>
				GPIO_Output_Clear(STA013_BITEN_Port,STA013_BITEN_Pin);
    2d00:	60 e4       	ldi	r22, 0x40	; 64
    2d02:	89 e2       	ldi	r24, 0x29	; 41
    2d04:	90 e0       	ldi	r25, 0x00	; 0
    2d06:	0e 94 e2 10 	call	0x21c4	; 0x21c4 <GPIO_Output_Clear>
				//REDLED=OFF;
				index2++;
    2d0a:	0f 5f       	subi	r16, 0xFF	; 255
    2d0c:	1f 4f       	sbci	r17, 0xFF	; 255
				if(index2>511)
    2d0e:	01 15       	cp	r16, r1
    2d10:	92 e0       	ldi	r25, 0x02	; 2
    2d12:	19 07       	cpc	r17, r25
    2d14:	08 f4       	brcc	.+2      	; 0x2d18 <Play_Song+0x356>
    2d16:	a1 c0       	rjmp	.+322    	; 0x2e5a <Play_Song+0x498>
				{
					if(index1>511)
    2d18:	eb 81       	ldd	r30, Y+3	; 0x03
    2d1a:	fc 81       	ldd	r31, Y+4	; 0x04
    2d1c:	e1 15       	cp	r30, r1
    2d1e:	f2 40       	sbci	r31, 0x02	; 2
    2d20:	08 f4       	brcc	.+2      	; 0x2d24 <Play_Song+0x362>
    2d22:	94 c0       	rjmp	.+296    	; 0x2e4c <Play_Song+0x48a>
					{
						//BIT_EN=0;
						LEDS_On(LED1_port,LED1_pin);
    2d24:	68 e0       	ldi	r22, 0x08	; 8
    2d26:	83 e2       	ldi	r24, 0x23	; 35
    2d28:	90 e0       	ldi	r25, 0x00	; 0
    2d2a:	0e 94 ee 10 	call	0x21dc	; 0x21dc <LEDS_On>
						index1=0;
						
						// If end of sector reached, get next cluster
						if (sector_offset >= (Drive_p->SecPerClus)){
    2d2e:	f1 01       	movw	r30, r2
    2d30:	80 81       	ld	r24, Z
    2d32:	90 e0       	ldi	r25, 0x00	; 0
    2d34:	a0 e0       	ldi	r26, 0x00	; 0
    2d36:	b0 e0       	ldi	r27, 0x00	; 0
    2d38:	c8 16       	cp	r12, r24
    2d3a:	d9 06       	cpc	r13, r25
    2d3c:	ea 06       	cpc	r14, r26
    2d3e:	fb 06       	cpc	r15, r27
    2d40:	d8 f0       	brcs	.+54     	; 0x2d78 <Play_Song+0x3b6>
							// LED for debugging
							LEDS_On(LED3_port, LED3_pin);
    2d42:	60 e8       	ldi	r22, 0x80	; 128
    2d44:	80 e2       	ldi	r24, 0x20	; 32
    2d46:	90 e0       	ldi	r25, 0x00	; 0
    2d48:	0e 94 ee 10 	call	0x21dc	; 0x21dc <LEDS_On>
							Start_Cluster = Find_Next_Clus(Start_Cluster, buffer1_g);
    2d4c:	43 e8       	ldi	r20, 0x83	; 131
    2d4e:	52 e0       	ldi	r21, 0x02	; 2
    2d50:	c3 01       	movw	r24, r6
    2d52:	b2 01       	movw	r22, r4
    2d54:	0e 94 72 10 	call	0x20e4	; 0x20e4 <Find_Next_Clus>
    2d58:	2b 01       	movw	r4, r22
    2d5a:	3c 01       	movw	r6, r24
							LEDS_Off(LED3_port, LED3_pin);
    2d5c:	60 e8       	ldi	r22, 0x80	; 128
    2d5e:	80 e2       	ldi	r24, 0x20	; 32
    2d60:	90 e0       	ldi	r25, 0x00	; 0
    2d62:	0e 94 eb 10 	call	0x21d6	; 0x21d6 <LEDS_Off>
							sector = First_Sector(Start_Cluster);
    2d66:	c3 01       	movw	r24, r6
    2d68:	b2 01       	movw	r22, r4
    2d6a:	0e 94 48 10 	call	0x2090	; 0x2090 <First_Sector>
    2d6e:	4b 01       	movw	r8, r22
    2d70:	5c 01       	movw	r10, r24
							// Reset offset
							sector_offset = 0;
    2d72:	c1 2c       	mov	r12, r1
    2d74:	d1 2c       	mov	r13, r1
    2d76:	76 01       	movw	r14, r12
						}

						// Fill buffer1
						Read_Sector(sector+sector_offset, 512, buffer1_g);
    2d78:	c5 01       	movw	r24, r10
    2d7a:	b4 01       	movw	r22, r8
    2d7c:	6c 0d       	add	r22, r12
    2d7e:	7d 1d       	adc	r23, r13
    2d80:	8e 1d       	adc	r24, r14
    2d82:	9f 1d       	adc	r25, r15
    2d84:	23 e8       	ldi	r18, 0x83	; 131
    2d86:	32 e0       	ldi	r19, 0x02	; 2
    2d88:	40 e0       	ldi	r20, 0x00	; 0
    2d8a:	52 e0       	ldi	r21, 0x02	; 2
    2d8c:	0e 94 63 17 	call	0x2ec6	; 0x2ec6 <Read_Sector>
						sector_offset++;
    2d90:	ff ef       	ldi	r31, 0xFF	; 255
    2d92:	cf 1a       	sub	r12, r31
    2d94:	df 0a       	sbc	r13, r31
    2d96:	ef 0a       	sbc	r14, r31
    2d98:	ff 0a       	sbc	r15, r31
						
						LEDS_Off(LED1_port,LED1_pin);
    2d9a:	68 e0       	ldi	r22, 0x08	; 8
    2d9c:	83 e2       	ldi	r24, 0x23	; 35
    2d9e:	90 e0       	ldi	r25, 0x00	; 0
    2da0:	0e 94 eb 10 	call	0x21d6	; 0x21d6 <LEDS_Off>
					}
					buf_flag2=0;
    2da4:	1a 82       	std	Y+2, r1	; 0x02
					buf_flag1=1;
    2da6:	21 e0       	ldi	r18, 0x01	; 1
    2da8:	29 83       	std	Y+1, r18	; 0x01
				{
					if(index1>511)
					{
						//BIT_EN=0;
						LEDS_On(LED1_port,LED1_pin);
						index1=0;
    2daa:	1c 82       	std	Y+4, r1	; 0x04
    2dac:	1b 82       	std	Y+3, r1	; 0x03
    2dae:	55 c0       	rjmp	.+170    	; 0x2e5a <Play_Song+0x498>
					
				}
			}
			else
			{
				if(index1>511)
    2db0:	8b 81       	ldd	r24, Y+3	; 0x03
    2db2:	9c 81       	ldd	r25, Y+4	; 0x04
    2db4:	81 15       	cp	r24, r1
    2db6:	92 40       	sbci	r25, 0x02	; 2
    2db8:	08 f4       	brcc	.+2      	; 0x2dbc <Play_Song+0x3fa>
    2dba:	43 c0       	rjmp	.+134    	; 0x2e42 <Play_Song+0x480>
				{
					//BIT_EN=0;
					LEDS_On(LED1_port,LED1_pin);
    2dbc:	68 e0       	ldi	r22, 0x08	; 8
    2dbe:	83 e2       	ldi	r24, 0x23	; 35
    2dc0:	90 e0       	ldi	r25, 0x00	; 0
    2dc2:	0e 94 ee 10 	call	0x21dc	; 0x21dc <LEDS_On>
					index1=0;
					
					// If end of sector reached, get next cluster
					if (sector_offset >= (Drive_p->SecPerClus)){
    2dc6:	f1 01       	movw	r30, r2
    2dc8:	80 81       	ld	r24, Z
    2dca:	90 e0       	ldi	r25, 0x00	; 0
    2dcc:	a0 e0       	ldi	r26, 0x00	; 0
    2dce:	b0 e0       	ldi	r27, 0x00	; 0
    2dd0:	c8 16       	cp	r12, r24
    2dd2:	d9 06       	cpc	r13, r25
    2dd4:	ea 06       	cpc	r14, r26
    2dd6:	fb 06       	cpc	r15, r27
    2dd8:	d8 f0       	brcs	.+54     	; 0x2e10 <Play_Song+0x44e>
						// LED for debugging
						LEDS_On(LED3_port, LED3_pin);
    2dda:	60 e8       	ldi	r22, 0x80	; 128
    2ddc:	80 e2       	ldi	r24, 0x20	; 32
    2dde:	90 e0       	ldi	r25, 0x00	; 0
    2de0:	0e 94 ee 10 	call	0x21dc	; 0x21dc <LEDS_On>
						Start_Cluster = Find_Next_Clus(Start_Cluster, buffer1_g);
    2de4:	43 e8       	ldi	r20, 0x83	; 131
    2de6:	52 e0       	ldi	r21, 0x02	; 2
    2de8:	c3 01       	movw	r24, r6
    2dea:	b2 01       	movw	r22, r4
    2dec:	0e 94 72 10 	call	0x20e4	; 0x20e4 <Find_Next_Clus>
    2df0:	2b 01       	movw	r4, r22
    2df2:	3c 01       	movw	r6, r24
						LEDS_Off(LED3_port, LED3_pin);
    2df4:	60 e8       	ldi	r22, 0x80	; 128
    2df6:	80 e2       	ldi	r24, 0x20	; 32
    2df8:	90 e0       	ldi	r25, 0x00	; 0
    2dfa:	0e 94 eb 10 	call	0x21d6	; 0x21d6 <LEDS_Off>
						sector = First_Sector(Start_Cluster);
    2dfe:	c3 01       	movw	r24, r6
    2e00:	b2 01       	movw	r22, r4
    2e02:	0e 94 48 10 	call	0x2090	; 0x2090 <First_Sector>
    2e06:	4b 01       	movw	r8, r22
    2e08:	5c 01       	movw	r10, r24
						// Reset offset
						sector_offset = 0;
    2e0a:	c1 2c       	mov	r12, r1
    2e0c:	d1 2c       	mov	r13, r1
    2e0e:	76 01       	movw	r14, r12
					}

					// Fill buffer1
					Read_Sector(sector+sector_offset, 512, buffer1_g);
    2e10:	c5 01       	movw	r24, r10
    2e12:	b4 01       	movw	r22, r8
    2e14:	6c 0d       	add	r22, r12
    2e16:	7d 1d       	adc	r23, r13
    2e18:	8e 1d       	adc	r24, r14
    2e1a:	9f 1d       	adc	r25, r15
    2e1c:	23 e8       	ldi	r18, 0x83	; 131
    2e1e:	32 e0       	ldi	r19, 0x02	; 2
    2e20:	40 e0       	ldi	r20, 0x00	; 0
    2e22:	52 e0       	ldi	r21, 0x02	; 2
    2e24:	0e 94 63 17 	call	0x2ec6	; 0x2ec6 <Read_Sector>
					sector_offset++;
    2e28:	ff ef       	ldi	r31, 0xFF	; 255
    2e2a:	cf 1a       	sub	r12, r31
    2e2c:	df 0a       	sbc	r13, r31
    2e2e:	ef 0a       	sbc	r14, r31
    2e30:	ff 0a       	sbc	r15, r31
					
					LEDS_Off(LED1_port,LED1_pin);
    2e32:	68 e0       	ldi	r22, 0x08	; 8
    2e34:	83 e2       	ldi	r24, 0x23	; 35
    2e36:	90 e0       	ldi	r25, 0x00	; 0
    2e38:	0e 94 eb 10 	call	0x21d6	; 0x21d6 <LEDS_Off>
			{
				if(index1>511)
				{
					//BIT_EN=0;
					LEDS_On(LED1_port,LED1_pin);
					index1=0;
    2e3c:	1c 82       	std	Y+4, r1	; 0x04
    2e3e:	1b 82       	std	Y+3, r1	; 0x03
    2e40:	0c c0       	rjmp	.+24     	; 0x2e5a <Play_Song+0x498>
					
					LEDS_Off(LED1_port,LED1_pin);
				}
				else
				{
					if(index2>511)
    2e42:	01 15       	cp	r16, r1
    2e44:	22 e0       	ldi	r18, 0x02	; 2
    2e46:	12 07       	cpc	r17, r18
    2e48:	28 f4       	brcc	.+10     	; 0x2e54 <Play_Song+0x492>
    2e4a:	07 c0       	rjmp	.+14     	; 0x2e5a <Play_Song+0x498>
						Read_Sector(sector+sector_offset, 512, buffer1_g);
						sector_offset++;
						
						LEDS_Off(LED1_port,LED1_pin);
					}
					buf_flag2=0;
    2e4c:	1a 82       	std	Y+2, r1	; 0x02
					buf_flag1=1;
    2e4e:	81 e0       	ldi	r24, 0x01	; 1
    2e50:	89 83       	std	Y+1, r24	; 0x01
    2e52:	03 c0       	rjmp	.+6      	; 0x2e5a <Play_Song+0x498>
				}
				else
				{
					if(index2>511)
					{
						buf_flag2=0;
    2e54:	1a 82       	std	Y+2, r1	; 0x02
						buf_flag1=1;
    2e56:	91 e0       	ldi	r25, 0x01	; 1
    2e58:	99 83       	std	Y+1, r25	; 0x01
					}
				}
			}
		}while(buf_flag2==1);
    2e5a:	ea 81       	ldd	r30, Y+2	; 0x02
    2e5c:	e1 30       	cpi	r30, 0x01	; 1
    2e5e:	09 f4       	brne	.+2      	; 0x2e62 <Play_Song+0x4a0>
    2e60:	3b cf       	rjmp	.-394    	; 0x2cd8 <Play_Song+0x316>
	}while(Start_Cluster != 0x0FFFFFFF); // Look for end of file (0x0FFFFFFF) to stop
    2e62:	ff ef       	ldi	r31, 0xFF	; 255
    2e64:	4f 16       	cp	r4, r31
    2e66:	5f 06       	cpc	r5, r31
    2e68:	6f 06       	cpc	r6, r31
    2e6a:	ff e0       	ldi	r31, 0x0F	; 15
    2e6c:	7f 06       	cpc	r7, r31
    2e6e:	09 f0       	breq	.+2      	; 0x2e72 <Play_Song+0x4b0>
    2e70:	6c ce       	rjmp	.-808    	; 0x2b4a <Play_Song+0x188>
}
    2e72:	0f 90       	pop	r0
    2e74:	0f 90       	pop	r0
    2e76:	0f 90       	pop	r0
    2e78:	0f 90       	pop	r0
    2e7a:	df 91       	pop	r29
    2e7c:	cf 91       	pop	r28
    2e7e:	1f 91       	pop	r17
    2e80:	0f 91       	pop	r16
    2e82:	ff 90       	pop	r15
    2e84:	ef 90       	pop	r14
    2e86:	df 90       	pop	r13
    2e88:	cf 90       	pop	r12
    2e8a:	bf 90       	pop	r11
    2e8c:	af 90       	pop	r10
    2e8e:	9f 90       	pop	r9
    2e90:	8f 90       	pop	r8
    2e92:	7f 90       	pop	r7
    2e94:	6f 90       	pop	r6
    2e96:	5f 90       	pop	r5
    2e98:	4f 90       	pop	r4
    2e9a:	3f 90       	pop	r3
    2e9c:	2f 90       	pop	r2
    2e9e:	08 95       	ret

00002ea0 <GPIO_Input_Init>:
    2ea0:	fc 01       	movw	r30, r24
    2ea2:	91 81       	ldd	r25, Z+1	; 0x01
    2ea4:	60 95       	com	r22
    2ea6:	69 23       	and	r22, r25
    2ea8:	61 83       	std	Z+1, r22	; 0x01
    2eaa:	08 95       	ret

00002eac <GPIO_Pull_Up_Enable>:
    2eac:	fc 01       	movw	r30, r24
    2eae:	22 81       	ldd	r18, Z+2	; 0x02
    2eb0:	62 2b       	or	r22, r18
    2eb2:	62 83       	std	Z+2, r22	; 0x02
    2eb4:	08 95       	ret

00002eb6 <GPIO_Read_Pin>:
    2eb6:	fc 01       	movw	r30, r24
    2eb8:	80 81       	ld	r24, Z
    2eba:	68 23       	and	r22, r24
    2ebc:	11 f4       	brne	.+4      	; 0x2ec2 <GPIO_Read_Pin+0xc>
    2ebe:	80 e0       	ldi	r24, 0x00	; 0
    2ec0:	08 95       	ret
    2ec2:	81 e0       	ldi	r24, 0x01	; 1
    2ec4:	08 95       	ret

00002ec6 <Read_Sector>:
    2ec6:	af 92       	push	r10
    2ec8:	bf 92       	push	r11
    2eca:	cf 92       	push	r12
    2ecc:	df 92       	push	r13
    2ece:	ef 92       	push	r14
    2ed0:	ff 92       	push	r15
    2ed2:	0f 93       	push	r16
    2ed4:	1f 93       	push	r17
    2ed6:	cf 93       	push	r28
    2ed8:	6b 01       	movw	r12, r22
    2eda:	7c 01       	movw	r14, r24
    2edc:	8a 01       	movw	r16, r20
    2ede:	59 01       	movw	r10, r18
    2ee0:	0e 94 ec 1c 	call	0x39d8	; 0x39d8 <Return_SD_Card_Type>
    2ee4:	c8 2f       	mov	r28, r24
    2ee6:	60 e1       	ldi	r22, 0x10	; 16
    2ee8:	83 e2       	ldi	r24, 0x23	; 35
    2eea:	90 e0       	ldi	r25, 0x00	; 0
    2eec:	0e 94 a1 17 	call	0x2f42	; 0x2f42 <SD_Card_CS_Active>
    2ef0:	b7 01       	movw	r22, r14
    2ef2:	a6 01       	movw	r20, r12
    2ef4:	04 c0       	rjmp	.+8      	; 0x2efe <Read_Sector+0x38>
    2ef6:	44 0f       	add	r20, r20
    2ef8:	55 1f       	adc	r21, r21
    2efa:	66 1f       	adc	r22, r22
    2efc:	77 1f       	adc	r23, r23
    2efe:	ca 95       	dec	r28
    2f00:	d2 f7       	brpl	.-12     	; 0x2ef6 <Read_Sector+0x30>
    2f02:	81 e1       	ldi	r24, 0x11	; 17
    2f04:	0e 94 a7 17 	call	0x2f4e	; 0x2f4e <Send_Command>
    2f08:	c8 2f       	mov	r28, r24
    2f0a:	81 11       	cpse	r24, r1
    2f0c:	05 c0       	rjmp	.+10     	; 0x2f18 <Read_Sector+0x52>
    2f0e:	b5 01       	movw	r22, r10
    2f10:	c8 01       	movw	r24, r16
    2f12:	0e 94 64 18 	call	0x30c8	; 0x30c8 <Read_Block>
    2f16:	c8 2f       	mov	r28, r24
    2f18:	60 e1       	ldi	r22, 0x10	; 16
    2f1a:	83 e2       	ldi	r24, 0x23	; 35
    2f1c:	90 e0       	ldi	r25, 0x00	; 0
    2f1e:	0e 94 a4 17 	call	0x2f48	; 0x2f48 <SD_Card_CS_Inactive>
    2f22:	c1 11       	cpse	r28, r1
    2f24:	c0 ef       	ldi	r28, 0xF0	; 240
    2f26:	8c 2f       	mov	r24, r28
    2f28:	cf 91       	pop	r28
    2f2a:	1f 91       	pop	r17
    2f2c:	0f 91       	pop	r16
    2f2e:	ff 90       	pop	r15
    2f30:	ef 90       	pop	r14
    2f32:	df 90       	pop	r13
    2f34:	cf 90       	pop	r12
    2f36:	bf 90       	pop	r11
    2f38:	af 90       	pop	r10
    2f3a:	08 95       	ret

00002f3c <SD_Card_CS_Init>:
    2f3c:	0e 94 d8 10 	call	0x21b0	; 0x21b0 <GPIO_Output_Init>
    2f40:	08 95       	ret

00002f42 <SD_Card_CS_Active>:
    2f42:	0e 94 e2 10 	call	0x21c4	; 0x21c4 <GPIO_Output_Clear>
    2f46:	08 95       	ret

00002f48 <SD_Card_CS_Inactive>:
    2f48:	0e 94 dd 10 	call	0x21ba	; 0x21ba <GPIO_Output_Set>
    2f4c:	08 95       	ret

00002f4e <Send_Command>:
    2f4e:	cf 92       	push	r12
    2f50:	df 92       	push	r13
    2f52:	ef 92       	push	r14
    2f54:	ff 92       	push	r15
    2f56:	cf 93       	push	r28
    2f58:	df 93       	push	r29
    2f5a:	d8 2f       	mov	r29, r24
    2f5c:	6a 01       	movw	r12, r20
    2f5e:	7b 01       	movw	r14, r22
    2f60:	80 34       	cpi	r24, 0x40	; 64
    2f62:	08 f0       	brcs	.+2      	; 0x2f66 <Send_Command+0x18>
    2f64:	54 c0       	rjmp	.+168    	; 0x300e <Send_Command+0xc0>
    2f66:	68 2f       	mov	r22, r24
    2f68:	60 64       	ori	r22, 0x40	; 64
    2f6a:	8c e4       	ldi	r24, 0x4C	; 76
    2f6c:	90 e0       	ldi	r25, 0x00	; 0
    2f6e:	0e 94 60 1d 	call	0x3ac0	; 0x3ac0 <SPI_Transmit>
    2f72:	81 11       	cpse	r24, r1
    2f74:	0a c0       	rjmp	.+20     	; 0x2f8a <Send_Command+0x3c>
    2f76:	6f 2d       	mov	r22, r15
    2f78:	77 27       	eor	r23, r23
    2f7a:	88 27       	eor	r24, r24
    2f7c:	99 27       	eor	r25, r25
    2f7e:	8c e4       	ldi	r24, 0x4C	; 76
    2f80:	90 e0       	ldi	r25, 0x00	; 0
    2f82:	0e 94 60 1d 	call	0x3ac0	; 0x3ac0 <SPI_Transmit>
    2f86:	c0 e0       	ldi	r28, 0x00	; 0
    2f88:	01 c0       	rjmp	.+2      	; 0x2f8c <Send_Command+0x3e>
    2f8a:	c7 e8       	ldi	r28, 0x87	; 135
    2f8c:	c1 11       	cpse	r28, r1
    2f8e:	0b c0       	rjmp	.+22     	; 0x2fa6 <Send_Command+0x58>
    2f90:	81 11       	cpse	r24, r1
    2f92:	0b c0       	rjmp	.+22     	; 0x2faa <Send_Command+0x5c>
    2f94:	ff 24       	eor	r15, r15
    2f96:	b7 01       	movw	r22, r14
    2f98:	88 27       	eor	r24, r24
    2f9a:	99 27       	eor	r25, r25
    2f9c:	8c e4       	ldi	r24, 0x4C	; 76
    2f9e:	90 e0       	ldi	r25, 0x00	; 0
    2fa0:	0e 94 60 1d 	call	0x3ac0	; 0x3ac0 <SPI_Transmit>
    2fa4:	03 c0       	rjmp	.+6      	; 0x2fac <Send_Command+0x5e>
    2fa6:	c7 e8       	ldi	r28, 0x87	; 135
    2fa8:	01 c0       	rjmp	.+2      	; 0x2fac <Send_Command+0x5e>
    2faa:	c7 e8       	ldi	r28, 0x87	; 135
    2fac:	c1 11       	cpse	r28, r1
    2fae:	0d c0       	rjmp	.+26     	; 0x2fca <Send_Command+0x7c>
    2fb0:	81 11       	cpse	r24, r1
    2fb2:	0d c0       	rjmp	.+26     	; 0x2fce <Send_Command+0x80>
    2fb4:	ee 24       	eor	r14, r14
    2fb6:	ff 24       	eor	r15, r15
    2fb8:	99 27       	eor	r25, r25
    2fba:	8f 2d       	mov	r24, r15
    2fbc:	7e 2d       	mov	r23, r14
    2fbe:	6d 2d       	mov	r22, r13
    2fc0:	8c e4       	ldi	r24, 0x4C	; 76
    2fc2:	90 e0       	ldi	r25, 0x00	; 0
    2fc4:	0e 94 60 1d 	call	0x3ac0	; 0x3ac0 <SPI_Transmit>
    2fc8:	03 c0       	rjmp	.+6      	; 0x2fd0 <Send_Command+0x82>
    2fca:	c7 e8       	ldi	r28, 0x87	; 135
    2fcc:	01 c0       	rjmp	.+2      	; 0x2fd0 <Send_Command+0x82>
    2fce:	c7 e8       	ldi	r28, 0x87	; 135
    2fd0:	c1 11       	cpse	r28, r1
    2fd2:	08 c0       	rjmp	.+16     	; 0x2fe4 <Send_Command+0x96>
    2fd4:	81 11       	cpse	r24, r1
    2fd6:	08 c0       	rjmp	.+16     	; 0x2fe8 <Send_Command+0x9a>
    2fd8:	6c 2d       	mov	r22, r12
    2fda:	8c e4       	ldi	r24, 0x4C	; 76
    2fdc:	90 e0       	ldi	r25, 0x00	; 0
    2fde:	0e 94 60 1d 	call	0x3ac0	; 0x3ac0 <SPI_Transmit>
    2fe2:	03 c0       	rjmp	.+6      	; 0x2fea <Send_Command+0x9c>
    2fe4:	c7 e8       	ldi	r28, 0x87	; 135
    2fe6:	01 c0       	rjmp	.+2      	; 0x2fea <Send_Command+0x9c>
    2fe8:	c7 e8       	ldi	r28, 0x87	; 135
    2fea:	c1 11       	cpse	r28, r1
    2fec:	11 c0       	rjmp	.+34     	; 0x3010 <Send_Command+0xc2>
    2fee:	81 11       	cpse	r24, r1
    2ff0:	0f c0       	rjmp	.+30     	; 0x3010 <Send_Command+0xc2>
    2ff2:	dd 23       	and	r29, r29
    2ff4:	21 f0       	breq	.+8      	; 0x2ffe <Send_Command+0xb0>
    2ff6:	d8 30       	cpi	r29, 0x08	; 8
    2ff8:	21 f4       	brne	.+8      	; 0x3002 <Send_Command+0xb4>
    2ffa:	67 e8       	ldi	r22, 0x87	; 135
    2ffc:	03 c0       	rjmp	.+6      	; 0x3004 <Send_Command+0xb6>
    2ffe:	65 e9       	ldi	r22, 0x95	; 149
    3000:	01 c0       	rjmp	.+2      	; 0x3004 <Send_Command+0xb6>
    3002:	61 e0       	ldi	r22, 0x01	; 1
    3004:	8c e4       	ldi	r24, 0x4C	; 76
    3006:	90 e0       	ldi	r25, 0x00	; 0
    3008:	0e 94 60 1d 	call	0x3ac0	; 0x3ac0 <SPI_Transmit>
    300c:	01 c0       	rjmp	.+2      	; 0x3010 <Send_Command+0xc2>
    300e:	c2 e8       	ldi	r28, 0x82	; 130
    3010:	8c 2f       	mov	r24, r28
    3012:	df 91       	pop	r29
    3014:	cf 91       	pop	r28
    3016:	ff 90       	pop	r15
    3018:	ef 90       	pop	r14
    301a:	df 90       	pop	r13
    301c:	cf 90       	pop	r12
    301e:	08 95       	ret

00003020 <Receive_Response>:
    3020:	df 92       	push	r13
    3022:	ef 92       	push	r14
    3024:	ff 92       	push	r15
    3026:	0f 93       	push	r16
    3028:	1f 93       	push	r17
    302a:	cf 93       	push	r28
    302c:	df 93       	push	r29
    302e:	1f 92       	push	r1
    3030:	cd b7       	in	r28, 0x3d	; 61
    3032:	de b7       	in	r29, 0x3e	; 62
    3034:	d8 2e       	mov	r13, r24
    3036:	7b 01       	movw	r14, r22
    3038:	10 e0       	ldi	r17, 0x00	; 0
    303a:	be 01       	movw	r22, r28
    303c:	6f 5f       	subi	r22, 0xFF	; 255
    303e:	7f 4f       	sbci	r23, 0xFF	; 255
    3040:	8c e4       	ldi	r24, 0x4C	; 76
    3042:	90 e0       	ldi	r25, 0x00	; 0
    3044:	0e 94 73 1d 	call	0x3ae6	; 0x3ae6 <SPI_Receive>
    3048:	08 2f       	mov	r16, r24
    304a:	1f 5f       	subi	r17, 0xFF	; 255
    304c:	89 81       	ldd	r24, Y+1	; 0x01
    304e:	88 23       	and	r24, r24
    3050:	24 f0       	brlt	.+8      	; 0x305a <Receive_Response+0x3a>
    3052:	98 2f       	mov	r25, r24
    3054:	9f 70       	andi	r25, 0x0F	; 15
    3056:	9f 30       	cpi	r25, 0x0F	; 15
    3058:	21 f4       	brne	.+8      	; 0x3062 <Receive_Response+0x42>
    305a:	11 23       	and	r17, r17
    305c:	11 f0       	breq	.+4      	; 0x3062 <Receive_Response+0x42>
    305e:	00 23       	and	r16, r16
    3060:	61 f3       	breq	.-40     	; 0x303a <Receive_Response+0x1a>
    3062:	01 11       	cpse	r16, r1
    3064:	20 c0       	rjmp	.+64     	; 0x30a6 <Receive_Response+0x86>
    3066:	11 23       	and	r17, r17
    3068:	d9 f0       	breq	.+54     	; 0x30a0 <Receive_Response+0x80>
    306a:	f7 01       	movw	r30, r14
    306c:	80 83       	st	Z, r24
    306e:	89 81       	ldd	r24, Y+1	; 0x01
    3070:	82 30       	cpi	r24, 0x02	; 2
    3072:	c0 f4       	brcc	.+48     	; 0x30a4 <Receive_Response+0x84>
    3074:	f1 e0       	ldi	r31, 0x01	; 1
    3076:	fd 15       	cp	r31, r13
    3078:	78 f0       	brcs	.+30     	; 0x3098 <Receive_Response+0x78>
    307a:	15 c0       	rjmp	.+42     	; 0x30a6 <Receive_Response+0x86>
    307c:	be 01       	movw	r22, r28
    307e:	6f 5f       	subi	r22, 0xFF	; 255
    3080:	7f 4f       	sbci	r23, 0xFF	; 255
    3082:	8c e4       	ldi	r24, 0x4C	; 76
    3084:	90 e0       	ldi	r25, 0x00	; 0
    3086:	0e 94 73 1d 	call	0x3ae6	; 0x3ae6 <SPI_Receive>
    308a:	f7 01       	movw	r30, r14
    308c:	e1 0f       	add	r30, r17
    308e:	f1 1d       	adc	r31, r1
    3090:	89 81       	ldd	r24, Y+1	; 0x01
    3092:	80 83       	st	Z, r24
    3094:	1f 5f       	subi	r17, 0xFF	; 255
    3096:	01 c0       	rjmp	.+2      	; 0x309a <Receive_Response+0x7a>
    3098:	11 e0       	ldi	r17, 0x01	; 1
    309a:	1d 15       	cp	r17, r13
    309c:	78 f3       	brcs	.-34     	; 0x307c <Receive_Response+0x5c>
    309e:	03 c0       	rjmp	.+6      	; 0x30a6 <Receive_Response+0x86>
    30a0:	01 e8       	ldi	r16, 0x81	; 129
    30a2:	01 c0       	rjmp	.+2      	; 0x30a6 <Receive_Response+0x86>
    30a4:	03 e8       	ldi	r16, 0x83	; 131
    30a6:	be 01       	movw	r22, r28
    30a8:	6f 5f       	subi	r22, 0xFF	; 255
    30aa:	7f 4f       	sbci	r23, 0xFF	; 255
    30ac:	8c e4       	ldi	r24, 0x4C	; 76
    30ae:	90 e0       	ldi	r25, 0x00	; 0
    30b0:	0e 94 73 1d 	call	0x3ae6	; 0x3ae6 <SPI_Receive>
    30b4:	80 2f       	mov	r24, r16
    30b6:	0f 90       	pop	r0
    30b8:	df 91       	pop	r29
    30ba:	cf 91       	pop	r28
    30bc:	1f 91       	pop	r17
    30be:	0f 91       	pop	r16
    30c0:	ff 90       	pop	r15
    30c2:	ef 90       	pop	r14
    30c4:	df 90       	pop	r13
    30c6:	08 95       	ret

000030c8 <Read_Block>:
    30c8:	af 92       	push	r10
    30ca:	bf 92       	push	r11
    30cc:	cf 92       	push	r12
    30ce:	df 92       	push	r13
    30d0:	ff 92       	push	r15
    30d2:	0f 93       	push	r16
    30d4:	1f 93       	push	r17
    30d6:	cf 93       	push	r28
    30d8:	df 93       	push	r29
    30da:	1f 92       	push	r1
    30dc:	cd b7       	in	r28, 0x3d	; 61
    30de:	de b7       	in	r29, 0x3e	; 62
    30e0:	6c 01       	movw	r12, r24
    30e2:	5b 01       	movw	r10, r22
    30e4:	00 e0       	ldi	r16, 0x00	; 0
    30e6:	10 e0       	ldi	r17, 0x00	; 0
    30e8:	be 01       	movw	r22, r28
    30ea:	6f 5f       	subi	r22, 0xFF	; 255
    30ec:	7f 4f       	sbci	r23, 0xFF	; 255
    30ee:	8c e4       	ldi	r24, 0x4C	; 76
    30f0:	90 e0       	ldi	r25, 0x00	; 0
    30f2:	0e 94 73 1d 	call	0x3ae6	; 0x3ae6 <SPI_Receive>
    30f6:	f8 2e       	mov	r15, r24
    30f8:	0f 5f       	subi	r16, 0xFF	; 255
    30fa:	1f 4f       	sbci	r17, 0xFF	; 255
    30fc:	89 81       	ldd	r24, Y+1	; 0x01
    30fe:	88 23       	and	r24, r24
    3100:	2c f4       	brge	.+10     	; 0x310c <Read_Block+0x44>
    3102:	01 15       	cp	r16, r1
    3104:	11 05       	cpc	r17, r1
    3106:	11 f0       	breq	.+4      	; 0x310c <Read_Block+0x44>
    3108:	ff 20       	and	r15, r15
    310a:	71 f3       	breq	.-36     	; 0x30e8 <Read_Block+0x20>
    310c:	f1 10       	cpse	r15, r1
    310e:	59 c0       	rjmp	.+178    	; 0x31c2 <Read_Block+0xfa>
    3110:	01 2b       	or	r16, r17
    3112:	09 f4       	brne	.+2      	; 0x3116 <Read_Block+0x4e>
    3114:	43 c0       	rjmp	.+134    	; 0x319c <Read_Block+0xd4>
    3116:	81 11       	cpse	r24, r1
    3118:	46 c0       	rjmp	.+140    	; 0x31a6 <Read_Block+0xde>
    311a:	00 e0       	ldi	r16, 0x00	; 0
    311c:	10 e0       	ldi	r17, 0x00	; 0
    311e:	be 01       	movw	r22, r28
    3120:	6f 5f       	subi	r22, 0xFF	; 255
    3122:	7f 4f       	sbci	r23, 0xFF	; 255
    3124:	8c e4       	ldi	r24, 0x4C	; 76
    3126:	90 e0       	ldi	r25, 0x00	; 0
    3128:	0e 94 73 1d 	call	0x3ae6	; 0x3ae6 <SPI_Receive>
    312c:	0f 5f       	subi	r16, 0xFF	; 255
    312e:	1f 4f       	sbci	r17, 0xFF	; 255
    3130:	99 81       	ldd	r25, Y+1	; 0x01
    3132:	9f 3f       	cpi	r25, 0xFF	; 255
    3134:	29 f4       	brne	.+10     	; 0x3140 <Read_Block+0x78>
    3136:	01 15       	cp	r16, r1
    3138:	11 05       	cpc	r17, r1
    313a:	11 f0       	breq	.+4      	; 0x3140 <Read_Block+0x78>
    313c:	88 23       	and	r24, r24
    313e:	79 f3       	breq	.-34     	; 0x311e <Read_Block+0x56>
    3140:	81 11       	cpse	r24, r1
    3142:	36 c0       	rjmp	.+108    	; 0x31b0 <Read_Block+0xe8>
    3144:	01 2b       	or	r16, r17
    3146:	c9 f1       	breq	.+114    	; 0x31ba <Read_Block+0xf2>
    3148:	9e 3f       	cpi	r25, 0xFE	; 254
    314a:	a1 f0       	breq	.+40     	; 0x3174 <Read_Block+0xac>
    314c:	0f 2e       	mov	r0, r31
    314e:	f4 e8       	ldi	r31, 0x84	; 132
    3150:	ff 2e       	mov	r15, r31
    3152:	f0 2d       	mov	r31, r0
    3154:	36 c0       	rjmp	.+108    	; 0x31c2 <Read_Block+0xfa>
    3156:	be 01       	movw	r22, r28
    3158:	6f 5f       	subi	r22, 0xFF	; 255
    315a:	7f 4f       	sbci	r23, 0xFF	; 255
    315c:	8c e4       	ldi	r24, 0x4C	; 76
    315e:	90 e0       	ldi	r25, 0x00	; 0
    3160:	0e 94 73 1d 	call	0x3ae6	; 0x3ae6 <SPI_Receive>
    3164:	f5 01       	movw	r30, r10
    3166:	e0 0f       	add	r30, r16
    3168:	f1 1f       	adc	r31, r17
    316a:	89 81       	ldd	r24, Y+1	; 0x01
    316c:	80 83       	st	Z, r24
    316e:	0f 5f       	subi	r16, 0xFF	; 255
    3170:	1f 4f       	sbci	r17, 0xFF	; 255
    3172:	02 c0       	rjmp	.+4      	; 0x3178 <Read_Block+0xb0>
    3174:	00 e0       	ldi	r16, 0x00	; 0
    3176:	10 e0       	ldi	r17, 0x00	; 0
    3178:	0c 15       	cp	r16, r12
    317a:	1d 05       	cpc	r17, r13
    317c:	60 f3       	brcs	.-40     	; 0x3156 <Read_Block+0x8e>
    317e:	be 01       	movw	r22, r28
    3180:	6f 5f       	subi	r22, 0xFF	; 255
    3182:	7f 4f       	sbci	r23, 0xFF	; 255
    3184:	8c e4       	ldi	r24, 0x4C	; 76
    3186:	90 e0       	ldi	r25, 0x00	; 0
    3188:	0e 94 73 1d 	call	0x3ae6	; 0x3ae6 <SPI_Receive>
    318c:	be 01       	movw	r22, r28
    318e:	6f 5f       	subi	r22, 0xFF	; 255
    3190:	7f 4f       	sbci	r23, 0xFF	; 255
    3192:	8c e4       	ldi	r24, 0x4C	; 76
    3194:	90 e0       	ldi	r25, 0x00	; 0
    3196:	0e 94 73 1d 	call	0x3ae6	; 0x3ae6 <SPI_Receive>
    319a:	13 c0       	rjmp	.+38     	; 0x31c2 <Read_Block+0xfa>
    319c:	0f 2e       	mov	r0, r31
    319e:	f1 e8       	ldi	r31, 0x81	; 129
    31a0:	ff 2e       	mov	r15, r31
    31a2:	f0 2d       	mov	r31, r0
    31a4:	0e c0       	rjmp	.+28     	; 0x31c2 <Read_Block+0xfa>
    31a6:	0f 2e       	mov	r0, r31
    31a8:	f3 e8       	ldi	r31, 0x83	; 131
    31aa:	ff 2e       	mov	r15, r31
    31ac:	f0 2d       	mov	r31, r0
    31ae:	09 c0       	rjmp	.+18     	; 0x31c2 <Read_Block+0xfa>
    31b0:	0f 2e       	mov	r0, r31
    31b2:	f7 e8       	ldi	r31, 0x87	; 135
    31b4:	ff 2e       	mov	r15, r31
    31b6:	f0 2d       	mov	r31, r0
    31b8:	04 c0       	rjmp	.+8      	; 0x31c2 <Read_Block+0xfa>
    31ba:	0f 2e       	mov	r0, r31
    31bc:	f1 e8       	ldi	r31, 0x81	; 129
    31be:	ff 2e       	mov	r15, r31
    31c0:	f0 2d       	mov	r31, r0
    31c2:	be 01       	movw	r22, r28
    31c4:	6f 5f       	subi	r22, 0xFF	; 255
    31c6:	7f 4f       	sbci	r23, 0xFF	; 255
    31c8:	8c e4       	ldi	r24, 0x4C	; 76
    31ca:	90 e0       	ldi	r25, 0x00	; 0
    31cc:	0e 94 73 1d 	call	0x3ae6	; 0x3ae6 <SPI_Receive>
    31d0:	8f 2d       	mov	r24, r15
    31d2:	0f 90       	pop	r0
    31d4:	df 91       	pop	r29
    31d6:	cf 91       	pop	r28
    31d8:	1f 91       	pop	r17
    31da:	0f 91       	pop	r16
    31dc:	ff 90       	pop	r15
    31de:	df 90       	pop	r13
    31e0:	cf 90       	pop	r12
    31e2:	bf 90       	pop	r11
    31e4:	af 90       	pop	r10
    31e6:	08 95       	ret

000031e8 <SD_Card_Init>:
    31e8:	8f 92       	push	r8
    31ea:	9f 92       	push	r9
    31ec:	af 92       	push	r10
    31ee:	bf 92       	push	r11
    31f0:	cf 92       	push	r12
    31f2:	df 92       	push	r13
    31f4:	ef 92       	push	r14
    31f6:	ff 92       	push	r15
    31f8:	0f 93       	push	r16
    31fa:	1f 93       	push	r17
    31fc:	cf 93       	push	r28
    31fe:	df 93       	push	r29
    3200:	cd b7       	in	r28, 0x3d	; 61
    3202:	de b7       	in	r29, 0x3e	; 62
    3204:	29 97       	sbiw	r28, 0x09	; 9
    3206:	0f b6       	in	r0, 0x3f	; 63
    3208:	f8 94       	cli
    320a:	de bf       	out	0x3e, r29	; 62
    320c:	0f be       	out	0x3f, r0	; 63
    320e:	cd bf       	out	0x3d, r28	; 61
    3210:	0e 94 49 22 	call	0x4492	; 0x4492 <Export_print_buffer>
    3214:	f8 2e       	mov	r15, r24
    3216:	09 2f       	mov	r16, r25
    3218:	8f ef       	ldi	r24, 0xFF	; 255
    321a:	80 93 1c 02 	sts	0x021C, r24	; 0x80021c <__data_end>
    321e:	60 e8       	ldi	r22, 0x80	; 128
    3220:	86 e2       	ldi	r24, 0x26	; 38
    3222:	90 e0       	ldi	r25, 0x00	; 0
    3224:	0e 94 eb 10 	call	0x21d6	; 0x21d6 <LEDS_Off>
    3228:	60 e8       	ldi	r22, 0x80	; 128
    322a:	86 e2       	ldi	r24, 0x26	; 38
    322c:	90 e0       	ldi	r25, 0x00	; 0
    322e:	0e 94 e8 10 	call	0x21d0	; 0x21d0 <LEDS_Init>
    3232:	60 e8       	ldi	r22, 0x80	; 128
    3234:	80 e2       	ldi	r24, 0x20	; 32
    3236:	90 e0       	ldi	r25, 0x00	; 0
    3238:	0e 94 eb 10 	call	0x21d6	; 0x21d6 <LEDS_Off>
    323c:	60 e8       	ldi	r22, 0x80	; 128
    323e:	80 e2       	ldi	r24, 0x20	; 32
    3240:	90 e0       	ldi	r25, 0x00	; 0
    3242:	0e 94 e8 10 	call	0x21d0	; 0x21d0 <LEDS_Init>
    3246:	60 e1       	ldi	r22, 0x10	; 16
    3248:	83 e2       	ldi	r24, 0x23	; 35
    324a:	90 e0       	ldi	r25, 0x00	; 0
    324c:	0e 94 a4 17 	call	0x2f48	; 0x2f48 <SD_Card_CS_Inactive>
    3250:	60 e1       	ldi	r22, 0x10	; 16
    3252:	83 e2       	ldi	r24, 0x23	; 35
    3254:	90 e0       	ldi	r25, 0x00	; 0
    3256:	0e 94 9e 17 	call	0x2f3c	; 0x2f3c <SD_Card_CS_Init>
    325a:	4f 2d       	mov	r20, r15
    325c:	50 2f       	mov	r21, r16
    325e:	60 e0       	ldi	r22, 0x00	; 0
    3260:	83 e0       	ldi	r24, 0x03	; 3
    3262:	95 e1       	ldi	r25, 0x15	; 21
    3264:	0e 94 4c 22 	call	0x4498	; 0x4498 <Copy_String_to_Buffer>
    3268:	4f 2d       	mov	r20, r15
    326a:	50 2f       	mov	r21, r16
    326c:	60 e0       	ldi	r22, 0x00	; 0
    326e:	88 ec       	ldi	r24, 0xC8	; 200
    3270:	90 e0       	ldi	r25, 0x00	; 0
    3272:	0e 94 72 22 	call	0x44e4	; 0x44e4 <UART_Transmit_String>
    3276:	4f 2d       	mov	r20, r15
    3278:	50 2f       	mov	r21, r16
    327a:	60 e0       	ldi	r22, 0x00	; 0
    327c:	84 ef       	ldi	r24, 0xF4	; 244
    327e:	94 e1       	ldi	r25, 0x14	; 20
    3280:	0e 94 4c 22 	call	0x4498	; 0x4498 <Copy_String_to_Buffer>
    3284:	4f 2d       	mov	r20, r15
    3286:	50 2f       	mov	r21, r16
    3288:	60 e0       	ldi	r22, 0x00	; 0
    328a:	88 ec       	ldi	r24, 0xC8	; 200
    328c:	90 e0       	ldi	r25, 0x00	; 0
    328e:	0e 94 72 22 	call	0x44e4	; 0x44e4 <UART_Transmit_String>
    3292:	c1 2c       	mov	r12, r1
    3294:	d1 2c       	mov	r13, r1
    3296:	60 e1       	ldi	r22, 0x10	; 16
    3298:	83 e2       	ldi	r24, 0x23	; 35
    329a:	90 e0       	ldi	r25, 0x00	; 0
    329c:	0e 94 a4 17 	call	0x2f48	; 0x2f48 <SD_Card_CS_Inactive>
    32a0:	10 e0       	ldi	r17, 0x00	; 0
    32a2:	07 c0       	rjmp	.+14     	; 0x32b2 <SD_Card_Init+0xca>
    32a4:	6f ef       	ldi	r22, 0xFF	; 255
    32a6:	8c e4       	ldi	r24, 0x4C	; 76
    32a8:	90 e0       	ldi	r25, 0x00	; 0
    32aa:	0e 94 60 1d 	call	0x3ac0	; 0x3ac0 <SPI_Transmit>
    32ae:	89 87       	std	Y+9, r24	; 0x09
    32b0:	1f 5f       	subi	r17, 0xFF	; 255
    32b2:	1a 30       	cpi	r17, 0x0A	; 10
    32b4:	b8 f3       	brcs	.-18     	; 0x32a4 <SD_Card_Init+0xbc>
    32b6:	60 e8       	ldi	r22, 0x80	; 128
    32b8:	86 e2       	ldi	r24, 0x26	; 38
    32ba:	90 e0       	ldi	r25, 0x00	; 0
    32bc:	0e 94 ee 10 	call	0x21dc	; 0x21dc <LEDS_On>
    32c0:	60 e1       	ldi	r22, 0x10	; 16
    32c2:	83 e2       	ldi	r24, 0x23	; 35
    32c4:	90 e0       	ldi	r25, 0x00	; 0
    32c6:	0e 94 a1 17 	call	0x2f42	; 0x2f42 <SD_Card_CS_Active>
    32ca:	40 e0       	ldi	r20, 0x00	; 0
    32cc:	50 e0       	ldi	r21, 0x00	; 0
    32ce:	ba 01       	movw	r22, r20
    32d0:	80 e0       	ldi	r24, 0x00	; 0
    32d2:	0e 94 a7 17 	call	0x2f4e	; 0x2f4e <Send_Command>
    32d6:	18 2f       	mov	r17, r24
    32d8:	81 11       	cpse	r24, r1
    32da:	38 c0       	rjmp	.+112    	; 0x334c <SD_Card_Init+0x164>
    32dc:	be 01       	movw	r22, r28
    32de:	6f 5f       	subi	r22, 0xFF	; 255
    32e0:	7f 4f       	sbci	r23, 0xFF	; 255
    32e2:	81 e0       	ldi	r24, 0x01	; 1
    32e4:	0e 94 10 18 	call	0x3020	; 0x3020 <Receive_Response>
    32e8:	18 2f       	mov	r17, r24
    32ea:	60 e1       	ldi	r22, 0x10	; 16
    32ec:	83 e2       	ldi	r24, 0x23	; 35
    32ee:	90 e0       	ldi	r25, 0x00	; 0
    32f0:	0e 94 a4 17 	call	0x2f48	; 0x2f48 <SD_Card_CS_Inactive>
    32f4:	60 e8       	ldi	r22, 0x80	; 128
    32f6:	86 e2       	ldi	r24, 0x26	; 38
    32f8:	90 e0       	ldi	r25, 0x00	; 0
    32fa:	0e 94 eb 10 	call	0x21d6	; 0x21d6 <LEDS_Off>
    32fe:	4f 2d       	mov	r20, r15
    3300:	50 2f       	mov	r21, r16
    3302:	60 e0       	ldi	r22, 0x00	; 0
    3304:	88 ea       	ldi	r24, 0xA8	; 168
    3306:	94 e1       	ldi	r25, 0x14	; 20
    3308:	0e 94 4c 22 	call	0x4498	; 0x4498 <Copy_String_to_Buffer>
    330c:	4f 2d       	mov	r20, r15
    330e:	50 2f       	mov	r21, r16
    3310:	60 e0       	ldi	r22, 0x00	; 0
    3312:	88 ec       	ldi	r24, 0xC8	; 200
    3314:	90 e0       	ldi	r25, 0x00	; 0
    3316:	0e 94 72 22 	call	0x44e4	; 0x44e4 <UART_Transmit_String>
    331a:	89 81       	ldd	r24, Y+1	; 0x01
    331c:	1f 92       	push	r1
    331e:	8f 93       	push	r24
    3320:	89 ed       	ldi	r24, 0xD9	; 217
    3322:	91 e0       	ldi	r25, 0x01	; 1
    3324:	9f 93       	push	r25
    3326:	8f 93       	push	r24
    3328:	0f 93       	push	r16
    332a:	ff 92       	push	r15
    332c:	0e 94 2f 23 	call	0x465e	; 0x465e <sprintf>
    3330:	4f 2d       	mov	r20, r15
    3332:	50 2f       	mov	r21, r16
    3334:	60 e0       	ldi	r22, 0x00	; 0
    3336:	88 ec       	ldi	r24, 0xC8	; 200
    3338:	90 e0       	ldi	r25, 0x00	; 0
    333a:	0e 94 72 22 	call	0x44e4	; 0x44e4 <UART_Transmit_String>
    333e:	0f 90       	pop	r0
    3340:	0f 90       	pop	r0
    3342:	0f 90       	pop	r0
    3344:	0f 90       	pop	r0
    3346:	0f 90       	pop	r0
    3348:	0f 90       	pop	r0
    334a:	0f c0       	rjmp	.+30     	; 0x336a <SD_Card_Init+0x182>
    334c:	60 e1       	ldi	r22, 0x10	; 16
    334e:	83 e2       	ldi	r24, 0x23	; 35
    3350:	90 e0       	ldi	r25, 0x00	; 0
    3352:	0e 94 a4 17 	call	0x2f48	; 0x2f48 <SD_Card_CS_Inactive>
    3356:	60 e8       	ldi	r22, 0x80	; 128
    3358:	86 e2       	ldi	r24, 0x26	; 38
    335a:	90 e0       	ldi	r25, 0x00	; 0
    335c:	0e 94 eb 10 	call	0x21d6	; 0x21d6 <LEDS_Off>
    3360:	60 e1       	ldi	r22, 0x10	; 16
    3362:	80 e2       	ldi	r24, 0x20	; 32
    3364:	90 e0       	ldi	r25, 0x00	; 0
    3366:	0e 94 ee 10 	call	0x21dc	; 0x21dc <LEDS_On>
    336a:	89 81       	ldd	r24, Y+1	; 0x01
    336c:	81 30       	cpi	r24, 0x01	; 1
    336e:	69 f0       	breq	.+26     	; 0x338a <SD_Card_Init+0x1a2>
    3370:	60 e1       	ldi	r22, 0x10	; 16
    3372:	83 e2       	ldi	r24, 0x23	; 35
    3374:	90 e0       	ldi	r25, 0x00	; 0
    3376:	0e 94 a1 17 	call	0x2f42	; 0x2f42 <SD_Card_CS_Active>
    337a:	be 01       	movw	r22, r28
    337c:	67 5f       	subi	r22, 0xF7	; 247
    337e:	7f 4f       	sbci	r23, 0xFF	; 255
    3380:	8c e4       	ldi	r24, 0x4C	; 76
    3382:	90 e0       	ldi	r25, 0x00	; 0
    3384:	0e 94 73 1d 	call	0x3ae6	; 0x3ae6 <SPI_Receive>
    3388:	f8 cf       	rjmp	.-16     	; 0x337a <SD_Card_Init+0x192>
    338a:	9f ef       	ldi	r25, 0xFF	; 255
    338c:	c9 1a       	sub	r12, r25
    338e:	d9 0a       	sbc	r13, r25
    3390:	81 30       	cpi	r24, 0x01	; 1
    3392:	29 f0       	breq	.+10     	; 0x339e <SD_Card_Init+0x1b6>
    3394:	8a e0       	ldi	r24, 0x0A	; 10
    3396:	c8 16       	cp	r12, r24
    3398:	d1 04       	cpc	r13, r1
    339a:	08 f4       	brcc	.+2      	; 0x339e <SD_Card_Init+0x1b6>
    339c:	7c cf       	rjmp	.-264    	; 0x3296 <SD_Card_Init+0xae>
    339e:	9a e0       	ldi	r25, 0x0A	; 10
    33a0:	c9 16       	cp	r12, r25
    33a2:	d1 04       	cpc	r13, r1
    33a4:	11 f0       	breq	.+4      	; 0x33aa <SD_Card_Init+0x1c2>
    33a6:	80 e0       	ldi	r24, 0x00	; 0
    33a8:	02 c0       	rjmp	.+4      	; 0x33ae <SD_Card_Init+0x1c6>
    33aa:	13 e8       	ldi	r17, 0x83	; 131
    33ac:	83 e8       	ldi	r24, 0x83	; 131
    33ae:	11 11       	cpse	r17, r1
    33b0:	01 c0       	rjmp	.+2      	; 0x33b4 <SD_Card_Init+0x1cc>
    33b2:	18 2f       	mov	r17, r24
    33b4:	11 11       	cpse	r17, r1
    33b6:	bf c0       	rjmp	.+382    	; 0x3536 <SD_Card_Init+0x34e>
    33b8:	60 e8       	ldi	r22, 0x80	; 128
    33ba:	86 e2       	ldi	r24, 0x26	; 38
    33bc:	90 e0       	ldi	r25, 0x00	; 0
    33be:	0e 94 ee 10 	call	0x21dc	; 0x21dc <LEDS_On>
    33c2:	4f 2d       	mov	r20, r15
    33c4:	50 2f       	mov	r21, r16
    33c6:	60 e0       	ldi	r22, 0x00	; 0
    33c8:	85 ee       	ldi	r24, 0xE5	; 229
    33ca:	94 e1       	ldi	r25, 0x14	; 20
    33cc:	0e 94 4c 22 	call	0x4498	; 0x4498 <Copy_String_to_Buffer>
    33d0:	4f 2d       	mov	r20, r15
    33d2:	50 2f       	mov	r21, r16
    33d4:	60 e0       	ldi	r22, 0x00	; 0
    33d6:	88 ec       	ldi	r24, 0xC8	; 200
    33d8:	90 e0       	ldi	r25, 0x00	; 0
    33da:	0e 94 72 22 	call	0x44e4	; 0x44e4 <UART_Transmit_String>
    33de:	60 e1       	ldi	r22, 0x10	; 16
    33e0:	83 e2       	ldi	r24, 0x23	; 35
    33e2:	90 e0       	ldi	r25, 0x00	; 0
    33e4:	0e 94 a1 17 	call	0x2f42	; 0x2f42 <SD_Card_CS_Active>
    33e8:	4a ea       	ldi	r20, 0xAA	; 170
    33ea:	51 e0       	ldi	r21, 0x01	; 1
    33ec:	60 e0       	ldi	r22, 0x00	; 0
    33ee:	70 e0       	ldi	r23, 0x00	; 0
    33f0:	88 e0       	ldi	r24, 0x08	; 8
    33f2:	0e 94 a7 17 	call	0x2f4e	; 0x2f4e <Send_Command>
    33f6:	e8 2e       	mov	r14, r24
    33f8:	81 11       	cpse	r24, r1
    33fa:	51 c0       	rjmp	.+162    	; 0x349e <SD_Card_Init+0x2b6>
    33fc:	be 01       	movw	r22, r28
    33fe:	6f 5f       	subi	r22, 0xFF	; 255
    3400:	7f 4f       	sbci	r23, 0xFF	; 255
    3402:	85 e0       	ldi	r24, 0x05	; 5
    3404:	0e 94 10 18 	call	0x3020	; 0x3020 <Receive_Response>
    3408:	e8 2e       	mov	r14, r24
    340a:	60 e1       	ldi	r22, 0x10	; 16
    340c:	83 e2       	ldi	r24, 0x23	; 35
    340e:	90 e0       	ldi	r25, 0x00	; 0
    3410:	0e 94 a4 17 	call	0x2f48	; 0x2f48 <SD_Card_CS_Inactive>
    3414:	60 e8       	ldi	r22, 0x80	; 128
    3416:	86 e2       	ldi	r24, 0x26	; 38
    3418:	90 e0       	ldi	r25, 0x00	; 0
    341a:	0e 94 eb 10 	call	0x21d6	; 0x21d6 <LEDS_Off>
    341e:	4f 2d       	mov	r20, r15
    3420:	50 2f       	mov	r21, r16
    3422:	60 e0       	ldi	r22, 0x00	; 0
    3424:	88 ea       	ldi	r24, 0xA8	; 168
    3426:	94 e1       	ldi	r25, 0x14	; 20
    3428:	0e 94 4c 22 	call	0x4498	; 0x4498 <Copy_String_to_Buffer>
    342c:	4f 2d       	mov	r20, r15
    342e:	50 2f       	mov	r21, r16
    3430:	60 e0       	ldi	r22, 0x00	; 0
    3432:	88 ec       	ldi	r24, 0xC8	; 200
    3434:	90 e0       	ldi	r25, 0x00	; 0
    3436:	0e 94 72 22 	call	0x44e4	; 0x44e4 <UART_Transmit_String>
    343a:	d1 2c       	mov	r13, r1
    343c:	1f c0       	rjmp	.+62     	; 0x347c <SD_Card_Init+0x294>
    343e:	e1 e0       	ldi	r30, 0x01	; 1
    3440:	f0 e0       	ldi	r31, 0x00	; 0
    3442:	ec 0f       	add	r30, r28
    3444:	fd 1f       	adc	r31, r29
    3446:	ed 0d       	add	r30, r13
    3448:	f1 1d       	adc	r31, r1
    344a:	80 81       	ld	r24, Z
    344c:	1f 92       	push	r1
    344e:	8f 93       	push	r24
    3450:	81 ee       	ldi	r24, 0xE1	; 225
    3452:	91 e0       	ldi	r25, 0x01	; 1
    3454:	9f 93       	push	r25
    3456:	8f 93       	push	r24
    3458:	0f 93       	push	r16
    345a:	ff 92       	push	r15
    345c:	0e 94 2f 23 	call	0x465e	; 0x465e <sprintf>
    3460:	4f 2d       	mov	r20, r15
    3462:	50 2f       	mov	r21, r16
    3464:	60 e0       	ldi	r22, 0x00	; 0
    3466:	88 ec       	ldi	r24, 0xC8	; 200
    3468:	90 e0       	ldi	r25, 0x00	; 0
    346a:	0e 94 72 22 	call	0x44e4	; 0x44e4 <UART_Transmit_String>
    346e:	d3 94       	inc	r13
    3470:	0f 90       	pop	r0
    3472:	0f 90       	pop	r0
    3474:	0f 90       	pop	r0
    3476:	0f 90       	pop	r0
    3478:	0f 90       	pop	r0
    347a:	0f 90       	pop	r0
    347c:	84 e0       	ldi	r24, 0x04	; 4
    347e:	8d 15       	cp	r24, r13
    3480:	f0 f6       	brcc	.-68     	; 0x343e <SD_Card_Init+0x256>
    3482:	6d e0       	ldi	r22, 0x0D	; 13
    3484:	88 ec       	ldi	r24, 0xC8	; 200
    3486:	90 e0       	ldi	r25, 0x00	; 0
    3488:	0e 94 3c 22 	call	0x4478	; 0x4478 <UART_Transmit>
    348c:	6a e0       	ldi	r22, 0x0A	; 10
    348e:	88 ec       	ldi	r24, 0xC8	; 200
    3490:	90 e0       	ldi	r25, 0x00	; 0
    3492:	0e 94 3c 22 	call	0x4478	; 0x4478 <UART_Transmit>
    3496:	8d 81       	ldd	r24, Y+5	; 0x05
    3498:	8a 3a       	cpi	r24, 0xAA	; 170
    349a:	89 f4       	brne	.+34     	; 0x34be <SD_Card_Init+0x2d6>
    349c:	14 c0       	rjmp	.+40     	; 0x34c6 <SD_Card_Init+0x2de>
    349e:	60 e1       	ldi	r22, 0x10	; 16
    34a0:	83 e2       	ldi	r24, 0x23	; 35
    34a2:	90 e0       	ldi	r25, 0x00	; 0
    34a4:	0e 94 a4 17 	call	0x2f48	; 0x2f48 <SD_Card_CS_Inactive>
    34a8:	60 e8       	ldi	r22, 0x80	; 128
    34aa:	86 e2       	ldi	r24, 0x26	; 38
    34ac:	90 e0       	ldi	r25, 0x00	; 0
    34ae:	0e 94 eb 10 	call	0x21d6	; 0x21d6 <LEDS_Off>
    34b2:	60 e8       	ldi	r22, 0x80	; 128
    34b4:	80 e2       	ldi	r24, 0x20	; 32
    34b6:	90 e0       	ldi	r25, 0x00	; 0
    34b8:	0e 94 ee 10 	call	0x21dc	; 0x21dc <LEDS_On>
    34bc:	04 c0       	rjmp	.+8      	; 0x34c6 <SD_Card_Init+0x2de>
    34be:	0f 2e       	mov	r0, r31
    34c0:	f3 e8       	ldi	r31, 0x83	; 131
    34c2:	ef 2e       	mov	r14, r31
    34c4:	f0 2d       	mov	r31, r0
    34c6:	ee 20       	and	r14, r14
    34c8:	19 f1       	breq	.+70     	; 0x3510 <SD_Card_Init+0x328>
    34ca:	92 e8       	ldi	r25, 0x82	; 130
    34cc:	e9 12       	cpse	r14, r25
    34ce:	32 c0       	rjmp	.+100    	; 0x3534 <SD_Card_Init+0x34c>
    34d0:	89 e0       	ldi	r24, 0x09	; 9
    34d2:	80 93 1c 02 	sts	0x021C, r24	; 0x80021c <__data_end>
    34d6:	4f 2d       	mov	r20, r15
    34d8:	50 2f       	mov	r21, r16
    34da:	60 e0       	ldi	r22, 0x00	; 0
    34dc:	8a e8       	ldi	r24, 0x8A	; 138
    34de:	94 e1       	ldi	r25, 0x14	; 20
    34e0:	0e 94 4c 22 	call	0x4498	; 0x4498 <Copy_String_to_Buffer>
    34e4:	4f 2d       	mov	r20, r15
    34e6:	50 2f       	mov	r21, r16
    34e8:	60 e0       	ldi	r22, 0x00	; 0
    34ea:	88 ec       	ldi	r24, 0xC8	; 200
    34ec:	90 e0       	ldi	r25, 0x00	; 0
    34ee:	0e 94 72 22 	call	0x44e4	; 0x44e4 <UART_Transmit_String>
    34f2:	4f 2d       	mov	r20, r15
    34f4:	50 2f       	mov	r21, r16
    34f6:	60 e0       	ldi	r22, 0x00	; 0
    34f8:	89 e4       	ldi	r24, 0x49	; 73
    34fa:	94 e1       	ldi	r25, 0x14	; 20
    34fc:	0e 94 4c 22 	call	0x4498	; 0x4498 <Copy_String_to_Buffer>
    3500:	4f 2d       	mov	r20, r15
    3502:	50 2f       	mov	r21, r16
    3504:	60 e0       	ldi	r22, 0x00	; 0
    3506:	88 ec       	ldi	r24, 0xC8	; 200
    3508:	90 e0       	ldi	r25, 0x00	; 0
    350a:	0e 94 72 22 	call	0x44e4	; 0x44e4 <UART_Transmit_String>
    350e:	13 c0       	rjmp	.+38     	; 0x3536 <SD_Card_Init+0x34e>
    3510:	82 e0       	ldi	r24, 0x02	; 2
    3512:	80 93 1c 02 	sts	0x021C, r24	; 0x80021c <__data_end>
    3516:	4f 2d       	mov	r20, r15
    3518:	50 2f       	mov	r21, r16
    351a:	60 e0       	ldi	r22, 0x00	; 0
    351c:	8c e6       	ldi	r24, 0x6C	; 108
    351e:	94 e1       	ldi	r25, 0x14	; 20
    3520:	0e 94 4c 22 	call	0x4498	; 0x4498 <Copy_String_to_Buffer>
    3524:	4f 2d       	mov	r20, r15
    3526:	50 2f       	mov	r21, r16
    3528:	60 e0       	ldi	r22, 0x00	; 0
    352a:	88 ec       	ldi	r24, 0xC8	; 200
    352c:	90 e0       	ldi	r25, 0x00	; 0
    352e:	0e 94 72 22 	call	0x44e4	; 0x44e4 <UART_Transmit_String>
    3532:	01 c0       	rjmp	.+2      	; 0x3536 <SD_Card_Init+0x34e>
    3534:	1e 2d       	mov	r17, r14
    3536:	11 11       	cpse	r17, r1
    3538:	89 c0       	rjmp	.+274    	; 0x364c <SD_Card_Init+0x464>
    353a:	60 e8       	ldi	r22, 0x80	; 128
    353c:	86 e2       	ldi	r24, 0x26	; 38
    353e:	90 e0       	ldi	r25, 0x00	; 0
    3540:	0e 94 ee 10 	call	0x21dc	; 0x21dc <LEDS_On>
    3544:	4f 2d       	mov	r20, r15
    3546:	50 2f       	mov	r21, r16
    3548:	60 e0       	ldi	r22, 0x00	; 0
    354a:	85 ec       	ldi	r24, 0xC5	; 197
    354c:	94 e1       	ldi	r25, 0x14	; 20
    354e:	0e 94 4c 22 	call	0x4498	; 0x4498 <Copy_String_to_Buffer>
    3552:	4f 2d       	mov	r20, r15
    3554:	50 2f       	mov	r21, r16
    3556:	60 e0       	ldi	r22, 0x00	; 0
    3558:	88 ec       	ldi	r24, 0xC8	; 200
    355a:	90 e0       	ldi	r25, 0x00	; 0
    355c:	0e 94 72 22 	call	0x44e4	; 0x44e4 <UART_Transmit_String>
    3560:	60 e1       	ldi	r22, 0x10	; 16
    3562:	83 e2       	ldi	r24, 0x23	; 35
    3564:	90 e0       	ldi	r25, 0x00	; 0
    3566:	0e 94 a1 17 	call	0x2f42	; 0x2f42 <SD_Card_CS_Active>
    356a:	40 e0       	ldi	r20, 0x00	; 0
    356c:	50 e0       	ldi	r21, 0x00	; 0
    356e:	ba 01       	movw	r22, r20
    3570:	8a e3       	ldi	r24, 0x3A	; 58
    3572:	0e 94 a7 17 	call	0x2f4e	; 0x2f4e <Send_Command>
    3576:	e8 2e       	mov	r14, r24
    3578:	81 11       	cpse	r24, r1
    357a:	52 c0       	rjmp	.+164    	; 0x3620 <SD_Card_Init+0x438>
    357c:	be 01       	movw	r22, r28
    357e:	6f 5f       	subi	r22, 0xFF	; 255
    3580:	7f 4f       	sbci	r23, 0xFF	; 255
    3582:	85 e0       	ldi	r24, 0x05	; 5
    3584:	0e 94 10 18 	call	0x3020	; 0x3020 <Receive_Response>
    3588:	e8 2e       	mov	r14, r24
    358a:	60 e1       	ldi	r22, 0x10	; 16
    358c:	83 e2       	ldi	r24, 0x23	; 35
    358e:	90 e0       	ldi	r25, 0x00	; 0
    3590:	0e 94 a4 17 	call	0x2f48	; 0x2f48 <SD_Card_CS_Inactive>
    3594:	60 e8       	ldi	r22, 0x80	; 128
    3596:	86 e2       	ldi	r24, 0x26	; 38
    3598:	90 e0       	ldi	r25, 0x00	; 0
    359a:	0e 94 eb 10 	call	0x21d6	; 0x21d6 <LEDS_Off>
    359e:	4f 2d       	mov	r20, r15
    35a0:	50 2f       	mov	r21, r16
    35a2:	60 e0       	ldi	r22, 0x00	; 0
    35a4:	88 ea       	ldi	r24, 0xA8	; 168
    35a6:	94 e1       	ldi	r25, 0x14	; 20
    35a8:	0e 94 4c 22 	call	0x4498	; 0x4498 <Copy_String_to_Buffer>
    35ac:	4f 2d       	mov	r20, r15
    35ae:	50 2f       	mov	r21, r16
    35b0:	60 e0       	ldi	r22, 0x00	; 0
    35b2:	88 ec       	ldi	r24, 0xC8	; 200
    35b4:	90 e0       	ldi	r25, 0x00	; 0
    35b6:	0e 94 72 22 	call	0x44e4	; 0x44e4 <UART_Transmit_String>
    35ba:	d1 2c       	mov	r13, r1
    35bc:	1f c0       	rjmp	.+62     	; 0x35fc <SD_Card_Init+0x414>
    35be:	e1 e0       	ldi	r30, 0x01	; 1
    35c0:	f0 e0       	ldi	r31, 0x00	; 0
    35c2:	ec 0f       	add	r30, r28
    35c4:	fd 1f       	adc	r31, r29
    35c6:	ed 0d       	add	r30, r13
    35c8:	f1 1d       	adc	r31, r1
    35ca:	80 81       	ld	r24, Z
    35cc:	1f 92       	push	r1
    35ce:	8f 93       	push	r24
    35d0:	81 ee       	ldi	r24, 0xE1	; 225
    35d2:	91 e0       	ldi	r25, 0x01	; 1
    35d4:	9f 93       	push	r25
    35d6:	8f 93       	push	r24
    35d8:	0f 93       	push	r16
    35da:	ff 92       	push	r15
    35dc:	0e 94 2f 23 	call	0x465e	; 0x465e <sprintf>
    35e0:	4f 2d       	mov	r20, r15
    35e2:	50 2f       	mov	r21, r16
    35e4:	60 e0       	ldi	r22, 0x00	; 0
    35e6:	88 ec       	ldi	r24, 0xC8	; 200
    35e8:	90 e0       	ldi	r25, 0x00	; 0
    35ea:	0e 94 72 22 	call	0x44e4	; 0x44e4 <UART_Transmit_String>
    35ee:	d3 94       	inc	r13
    35f0:	0f 90       	pop	r0
    35f2:	0f 90       	pop	r0
    35f4:	0f 90       	pop	r0
    35f6:	0f 90       	pop	r0
    35f8:	0f 90       	pop	r0
    35fa:	0f 90       	pop	r0
    35fc:	84 e0       	ldi	r24, 0x04	; 4
    35fe:	8d 15       	cp	r24, r13
    3600:	f0 f6       	brcc	.-68     	; 0x35be <SD_Card_Init+0x3d6>
    3602:	6d e0       	ldi	r22, 0x0D	; 13
    3604:	88 ec       	ldi	r24, 0xC8	; 200
    3606:	90 e0       	ldi	r25, 0x00	; 0
    3608:	0e 94 3c 22 	call	0x4478	; 0x4478 <UART_Transmit>
    360c:	6a e0       	ldi	r22, 0x0A	; 10
    360e:	88 ec       	ldi	r24, 0xC8	; 200
    3610:	90 e0       	ldi	r25, 0x00	; 0
    3612:	0e 94 3c 22 	call	0x4478	; 0x4478 <UART_Transmit>
    3616:	8b 81       	ldd	r24, Y+3	; 0x03
    3618:	8c 7f       	andi	r24, 0xFC	; 252
    361a:	8c 3f       	cpi	r24, 0xFC	; 252
    361c:	89 f4       	brne	.+34     	; 0x3640 <SD_Card_Init+0x458>
    361e:	14 c0       	rjmp	.+40     	; 0x3648 <SD_Card_Init+0x460>
    3620:	60 e1       	ldi	r22, 0x10	; 16
    3622:	83 e2       	ldi	r24, 0x23	; 35
    3624:	90 e0       	ldi	r25, 0x00	; 0
    3626:	0e 94 a4 17 	call	0x2f48	; 0x2f48 <SD_Card_CS_Inactive>
    362a:	60 e8       	ldi	r22, 0x80	; 128
    362c:	86 e2       	ldi	r24, 0x26	; 38
    362e:	90 e0       	ldi	r25, 0x00	; 0
    3630:	0e 94 eb 10 	call	0x21d6	; 0x21d6 <LEDS_Off>
    3634:	60 e8       	ldi	r22, 0x80	; 128
    3636:	80 e2       	ldi	r24, 0x20	; 32
    3638:	90 e0       	ldi	r25, 0x00	; 0
    363a:	0e 94 ee 10 	call	0x21dc	; 0x21dc <LEDS_On>
    363e:	04 c0       	rjmp	.+8      	; 0x3648 <SD_Card_Init+0x460>
    3640:	0f 2e       	mov	r0, r31
    3642:	f5 e8       	ldi	r31, 0x85	; 133
    3644:	ef 2e       	mov	r14, r31
    3646:	f0 2d       	mov	r31, r0
    3648:	e1 10       	cpse	r14, r1
    364a:	1e 2d       	mov	r17, r14
    364c:	11 11       	cpse	r17, r1
    364e:	94 c0       	rjmp	.+296    	; 0x3778 <SD_Card_Init+0x590>
    3650:	80 91 1c 02 	lds	r24, 0x021C	; 0x80021c <__data_end>
    3654:	82 30       	cpi	r24, 0x02	; 2
    3656:	31 f4       	brne	.+12     	; 0x3664 <SD_Card_Init+0x47c>
    3658:	81 2c       	mov	r8, r1
    365a:	91 2c       	mov	r9, r1
    365c:	54 01       	movw	r10, r8
    365e:	68 94       	set
    3660:	b6 f8       	bld	r11, 6
    3662:	03 c0       	rjmp	.+6      	; 0x366a <SD_Card_Init+0x482>
    3664:	81 2c       	mov	r8, r1
    3666:	91 2c       	mov	r9, r1
    3668:	54 01       	movw	r10, r8
    366a:	60 e8       	ldi	r22, 0x80	; 128
    366c:	86 e2       	ldi	r24, 0x26	; 38
    366e:	90 e0       	ldi	r25, 0x00	; 0
    3670:	0e 94 ee 10 	call	0x21dc	; 0x21dc <LEDS_On>
    3674:	4f 2d       	mov	r20, r15
    3676:	50 2f       	mov	r21, r16
    3678:	60 e0       	ldi	r22, 0x00	; 0
    367a:	84 eb       	ldi	r24, 0xB4	; 180
    367c:	94 e1       	ldi	r25, 0x14	; 20
    367e:	0e 94 4c 22 	call	0x4498	; 0x4498 <Copy_String_to_Buffer>
    3682:	4f 2d       	mov	r20, r15
    3684:	50 2f       	mov	r21, r16
    3686:	60 e0       	ldi	r22, 0x00	; 0
    3688:	88 ec       	ldi	r24, 0xC8	; 200
    368a:	90 e0       	ldi	r25, 0x00	; 0
    368c:	0e 94 72 22 	call	0x44e4	; 0x44e4 <UART_Transmit_String>
    3690:	c1 2c       	mov	r12, r1
    3692:	d1 2c       	mov	r13, r1
    3694:	60 e1       	ldi	r22, 0x10	; 16
    3696:	83 e2       	ldi	r24, 0x23	; 35
    3698:	90 e0       	ldi	r25, 0x00	; 0
    369a:	0e 94 a1 17 	call	0x2f42	; 0x2f42 <SD_Card_CS_Active>
    369e:	40 e0       	ldi	r20, 0x00	; 0
    36a0:	50 e0       	ldi	r21, 0x00	; 0
    36a2:	ba 01       	movw	r22, r20
    36a4:	87 e3       	ldi	r24, 0x37	; 55
    36a6:	0e 94 a7 17 	call	0x2f4e	; 0x2f4e <Send_Command>
    36aa:	e8 2e       	mov	r14, r24
    36ac:	81 11       	cpse	r24, r1
    36ae:	07 c0       	rjmp	.+14     	; 0x36be <SD_Card_Init+0x4d6>
    36b0:	be 01       	movw	r22, r28
    36b2:	6f 5f       	subi	r22, 0xFF	; 255
    36b4:	7f 4f       	sbci	r23, 0xFF	; 255
    36b6:	81 e0       	ldi	r24, 0x01	; 1
    36b8:	0e 94 10 18 	call	0x3020	; 0x3020 <Receive_Response>
    36bc:	e8 2e       	mov	r14, r24
    36be:	89 81       	ldd	r24, Y+1	; 0x01
    36c0:	82 30       	cpi	r24, 0x02	; 2
    36c2:	30 f4       	brcc	.+12     	; 0x36d0 <SD_Card_Init+0x4e8>
    36c4:	b5 01       	movw	r22, r10
    36c6:	a4 01       	movw	r20, r8
    36c8:	89 e2       	ldi	r24, 0x29	; 41
    36ca:	0e 94 a7 17 	call	0x2f4e	; 0x2f4e <Send_Command>
    36ce:	e8 2e       	mov	r14, r24
    36d0:	e1 10       	cpse	r14, r1
    36d2:	06 c0       	rjmp	.+12     	; 0x36e0 <SD_Card_Init+0x4f8>
    36d4:	be 01       	movw	r22, r28
    36d6:	6f 5f       	subi	r22, 0xFF	; 255
    36d8:	7f 4f       	sbci	r23, 0xFF	; 255
    36da:	81 e0       	ldi	r24, 0x01	; 1
    36dc:	0e 94 10 18 	call	0x3020	; 0x3020 <Receive_Response>
    36e0:	60 e1       	ldi	r22, 0x10	; 16
    36e2:	83 e2       	ldi	r24, 0x23	; 35
    36e4:	90 e0       	ldi	r25, 0x00	; 0
    36e6:	0e 94 a4 17 	call	0x2f48	; 0x2f48 <SD_Card_CS_Inactive>
    36ea:	9f ef       	ldi	r25, 0xFF	; 255
    36ec:	c9 1a       	sub	r12, r25
    36ee:	d9 0a       	sbc	r13, r25
    36f0:	21 f4       	brne	.+8      	; 0x36fa <SD_Card_Init+0x512>
    36f2:	0f 2e       	mov	r0, r31
    36f4:	f1 e8       	ldi	r31, 0x81	; 129
    36f6:	ef 2e       	mov	r14, r31
    36f8:	f0 2d       	mov	r31, r0
    36fa:	89 81       	ldd	r24, Y+1	; 0x01
    36fc:	80 ff       	sbrs	r24, 0
    36fe:	02 c0       	rjmp	.+4      	; 0x3704 <SD_Card_Init+0x51c>
    3700:	ee 20       	and	r14, r14
    3702:	41 f2       	breq	.-112    	; 0x3694 <SD_Card_Init+0x4ac>
    3704:	e1 10       	cpse	r14, r1
    3706:	2c c0       	rjmp	.+88     	; 0x3760 <SD_Card_Init+0x578>
    3708:	60 e8       	ldi	r22, 0x80	; 128
    370a:	86 e2       	ldi	r24, 0x26	; 38
    370c:	90 e0       	ldi	r25, 0x00	; 0
    370e:	0e 94 eb 10 	call	0x21d6	; 0x21d6 <LEDS_Off>
    3712:	4f 2d       	mov	r20, r15
    3714:	50 2f       	mov	r21, r16
    3716:	60 e0       	ldi	r22, 0x00	; 0
    3718:	88 ea       	ldi	r24, 0xA8	; 168
    371a:	94 e1       	ldi	r25, 0x14	; 20
    371c:	0e 94 4c 22 	call	0x4498	; 0x4498 <Copy_String_to_Buffer>
    3720:	4f 2d       	mov	r20, r15
    3722:	50 2f       	mov	r21, r16
    3724:	60 e0       	ldi	r22, 0x00	; 0
    3726:	88 ec       	ldi	r24, 0xC8	; 200
    3728:	90 e0       	ldi	r25, 0x00	; 0
    372a:	0e 94 72 22 	call	0x44e4	; 0x44e4 <UART_Transmit_String>
    372e:	89 81       	ldd	r24, Y+1	; 0x01
    3730:	1f 92       	push	r1
    3732:	8f 93       	push	r24
    3734:	8d ef       	ldi	r24, 0xFD	; 253
    3736:	91 e0       	ldi	r25, 0x01	; 1
    3738:	9f 93       	push	r25
    373a:	8f 93       	push	r24
    373c:	0f 93       	push	r16
    373e:	ff 92       	push	r15
    3740:	0e 94 2f 23 	call	0x465e	; 0x465e <sprintf>
    3744:	4f 2d       	mov	r20, r15
    3746:	50 2f       	mov	r21, r16
    3748:	60 e0       	ldi	r22, 0x00	; 0
    374a:	88 ec       	ldi	r24, 0xC8	; 200
    374c:	90 e0       	ldi	r25, 0x00	; 0
    374e:	0e 94 72 22 	call	0x44e4	; 0x44e4 <UART_Transmit_String>
    3752:	0f 90       	pop	r0
    3754:	0f 90       	pop	r0
    3756:	0f 90       	pop	r0
    3758:	0f 90       	pop	r0
    375a:	0f 90       	pop	r0
    375c:	0f 90       	pop	r0
    375e:	0a c0       	rjmp	.+20     	; 0x3774 <SD_Card_Init+0x58c>
    3760:	60 e8       	ldi	r22, 0x80	; 128
    3762:	86 e2       	ldi	r24, 0x26	; 38
    3764:	90 e0       	ldi	r25, 0x00	; 0
    3766:	0e 94 eb 10 	call	0x21d6	; 0x21d6 <LEDS_Off>
    376a:	60 e8       	ldi	r22, 0x80	; 128
    376c:	80 e2       	ldi	r24, 0x20	; 32
    376e:	90 e0       	ldi	r25, 0x00	; 0
    3770:	0e 94 ee 10 	call	0x21dc	; 0x21dc <LEDS_On>
    3774:	e1 10       	cpse	r14, r1
    3776:	1e 2d       	mov	r17, r14
    3778:	11 11       	cpse	r17, r1
    377a:	1a c1       	rjmp	.+564    	; 0x39b0 <SD_Card_Init+0x7c8>
    377c:	80 91 1c 02 	lds	r24, 0x021C	; 0x80021c <__data_end>
    3780:	82 30       	cpi	r24, 0x02	; 2
    3782:	09 f0       	breq	.+2      	; 0x3786 <SD_Card_Init+0x59e>
    3784:	15 c1       	rjmp	.+554    	; 0x39b0 <SD_Card_Init+0x7c8>
    3786:	60 e8       	ldi	r22, 0x80	; 128
    3788:	86 e2       	ldi	r24, 0x26	; 38
    378a:	90 e0       	ldi	r25, 0x00	; 0
    378c:	0e 94 ee 10 	call	0x21dc	; 0x21dc <LEDS_On>
    3790:	4f 2d       	mov	r20, r15
    3792:	50 2f       	mov	r21, r16
    3794:	60 e0       	ldi	r22, 0x00	; 0
    3796:	85 ec       	ldi	r24, 0xC5	; 197
    3798:	94 e1       	ldi	r25, 0x14	; 20
    379a:	0e 94 4c 22 	call	0x4498	; 0x4498 <Copy_String_to_Buffer>
    379e:	4f 2d       	mov	r20, r15
    37a0:	50 2f       	mov	r21, r16
    37a2:	60 e0       	ldi	r22, 0x00	; 0
    37a4:	88 ec       	ldi	r24, 0xC8	; 200
    37a6:	90 e0       	ldi	r25, 0x00	; 0
    37a8:	0e 94 72 22 	call	0x44e4	; 0x44e4 <UART_Transmit_String>
    37ac:	60 e1       	ldi	r22, 0x10	; 16
    37ae:	83 e2       	ldi	r24, 0x23	; 35
    37b0:	90 e0       	ldi	r25, 0x00	; 0
    37b2:	0e 94 a1 17 	call	0x2f42	; 0x2f42 <SD_Card_CS_Active>
    37b6:	40 e0       	ldi	r20, 0x00	; 0
    37b8:	50 e0       	ldi	r21, 0x00	; 0
    37ba:	ba 01       	movw	r22, r20
    37bc:	8a e3       	ldi	r24, 0x3A	; 58
    37be:	0e 94 a7 17 	call	0x2f4e	; 0x2f4e <Send_Command>
    37c2:	e8 2e       	mov	r14, r24
    37c4:	81 11       	cpse	r24, r1
    37c6:	de c0       	rjmp	.+444    	; 0x3984 <SD_Card_Init+0x79c>
    37c8:	be 01       	movw	r22, r28
    37ca:	6f 5f       	subi	r22, 0xFF	; 255
    37cc:	7f 4f       	sbci	r23, 0xFF	; 255
    37ce:	85 e0       	ldi	r24, 0x05	; 5
    37d0:	0e 94 10 18 	call	0x3020	; 0x3020 <Receive_Response>
    37d4:	e8 2e       	mov	r14, r24
    37d6:	60 e1       	ldi	r22, 0x10	; 16
    37d8:	83 e2       	ldi	r24, 0x23	; 35
    37da:	90 e0       	ldi	r25, 0x00	; 0
    37dc:	0e 94 a4 17 	call	0x2f48	; 0x2f48 <SD_Card_CS_Inactive>
    37e0:	60 e8       	ldi	r22, 0x80	; 128
    37e2:	86 e2       	ldi	r24, 0x26	; 38
    37e4:	90 e0       	ldi	r25, 0x00	; 0
    37e6:	0e 94 eb 10 	call	0x21d6	; 0x21d6 <LEDS_Off>
    37ea:	4f 2d       	mov	r20, r15
    37ec:	50 2f       	mov	r21, r16
    37ee:	60 e0       	ldi	r22, 0x00	; 0
    37f0:	88 ea       	ldi	r24, 0xA8	; 168
    37f2:	94 e1       	ldi	r25, 0x14	; 20
    37f4:	0e 94 4c 22 	call	0x4498	; 0x4498 <Copy_String_to_Buffer>
    37f8:	4f 2d       	mov	r20, r15
    37fa:	50 2f       	mov	r21, r16
    37fc:	60 e0       	ldi	r22, 0x00	; 0
    37fe:	88 ec       	ldi	r24, 0xC8	; 200
    3800:	90 e0       	ldi	r25, 0x00	; 0
    3802:	0e 94 72 22 	call	0x44e4	; 0x44e4 <UART_Transmit_String>
    3806:	d1 2c       	mov	r13, r1
    3808:	1f c0       	rjmp	.+62     	; 0x3848 <SD_Card_Init+0x660>
    380a:	e1 e0       	ldi	r30, 0x01	; 1
    380c:	f0 e0       	ldi	r31, 0x00	; 0
    380e:	ec 0f       	add	r30, r28
    3810:	fd 1f       	adc	r31, r29
    3812:	ed 0d       	add	r30, r13
    3814:	f1 1d       	adc	r31, r1
    3816:	80 81       	ld	r24, Z
    3818:	1f 92       	push	r1
    381a:	8f 93       	push	r24
    381c:	81 ee       	ldi	r24, 0xE1	; 225
    381e:	91 e0       	ldi	r25, 0x01	; 1
    3820:	9f 93       	push	r25
    3822:	8f 93       	push	r24
    3824:	0f 93       	push	r16
    3826:	ff 92       	push	r15
    3828:	0e 94 2f 23 	call	0x465e	; 0x465e <sprintf>
    382c:	4f 2d       	mov	r20, r15
    382e:	50 2f       	mov	r21, r16
    3830:	60 e0       	ldi	r22, 0x00	; 0
    3832:	88 ec       	ldi	r24, 0xC8	; 200
    3834:	90 e0       	ldi	r25, 0x00	; 0
    3836:	0e 94 72 22 	call	0x44e4	; 0x44e4 <UART_Transmit_String>
    383a:	d3 94       	inc	r13
    383c:	0f 90       	pop	r0
    383e:	0f 90       	pop	r0
    3840:	0f 90       	pop	r0
    3842:	0f 90       	pop	r0
    3844:	0f 90       	pop	r0
    3846:	0f 90       	pop	r0
    3848:	84 e0       	ldi	r24, 0x04	; 4
    384a:	8d 15       	cp	r24, r13
    384c:	f0 f6       	brcc	.-68     	; 0x380a <SD_Card_Init+0x622>
    384e:	6d e0       	ldi	r22, 0x0D	; 13
    3850:	88 ec       	ldi	r24, 0xC8	; 200
    3852:	90 e0       	ldi	r25, 0x00	; 0
    3854:	0e 94 3c 22 	call	0x4478	; 0x4478 <UART_Transmit>
    3858:	6a e0       	ldi	r22, 0x0A	; 10
    385a:	88 ec       	ldi	r24, 0xC8	; 200
    385c:	90 e0       	ldi	r25, 0x00	; 0
    385e:	0e 94 3c 22 	call	0x4478	; 0x4478 <UART_Transmit>
    3862:	8a 81       	ldd	r24, Y+2	; 0x02
    3864:	88 23       	and	r24, r24
    3866:	0c f0       	brlt	.+2      	; 0x386a <SD_Card_Init+0x682>
    3868:	9d c0       	rjmp	.+314    	; 0x39a4 <SD_Card_Init+0x7bc>
    386a:	80 7c       	andi	r24, 0xC0	; 192
    386c:	80 3c       	cpi	r24, 0xC0	; 192
    386e:	89 f4       	brne	.+34     	; 0x3892 <SD_Card_Init+0x6aa>
    3870:	10 92 1c 02 	sts	0x021C, r1	; 0x80021c <__data_end>
    3874:	4f 2d       	mov	r20, r15
    3876:	50 2f       	mov	r21, r16
    3878:	60 e0       	ldi	r22, 0x00	; 0
    387a:	8a e2       	ldi	r24, 0x2A	; 42
    387c:	94 e1       	ldi	r25, 0x14	; 20
    387e:	0e 94 4c 22 	call	0x4498	; 0x4498 <Copy_String_to_Buffer>
    3882:	4f 2d       	mov	r20, r15
    3884:	50 2f       	mov	r21, r16
    3886:	60 e0       	ldi	r22, 0x00	; 0
    3888:	88 ec       	ldi	r24, 0xC8	; 200
    388a:	90 e0       	ldi	r25, 0x00	; 0
    388c:	0e 94 72 22 	call	0x44e4	; 0x44e4 <UART_Transmit_String>
    3890:	8d c0       	rjmp	.+282    	; 0x39ac <SD_Card_Init+0x7c4>
    3892:	89 e0       	ldi	r24, 0x09	; 9
    3894:	80 93 1c 02 	sts	0x021C, r24	; 0x80021c <__data_end>
    3898:	4f 2d       	mov	r20, r15
    389a:	50 2f       	mov	r21, r16
    389c:	60 e0       	ldi	r22, 0x00	; 0
    389e:	89 e4       	ldi	r24, 0x49	; 73
    38a0:	94 e1       	ldi	r25, 0x14	; 20
    38a2:	0e 94 4c 22 	call	0x4498	; 0x4498 <Copy_String_to_Buffer>
    38a6:	4f 2d       	mov	r20, r15
    38a8:	50 2f       	mov	r21, r16
    38aa:	60 e0       	ldi	r22, 0x00	; 0
    38ac:	88 ec       	ldi	r24, 0xC8	; 200
    38ae:	90 e0       	ldi	r25, 0x00	; 0
    38b0:	0e 94 72 22 	call	0x44e4	; 0x44e4 <UART_Transmit_String>
    38b4:	60 e8       	ldi	r22, 0x80	; 128
    38b6:	86 e2       	ldi	r24, 0x26	; 38
    38b8:	90 e0       	ldi	r25, 0x00	; 0
    38ba:	0e 94 ee 10 	call	0x21dc	; 0x21dc <LEDS_On>
    38be:	4f 2d       	mov	r20, r15
    38c0:	50 2f       	mov	r21, r16
    38c2:	60 e0       	ldi	r22, 0x00	; 0
    38c4:	85 ed       	ldi	r24, 0xD5	; 213
    38c6:	94 e1       	ldi	r25, 0x14	; 20
    38c8:	0e 94 4c 22 	call	0x4498	; 0x4498 <Copy_String_to_Buffer>
    38cc:	4f 2d       	mov	r20, r15
    38ce:	50 2f       	mov	r21, r16
    38d0:	60 e0       	ldi	r22, 0x00	; 0
    38d2:	88 ec       	ldi	r24, 0xC8	; 200
    38d4:	90 e0       	ldi	r25, 0x00	; 0
    38d6:	0e 94 72 22 	call	0x44e4	; 0x44e4 <UART_Transmit_String>
    38da:	60 e1       	ldi	r22, 0x10	; 16
    38dc:	83 e2       	ldi	r24, 0x23	; 35
    38de:	90 e0       	ldi	r25, 0x00	; 0
    38e0:	0e 94 a1 17 	call	0x2f42	; 0x2f42 <SD_Card_CS_Active>
    38e4:	40 e0       	ldi	r20, 0x00	; 0
    38e6:	52 e0       	ldi	r21, 0x02	; 2
    38e8:	60 e0       	ldi	r22, 0x00	; 0
    38ea:	70 e0       	ldi	r23, 0x00	; 0
    38ec:	80 e1       	ldi	r24, 0x10	; 16
    38ee:	0e 94 a7 17 	call	0x2f4e	; 0x2f4e <Send_Command>
    38f2:	e8 2e       	mov	r14, r24
    38f4:	81 11       	cpse	r24, r1
    38f6:	5a c0       	rjmp	.+180    	; 0x39ac <SD_Card_Init+0x7c4>
    38f8:	be 01       	movw	r22, r28
    38fa:	6f 5f       	subi	r22, 0xFF	; 255
    38fc:	7f 4f       	sbci	r23, 0xFF	; 255
    38fe:	81 e0       	ldi	r24, 0x01	; 1
    3900:	0e 94 10 18 	call	0x3020	; 0x3020 <Receive_Response>
    3904:	e8 2e       	mov	r14, r24
    3906:	60 e1       	ldi	r22, 0x10	; 16
    3908:	83 e2       	ldi	r24, 0x23	; 35
    390a:	90 e0       	ldi	r25, 0x00	; 0
    390c:	0e 94 a4 17 	call	0x2f48	; 0x2f48 <SD_Card_CS_Inactive>
    3910:	60 e8       	ldi	r22, 0x80	; 128
    3912:	86 e2       	ldi	r24, 0x26	; 38
    3914:	90 e0       	ldi	r25, 0x00	; 0
    3916:	0e 94 eb 10 	call	0x21d6	; 0x21d6 <LEDS_Off>
    391a:	4f 2d       	mov	r20, r15
    391c:	50 2f       	mov	r21, r16
    391e:	60 e0       	ldi	r22, 0x00	; 0
    3920:	88 ea       	ldi	r24, 0xA8	; 168
    3922:	94 e1       	ldi	r25, 0x14	; 20
    3924:	0e 94 4c 22 	call	0x4498	; 0x4498 <Copy_String_to_Buffer>
    3928:	4f 2d       	mov	r20, r15
    392a:	50 2f       	mov	r21, r16
    392c:	60 e0       	ldi	r22, 0x00	; 0
    392e:	88 ec       	ldi	r24, 0xC8	; 200
    3930:	90 e0       	ldi	r25, 0x00	; 0
    3932:	0e 94 72 22 	call	0x44e4	; 0x44e4 <UART_Transmit_String>
    3936:	89 81       	ldd	r24, Y+1	; 0x01
    3938:	1f 92       	push	r1
    393a:	8f 93       	push	r24
    393c:	8d ef       	ldi	r24, 0xFD	; 253
    393e:	91 e0       	ldi	r25, 0x01	; 1
    3940:	9f 93       	push	r25
    3942:	8f 93       	push	r24
    3944:	0f 93       	push	r16
    3946:	ff 92       	push	r15
    3948:	0e 94 2f 23 	call	0x465e	; 0x465e <sprintf>
    394c:	4f 2d       	mov	r20, r15
    394e:	50 2f       	mov	r21, r16
    3950:	60 e0       	ldi	r22, 0x00	; 0
    3952:	88 ec       	ldi	r24, 0xC8	; 200
    3954:	90 e0       	ldi	r25, 0x00	; 0
    3956:	0e 94 72 22 	call	0x44e4	; 0x44e4 <UART_Transmit_String>
    395a:	4f 2d       	mov	r20, r15
    395c:	50 2f       	mov	r21, r16
    395e:	60 e0       	ldi	r22, 0x00	; 0
    3960:	8c e0       	ldi	r24, 0x0C	; 12
    3962:	94 e1       	ldi	r25, 0x14	; 20
    3964:	0e 94 4c 22 	call	0x4498	; 0x4498 <Copy_String_to_Buffer>
    3968:	4f 2d       	mov	r20, r15
    396a:	50 2f       	mov	r21, r16
    396c:	60 e0       	ldi	r22, 0x00	; 0
    396e:	88 ec       	ldi	r24, 0xC8	; 200
    3970:	90 e0       	ldi	r25, 0x00	; 0
    3972:	0e 94 72 22 	call	0x44e4	; 0x44e4 <UART_Transmit_String>
    3976:	0f 90       	pop	r0
    3978:	0f 90       	pop	r0
    397a:	0f 90       	pop	r0
    397c:	0f 90       	pop	r0
    397e:	0f 90       	pop	r0
    3980:	0f 90       	pop	r0
    3982:	14 c0       	rjmp	.+40     	; 0x39ac <SD_Card_Init+0x7c4>
    3984:	60 e1       	ldi	r22, 0x10	; 16
    3986:	83 e2       	ldi	r24, 0x23	; 35
    3988:	90 e0       	ldi	r25, 0x00	; 0
    398a:	0e 94 a4 17 	call	0x2f48	; 0x2f48 <SD_Card_CS_Inactive>
    398e:	60 e8       	ldi	r22, 0x80	; 128
    3990:	86 e2       	ldi	r24, 0x26	; 38
    3992:	90 e0       	ldi	r25, 0x00	; 0
    3994:	0e 94 eb 10 	call	0x21d6	; 0x21d6 <LEDS_Off>
    3998:	60 e8       	ldi	r22, 0x80	; 128
    399a:	80 e2       	ldi	r24, 0x20	; 32
    399c:	90 e0       	ldi	r25, 0x00	; 0
    399e:	0e 94 ee 10 	call	0x21dc	; 0x21dc <LEDS_On>
    39a2:	04 c0       	rjmp	.+8      	; 0x39ac <SD_Card_Init+0x7c4>
    39a4:	0f 2e       	mov	r0, r31
    39a6:	f6 e8       	ldi	r31, 0x86	; 134
    39a8:	ef 2e       	mov	r14, r31
    39aa:	f0 2d       	mov	r31, r0
    39ac:	e1 10       	cpse	r14, r1
    39ae:	1e 2d       	mov	r17, r14
    39b0:	81 2f       	mov	r24, r17
    39b2:	29 96       	adiw	r28, 0x09	; 9
    39b4:	0f b6       	in	r0, 0x3f	; 63
    39b6:	f8 94       	cli
    39b8:	de bf       	out	0x3e, r29	; 62
    39ba:	0f be       	out	0x3f, r0	; 63
    39bc:	cd bf       	out	0x3d, r28	; 61
    39be:	df 91       	pop	r29
    39c0:	cf 91       	pop	r28
    39c2:	1f 91       	pop	r17
    39c4:	0f 91       	pop	r16
    39c6:	ff 90       	pop	r15
    39c8:	ef 90       	pop	r14
    39ca:	df 90       	pop	r13
    39cc:	cf 90       	pop	r12
    39ce:	bf 90       	pop	r11
    39d0:	af 90       	pop	r10
    39d2:	9f 90       	pop	r9
    39d4:	8f 90       	pop	r8
    39d6:	08 95       	ret

000039d8 <Return_SD_Card_Type>:
    39d8:	80 91 1c 02 	lds	r24, 0x021C	; 0x80021c <__data_end>
    39dc:	08 95       	ret

000039de <SPI_Master_Init>:
    39de:	1f 93       	push	r17
    39e0:	cf 93       	push	r28
    39e2:	df 93       	push	r29
    39e4:	ec 01       	movw	r28, r24
    39e6:	9a 01       	movw	r18, r20
    39e8:	ab 01       	movw	r20, r22
    39ea:	60 e0       	ldi	r22, 0x00	; 0
    39ec:	74 e2       	ldi	r23, 0x24	; 36
    39ee:	84 ef       	ldi	r24, 0xF4	; 244
    39f0:	90 e0       	ldi	r25, 0x00	; 0
    39f2:	0e 94 b7 22 	call	0x456e	; 0x456e <__udivmodsi4>
    39f6:	22 30       	cpi	r18, 0x02	; 2
    39f8:	30 f4       	brcc	.+12     	; 0x3a06 <SPI_Master_Init+0x28>
    39fa:	80 e5       	ldi	r24, 0x50	; 80
    39fc:	88 83       	st	Y, r24
    39fe:	81 e0       	ldi	r24, 0x01	; 1
    3a00:	89 83       	std	Y+1, r24	; 0x01
    3a02:	10 e0       	ldi	r17, 0x00	; 0
    3a04:	36 c0       	rjmp	.+108    	; 0x3a72 <SPI_Master_Init+0x94>
    3a06:	23 30       	cpi	r18, 0x03	; 3
    3a08:	29 f4       	brne	.+10     	; 0x3a14 <SPI_Master_Init+0x36>
    3a0a:	80 e5       	ldi	r24, 0x50	; 80
    3a0c:	88 83       	st	Y, r24
    3a0e:	19 82       	std	Y+1, r1	; 0x01
    3a10:	10 e0       	ldi	r17, 0x00	; 0
    3a12:	2f c0       	rjmp	.+94     	; 0x3a72 <SPI_Master_Init+0x94>
    3a14:	8b ef       	ldi	r24, 0xFB	; 251
    3a16:	82 0f       	add	r24, r18
    3a18:	83 30       	cpi	r24, 0x03	; 3
    3a1a:	30 f4       	brcc	.+12     	; 0x3a28 <SPI_Master_Init+0x4a>
    3a1c:	81 e5       	ldi	r24, 0x51	; 81
    3a1e:	88 83       	st	Y, r24
    3a20:	81 e0       	ldi	r24, 0x01	; 1
    3a22:	89 83       	std	Y+1, r24	; 0x01
    3a24:	10 e0       	ldi	r17, 0x00	; 0
    3a26:	25 c0       	rjmp	.+74     	; 0x3a72 <SPI_Master_Init+0x94>
    3a28:	87 ef       	ldi	r24, 0xF7	; 247
    3a2a:	82 0f       	add	r24, r18
    3a2c:	87 30       	cpi	r24, 0x07	; 7
    3a2e:	28 f4       	brcc	.+10     	; 0x3a3a <SPI_Master_Init+0x5c>
    3a30:	81 e5       	ldi	r24, 0x51	; 81
    3a32:	88 83       	st	Y, r24
    3a34:	19 82       	std	Y+1, r1	; 0x01
    3a36:	10 e0       	ldi	r17, 0x00	; 0
    3a38:	1c c0       	rjmp	.+56     	; 0x3a72 <SPI_Master_Init+0x94>
    3a3a:	8f ee       	ldi	r24, 0xEF	; 239
    3a3c:	82 0f       	add	r24, r18
    3a3e:	8f 30       	cpi	r24, 0x0F	; 15
    3a40:	30 f4       	brcc	.+12     	; 0x3a4e <SPI_Master_Init+0x70>
    3a42:	82 e5       	ldi	r24, 0x52	; 82
    3a44:	88 83       	st	Y, r24
    3a46:	81 e0       	ldi	r24, 0x01	; 1
    3a48:	89 83       	std	Y+1, r24	; 0x01
    3a4a:	10 e0       	ldi	r17, 0x00	; 0
    3a4c:	12 c0       	rjmp	.+36     	; 0x3a72 <SPI_Master_Init+0x94>
    3a4e:	8f ed       	ldi	r24, 0xDF	; 223
    3a50:	82 0f       	add	r24, r18
    3a52:	8f 31       	cpi	r24, 0x1F	; 31
    3a54:	28 f4       	brcc	.+10     	; 0x3a60 <SPI_Master_Init+0x82>
    3a56:	82 e5       	ldi	r24, 0x52	; 82
    3a58:	88 83       	st	Y, r24
    3a5a:	19 82       	std	Y+1, r1	; 0x01
    3a5c:	10 e0       	ldi	r17, 0x00	; 0
    3a5e:	09 c0       	rjmp	.+18     	; 0x3a72 <SPI_Master_Init+0x94>
    3a60:	21 54       	subi	r18, 0x41	; 65
    3a62:	2f 33       	cpi	r18, 0x3F	; 63
    3a64:	28 f4       	brcc	.+10     	; 0x3a70 <SPI_Master_Init+0x92>
    3a66:	83 e5       	ldi	r24, 0x53	; 83
    3a68:	88 83       	st	Y, r24
    3a6a:	19 82       	std	Y+1, r1	; 0x01
    3a6c:	10 e0       	ldi	r17, 0x00	; 0
    3a6e:	01 c0       	rjmp	.+2      	; 0x3a72 <SPI_Master_Init+0x94>
    3a70:	1f e0       	ldi	r17, 0x0F	; 15
    3a72:	cc 34       	cpi	r28, 0x4C	; 76
    3a74:	d1 05       	cpc	r29, r1
    3a76:	59 f4       	brne	.+22     	; 0x3a8e <SPI_Master_Init+0xb0>
    3a78:	60 ea       	ldi	r22, 0xA0	; 160
    3a7a:	83 e2       	ldi	r24, 0x23	; 35
    3a7c:	90 e0       	ldi	r25, 0x00	; 0
    3a7e:	0e 94 d8 10 	call	0x21b0	; 0x21b0 <GPIO_Output_Init>
    3a82:	60 e8       	ldi	r22, 0x80	; 128
    3a84:	83 e2       	ldi	r24, 0x23	; 35
    3a86:	90 e0       	ldi	r25, 0x00	; 0
    3a88:	0e 94 e2 10 	call	0x21c4	; 0x21c4 <GPIO_Output_Clear>
    3a8c:	14 c0       	rjmp	.+40     	; 0x3ab6 <SPI_Master_Init+0xd8>
    3a8e:	cc 3a       	cpi	r28, 0xAC	; 172
    3a90:	d1 05       	cpc	r29, r1
    3a92:	81 f4       	brne	.+32     	; 0x3ab4 <SPI_Master_Init+0xd6>
    3a94:	60 e8       	ldi	r22, 0x80	; 128
    3a96:	89 e2       	ldi	r24, 0x29	; 41
    3a98:	90 e0       	ldi	r25, 0x00	; 0
    3a9a:	0e 94 d8 10 	call	0x21b0	; 0x21b0 <GPIO_Output_Init>
    3a9e:	68 e0       	ldi	r22, 0x08	; 8
    3aa0:	8c e2       	ldi	r24, 0x2C	; 44
    3aa2:	90 e0       	ldi	r25, 0x00	; 0
    3aa4:	0e 94 d8 10 	call	0x21b0	; 0x21b0 <GPIO_Output_Init>
    3aa8:	60 e8       	ldi	r22, 0x80	; 128
    3aaa:	89 e2       	ldi	r24, 0x29	; 41
    3aac:	90 e0       	ldi	r25, 0x00	; 0
    3aae:	0e 94 e2 10 	call	0x21c4	; 0x21c4 <GPIO_Output_Clear>
    3ab2:	01 c0       	rjmp	.+2      	; 0x3ab6 <SPI_Master_Init+0xd8>
    3ab4:	1e e0       	ldi	r17, 0x0E	; 14
    3ab6:	81 2f       	mov	r24, r17
    3ab8:	df 91       	pop	r29
    3aba:	cf 91       	pop	r28
    3abc:	1f 91       	pop	r17
    3abe:	08 95       	ret

00003ac0 <SPI_Transmit>:
    3ac0:	fc 01       	movw	r30, r24
    3ac2:	62 83       	std	Z+2, r22	; 0x02
    3ac4:	90 e0       	ldi	r25, 0x00	; 0
    3ac6:	21 81       	ldd	r18, Z+1	; 0x01
    3ac8:	9f 5f       	subi	r25, 0xFF	; 255
    3aca:	22 23       	and	r18, r18
    3acc:	14 f0       	brlt	.+4      	; 0x3ad2 <SPI_Transmit+0x12>
    3ace:	91 11       	cpse	r25, r1
    3ad0:	fa cf       	rjmp	.-12     	; 0x3ac6 <SPI_Transmit+0x6>
    3ad2:	99 23       	and	r25, r25
    3ad4:	21 f0       	breq	.+8      	; 0x3ade <SPI_Transmit+0x1e>
    3ad6:	26 fd       	sbrc	r18, 6
    3ad8:	04 c0       	rjmp	.+8      	; 0x3ae2 <SPI_Transmit+0x22>
    3ada:	80 e0       	ldi	r24, 0x00	; 0
    3adc:	08 95       	ret
    3ade:	80 e8       	ldi	r24, 0x80	; 128
    3ae0:	08 95       	ret
    3ae2:	80 ec       	ldi	r24, 0xC0	; 192
    3ae4:	08 95       	ret

00003ae6 <SPI_Receive>:
    3ae6:	fc 01       	movw	r30, r24
    3ae8:	8f ef       	ldi	r24, 0xFF	; 255
    3aea:	82 83       	std	Z+2, r24	; 0x02
    3aec:	90 e0       	ldi	r25, 0x00	; 0
    3aee:	21 81       	ldd	r18, Z+1	; 0x01
    3af0:	9f 5f       	subi	r25, 0xFF	; 255
    3af2:	22 23       	and	r18, r18
    3af4:	14 f0       	brlt	.+4      	; 0x3afa <SPI_Receive+0x14>
    3af6:	91 11       	cpse	r25, r1
    3af8:	fa cf       	rjmp	.-12     	; 0x3aee <SPI_Receive+0x8>
    3afa:	99 23       	and	r25, r25
    3afc:	61 f0       	breq	.+24     	; 0x3b16 <SPI_Receive+0x30>
    3afe:	26 fd       	sbrc	r18, 6
    3b00:	05 c0       	rjmp	.+10     	; 0x3b0c <SPI_Receive+0x26>
    3b02:	82 81       	ldd	r24, Z+2	; 0x02
    3b04:	fb 01       	movw	r30, r22
    3b06:	80 83       	st	Z, r24
    3b08:	80 e0       	ldi	r24, 0x00	; 0
    3b0a:	08 95       	ret
    3b0c:	8f ef       	ldi	r24, 0xFF	; 255
    3b0e:	fb 01       	movw	r30, r22
    3b10:	80 83       	st	Z, r24
    3b12:	80 ec       	ldi	r24, 0xC0	; 192
    3b14:	08 95       	ret
    3b16:	8f ef       	ldi	r24, 0xFF	; 255
    3b18:	fb 01       	movw	r30, r22
    3b1a:	80 83       	st	Z, r24
    3b1c:	80 e8       	ldi	r24, 0x80	; 128
    3b1e:	08 95       	ret

00003b20 <STA013_Init>:
    3b20:	4f 92       	push	r4
    3b22:	5f 92       	push	r5
    3b24:	6f 92       	push	r6
    3b26:	7f 92       	push	r7
    3b28:	8f 92       	push	r8
    3b2a:	9f 92       	push	r9
    3b2c:	af 92       	push	r10
    3b2e:	bf 92       	push	r11
    3b30:	cf 92       	push	r12
    3b32:	df 92       	push	r13
    3b34:	ef 92       	push	r14
    3b36:	ff 92       	push	r15
    3b38:	0f 93       	push	r16
    3b3a:	1f 93       	push	r17
    3b3c:	cf 93       	push	r28
    3b3e:	df 93       	push	r29
    3b40:	00 d0       	rcall	.+0      	; 0x3b42 <STA013_Init+0x22>
    3b42:	00 d0       	rcall	.+0      	; 0x3b44 <STA013_Init+0x24>
    3b44:	1f 92       	push	r1
    3b46:	cd b7       	in	r28, 0x3d	; 61
    3b48:	de b7       	in	r29, 0x3e	; 62
    3b4a:	62 e0       	ldi	r22, 0x02	; 2
    3b4c:	83 e2       	ldi	r24, 0x23	; 35
    3b4e:	90 e0       	ldi	r25, 0x00	; 0
    3b50:	0e 94 e2 10 	call	0x21c4	; 0x21c4 <GPIO_Output_Clear>
    3b54:	62 e0       	ldi	r22, 0x02	; 2
    3b56:	83 e2       	ldi	r24, 0x23	; 35
    3b58:	90 e0       	ldi	r25, 0x00	; 0
    3b5a:	0e 94 d8 10 	call	0x21b0	; 0x21b0 <GPIO_Output_Init>
    3b5e:	0e 94 49 22 	call	0x4492	; 0x4492 <Export_print_buffer>
    3b62:	5c 01       	movw	r10, r24
    3b64:	62 e0       	ldi	r22, 0x02	; 2
    3b66:	83 e2       	ldi	r24, 0x23	; 35
    3b68:	90 e0       	ldi	r25, 0x00	; 0
    3b6a:	0e 94 dd 10 	call	0x21ba	; 0x21ba <GPIO_Output_Set>
    3b6e:	12 e3       	ldi	r17, 0x32	; 50
    3b70:	9e 01       	movw	r18, r28
    3b72:	2d 5f       	subi	r18, 0xFD	; 253
    3b74:	3f 4f       	sbci	r19, 0xFF	; 255
    3b76:	69 01       	movw	r12, r18
    3b78:	0f 2e       	mov	r0, r31
    3b7a:	f3 e0       	ldi	r31, 0x03	; 3
    3b7c:	ef 2e       	mov	r14, r31
    3b7e:	f0 2d       	mov	r31, r0
    3b80:	00 e0       	ldi	r16, 0x00	; 0
    3b82:	21 e0       	ldi	r18, 0x01	; 1
    3b84:	30 e0       	ldi	r19, 0x00	; 0
    3b86:	40 e0       	ldi	r20, 0x00	; 0
    3b88:	50 e0       	ldi	r21, 0x00	; 0
    3b8a:	63 e4       	ldi	r22, 0x43	; 67
    3b8c:	88 ed       	ldi	r24, 0xD8	; 216
    3b8e:	90 e0       	ldi	r25, 0x00	; 0
    3b90:	0e 94 55 21 	call	0x42aa	; 0x42aa <TWI_Master_Receive>
    3b94:	08 2f       	mov	r16, r24
    3b96:	11 50       	subi	r17, 0x01	; 1
    3b98:	88 23       	and	r24, r24
    3b9a:	11 f0       	breq	.+4      	; 0x3ba0 <STA013_Init+0x80>
    3b9c:	11 11       	cpse	r17, r1
    3b9e:	e8 cf       	rjmp	.-48     	; 0x3b70 <STA013_Init+0x50>
    3ba0:	11 23       	and	r17, r17
    3ba2:	11 f1       	breq	.+68     	; 0x3be8 <STA013_Init+0xc8>
    3ba4:	a5 01       	movw	r20, r10
    3ba6:	60 e0       	ldi	r22, 0x00	; 0
    3ba8:	82 ec       	ldi	r24, 0xC2	; 194
    3baa:	95 e1       	ldi	r25, 0x15	; 21
    3bac:	0e 94 4c 22 	call	0x4498	; 0x4498 <Copy_String_to_Buffer>
    3bb0:	2d 81       	ldd	r18, Y+5	; 0x05
    3bb2:	90 e0       	ldi	r25, 0x00	; 0
    3bb4:	01 97       	sbiw	r24, 0x01	; 1
    3bb6:	1f 92       	push	r1
    3bb8:	2f 93       	push	r18
    3bba:	2d ef       	ldi	r18, 0xFD	; 253
    3bbc:	31 e0       	ldi	r19, 0x01	; 1
    3bbe:	3f 93       	push	r19
    3bc0:	2f 93       	push	r18
    3bc2:	8a 0d       	add	r24, r10
    3bc4:	9b 1d       	adc	r25, r11
    3bc6:	9f 93       	push	r25
    3bc8:	8f 93       	push	r24
    3bca:	0e 94 2f 23 	call	0x465e	; 0x465e <sprintf>
    3bce:	a5 01       	movw	r20, r10
    3bd0:	60 e0       	ldi	r22, 0x00	; 0
    3bd2:	88 ec       	ldi	r24, 0xC8	; 200
    3bd4:	90 e0       	ldi	r25, 0x00	; 0
    3bd6:	0e 94 72 22 	call	0x44e4	; 0x44e4 <UART_Transmit_String>
    3bda:	0f 90       	pop	r0
    3bdc:	0f 90       	pop	r0
    3bde:	0f 90       	pop	r0
    3be0:	0f 90       	pop	r0
    3be2:	0f 90       	pop	r0
    3be4:	0f 90       	pop	r0
    3be6:	20 c0       	rjmp	.+64     	; 0x3c28 <STA013_Init+0x108>
    3be8:	a5 01       	movw	r20, r10
    3bea:	60 e0       	ldi	r22, 0x00	; 0
    3bec:	8c ed       	ldi	r24, 0xDC	; 220
    3bee:	95 e1       	ldi	r25, 0x15	; 21
    3bf0:	0e 94 4c 22 	call	0x4498	; 0x4498 <Copy_String_to_Buffer>
    3bf4:	90 e0       	ldi	r25, 0x00	; 0
    3bf6:	01 97       	sbiw	r24, 0x01	; 1
    3bf8:	1f 92       	push	r1
    3bfa:	0f 93       	push	r16
    3bfc:	2d ef       	ldi	r18, 0xFD	; 253
    3bfe:	31 e0       	ldi	r19, 0x01	; 1
    3c00:	3f 93       	push	r19
    3c02:	2f 93       	push	r18
    3c04:	8a 0d       	add	r24, r10
    3c06:	9b 1d       	adc	r25, r11
    3c08:	9f 93       	push	r25
    3c0a:	8f 93       	push	r24
    3c0c:	0e 94 2f 23 	call	0x465e	; 0x465e <sprintf>
    3c10:	a5 01       	movw	r20, r10
    3c12:	60 e0       	ldi	r22, 0x00	; 0
    3c14:	88 ec       	ldi	r24, 0xC8	; 200
    3c16:	90 e0       	ldi	r25, 0x00	; 0
    3c18:	0e 94 72 22 	call	0x44e4	; 0x44e4 <UART_Transmit_String>
    3c1c:	0f 90       	pop	r0
    3c1e:	0f 90       	pop	r0
    3c20:	0f 90       	pop	r0
    3c22:	0f 90       	pop	r0
    3c24:	0f 90       	pop	r0
    3c26:	0f 90       	pop	r0
    3c28:	12 e3       	ldi	r17, 0x32	; 50
    3c2a:	ce 01       	movw	r24, r28
    3c2c:	03 96       	adiw	r24, 0x03	; 3
    3c2e:	6c 01       	movw	r12, r24
    3c30:	ee 24       	eor	r14, r14
    3c32:	e3 94       	inc	r14
    3c34:	01 e0       	ldi	r16, 0x01	; 1
    3c36:	21 e0       	ldi	r18, 0x01	; 1
    3c38:	30 e0       	ldi	r19, 0x00	; 0
    3c3a:	40 e0       	ldi	r20, 0x00	; 0
    3c3c:	50 e0       	ldi	r21, 0x00	; 0
    3c3e:	63 e4       	ldi	r22, 0x43	; 67
    3c40:	88 ed       	ldi	r24, 0xD8	; 216
    3c42:	90 e0       	ldi	r25, 0x00	; 0
    3c44:	0e 94 55 21 	call	0x42aa	; 0x42aa <TWI_Master_Receive>
    3c48:	08 2f       	mov	r16, r24
    3c4a:	11 50       	subi	r17, 0x01	; 1
    3c4c:	88 23       	and	r24, r24
    3c4e:	11 f0       	breq	.+4      	; 0x3c54 <STA013_Init+0x134>
    3c50:	11 11       	cpse	r17, r1
    3c52:	eb cf       	rjmp	.-42     	; 0x3c2a <STA013_Init+0x10a>
    3c54:	11 23       	and	r17, r17
    3c56:	11 f1       	breq	.+68     	; 0x3c9c <STA013_Init+0x17c>
    3c58:	a5 01       	movw	r20, r10
    3c5a:	60 e0       	ldi	r22, 0x00	; 0
    3c5c:	82 ec       	ldi	r24, 0xC2	; 194
    3c5e:	95 e1       	ldi	r25, 0x15	; 21
    3c60:	0e 94 4c 22 	call	0x4498	; 0x4498 <Copy_String_to_Buffer>
    3c64:	2b 81       	ldd	r18, Y+3	; 0x03
    3c66:	90 e0       	ldi	r25, 0x00	; 0
    3c68:	01 97       	sbiw	r24, 0x01	; 1
    3c6a:	1f 92       	push	r1
    3c6c:	2f 93       	push	r18
    3c6e:	2d ef       	ldi	r18, 0xFD	; 253
    3c70:	31 e0       	ldi	r19, 0x01	; 1
    3c72:	3f 93       	push	r19
    3c74:	2f 93       	push	r18
    3c76:	8a 0d       	add	r24, r10
    3c78:	9b 1d       	adc	r25, r11
    3c7a:	9f 93       	push	r25
    3c7c:	8f 93       	push	r24
    3c7e:	0e 94 2f 23 	call	0x465e	; 0x465e <sprintf>
    3c82:	a5 01       	movw	r20, r10
    3c84:	60 e0       	ldi	r22, 0x00	; 0
    3c86:	88 ec       	ldi	r24, 0xC8	; 200
    3c88:	90 e0       	ldi	r25, 0x00	; 0
    3c8a:	0e 94 72 22 	call	0x44e4	; 0x44e4 <UART_Transmit_String>
    3c8e:	0f 90       	pop	r0
    3c90:	0f 90       	pop	r0
    3c92:	0f 90       	pop	r0
    3c94:	0f 90       	pop	r0
    3c96:	0f 90       	pop	r0
    3c98:	0f 90       	pop	r0
    3c9a:	20 c0       	rjmp	.+64     	; 0x3cdc <STA013_Init+0x1bc>
    3c9c:	a5 01       	movw	r20, r10
    3c9e:	60 e0       	ldi	r22, 0x00	; 0
    3ca0:	8c ed       	ldi	r24, 0xDC	; 220
    3ca2:	95 e1       	ldi	r25, 0x15	; 21
    3ca4:	0e 94 4c 22 	call	0x4498	; 0x4498 <Copy_String_to_Buffer>
    3ca8:	90 e0       	ldi	r25, 0x00	; 0
    3caa:	01 97       	sbiw	r24, 0x01	; 1
    3cac:	1f 92       	push	r1
    3cae:	0f 93       	push	r16
    3cb0:	2d ef       	ldi	r18, 0xFD	; 253
    3cb2:	31 e0       	ldi	r19, 0x01	; 1
    3cb4:	3f 93       	push	r19
    3cb6:	2f 93       	push	r18
    3cb8:	8a 0d       	add	r24, r10
    3cba:	9b 1d       	adc	r25, r11
    3cbc:	9f 93       	push	r25
    3cbe:	8f 93       	push	r24
    3cc0:	0e 94 2f 23 	call	0x465e	; 0x465e <sprintf>
    3cc4:	a5 01       	movw	r20, r10
    3cc6:	60 e0       	ldi	r22, 0x00	; 0
    3cc8:	88 ec       	ldi	r24, 0xC8	; 200
    3cca:	90 e0       	ldi	r25, 0x00	; 0
    3ccc:	0e 94 72 22 	call	0x44e4	; 0x44e4 <UART_Transmit_String>
    3cd0:	0f 90       	pop	r0
    3cd2:	0f 90       	pop	r0
    3cd4:	0f 90       	pop	r0
    3cd6:	0f 90       	pop	r0
    3cd8:	0f 90       	pop	r0
    3cda:	0f 90       	pop	r0
    3cdc:	68 e0       	ldi	r22, 0x08	; 8
    3cde:	83 e2       	ldi	r24, 0x23	; 35
    3ce0:	90 e0       	ldi	r25, 0x00	; 0
    3ce2:	0e 94 ee 10 	call	0x21dc	; 0x21dc <LEDS_On>
    3ce6:	8b 81       	ldd	r24, Y+3	; 0x03
    3ce8:	8c 3a       	cpi	r24, 0xAC	; 172
    3cea:	09 f0       	breq	.+2      	; 0x3cee <STA013_Init+0x1ce>
    3cec:	89 c1       	rjmp	.+786    	; 0x4000 <STA013_Init+0x4e0>
    3cee:	61 2c       	mov	r6, r1
    3cf0:	71 2c       	mov	r7, r1
    3cf2:	81 2c       	mov	r8, r1
    3cf4:	91 2c       	mov	r9, r1
    3cf6:	f4 01       	movw	r30, r8
    3cf8:	e2 50       	subi	r30, 0x02	; 2
    3cfa:	ff 4f       	sbci	r31, 0xFF	; 255
    3cfc:	54 90       	lpm	r5, Z
    3cfe:	f4 01       	movw	r30, r8
    3d00:	e1 50       	subi	r30, 0x01	; 1
    3d02:	ff 4f       	sbci	r31, 0xFF	; 255
    3d04:	e4 91       	lpm	r30, Z
    3d06:	e9 83       	std	Y+1, r30	; 0x01
    3d08:	92 e0       	ldi	r25, 0x02	; 2
    3d0a:	89 0e       	add	r8, r25
    3d0c:	91 1c       	adc	r9, r1
    3d0e:	2f ef       	ldi	r18, 0xFF	; 255
    3d10:	52 16       	cp	r5, r18
    3d12:	b9 f1       	breq	.+110    	; 0x3d82 <STA013_Init+0x262>
    3d14:	ef 3f       	cpi	r30, 0xFF	; 255
    3d16:	a9 f1       	breq	.+106    	; 0x3d82 <STA013_Init+0x262>
    3d18:	12 e3       	ldi	r17, 0x32	; 50
    3d1a:	85 2d       	mov	r24, r5
    3d1c:	90 e0       	ldi	r25, 0x00	; 0
    3d1e:	a0 e0       	ldi	r26, 0x00	; 0
    3d20:	b0 e0       	ldi	r27, 0x00	; 0
    3d22:	9e 01       	movw	r18, r28
    3d24:	2f 5f       	subi	r18, 0xFF	; 255
    3d26:	3f 4f       	sbci	r19, 0xFF	; 255
    3d28:	69 01       	movw	r12, r18
    3d2a:	ee 24       	eor	r14, r14
    3d2c:	e3 94       	inc	r14
    3d2e:	01 e0       	ldi	r16, 0x01	; 1
    3d30:	9c 01       	movw	r18, r24
    3d32:	ad 01       	movw	r20, r26
    3d34:	63 e4       	ldi	r22, 0x43	; 67
    3d36:	88 ed       	ldi	r24, 0xD8	; 216
    3d38:	90 e0       	ldi	r25, 0x00	; 0
    3d3a:	0e 94 51 20 	call	0x40a2	; 0x40a2 <TWI_Master_Transmit>
    3d3e:	08 2f       	mov	r16, r24
    3d40:	11 50       	subi	r17, 0x01	; 1
    3d42:	d9 f4       	brne	.+54     	; 0x3d7a <STA013_Init+0x25a>
    3d44:	60 e8       	ldi	r22, 0x80	; 128
    3d46:	86 e2       	ldi	r24, 0x26	; 38
    3d48:	90 e0       	ldi	r25, 0x00	; 0
    3d4a:	0e 94 ee 10 	call	0x21dc	; 0x21dc <LEDS_On>
    3d4e:	1f 92       	push	r1
    3d50:	0f 93       	push	r16
    3d52:	88 ee       	ldi	r24, 0xE8	; 232
    3d54:	91 e0       	ldi	r25, 0x01	; 1
    3d56:	9f 93       	push	r25
    3d58:	8f 93       	push	r24
    3d5a:	bf 92       	push	r11
    3d5c:	af 92       	push	r10
    3d5e:	0e 94 2f 23 	call	0x465e	; 0x465e <sprintf>
    3d62:	a5 01       	movw	r20, r10
    3d64:	60 e0       	ldi	r22, 0x00	; 0
    3d66:	88 ec       	ldi	r24, 0xC8	; 200
    3d68:	90 e0       	ldi	r25, 0x00	; 0
    3d6a:	0e 94 72 22 	call	0x44e4	; 0x44e4 <UART_Transmit_String>
    3d6e:	0f 90       	pop	r0
    3d70:	0f 90       	pop	r0
    3d72:	0f 90       	pop	r0
    3d74:	0f 90       	pop	r0
    3d76:	0f 90       	pop	r0
    3d78:	0f 90       	pop	r0
    3d7a:	00 23       	and	r16, r16
    3d7c:	11 f0       	breq	.+4      	; 0x3d82 <STA013_Init+0x262>
    3d7e:	11 11       	cpse	r17, r1
    3d80:	cc cf       	rjmp	.-104    	; 0x3d1a <STA013_Init+0x1fa>
    3d82:	01 11       	cpse	r16, r1
    3d84:	05 c0       	rjmp	.+10     	; 0x3d90 <STA013_Init+0x270>
    3d86:	11 23       	and	r17, r17
    3d88:	19 f0       	breq	.+6      	; 0x3d90 <STA013_Init+0x270>
    3d8a:	3f ef       	ldi	r19, 0xFF	; 255
    3d8c:	63 1a       	sub	r6, r19
    3d8e:	73 0a       	sbc	r7, r19
    3d90:	8f ef       	ldi	r24, 0xFF	; 255
    3d92:	58 12       	cpse	r5, r24
    3d94:	03 c0       	rjmp	.+6      	; 0x3d9c <STA013_Init+0x27c>
    3d96:	89 81       	ldd	r24, Y+1	; 0x01
    3d98:	8f 3f       	cpi	r24, 0xFF	; 255
    3d9a:	11 f0       	breq	.+4      	; 0x3da0 <STA013_Init+0x280>
    3d9c:	11 11       	cpse	r17, r1
    3d9e:	ab cf       	rjmp	.-170    	; 0x3cf6 <STA013_Init+0x1d6>
    3da0:	a5 01       	movw	r20, r10
    3da2:	60 e0       	ldi	r22, 0x00	; 0
    3da4:	8f e9       	ldi	r24, 0x9F	; 159
    3da6:	95 e1       	ldi	r25, 0x15	; 21
    3da8:	0e 94 4c 22 	call	0x4498	; 0x4498 <Copy_String_to_Buffer>
    3dac:	a5 01       	movw	r20, r10
    3dae:	60 e0       	ldi	r22, 0x00	; 0
    3db0:	88 ec       	ldi	r24, 0xC8	; 200
    3db2:	90 e0       	ldi	r25, 0x00	; 0
    3db4:	0e 94 72 22 	call	0x44e4	; 0x44e4 <UART_Transmit_String>
    3db8:	a5 01       	movw	r20, r10
    3dba:	60 e0       	ldi	r22, 0x00	; 0
    3dbc:	80 e6       	ldi	r24, 0x60	; 96
    3dbe:	95 e1       	ldi	r25, 0x15	; 21
    3dc0:	0e 94 4c 22 	call	0x4498	; 0x4498 <Copy_String_to_Buffer>
    3dc4:	90 e0       	ldi	r25, 0x00	; 0
    3dc6:	01 97       	sbiw	r24, 0x01	; 1
    3dc8:	7f 92       	push	r7
    3dca:	6f 92       	push	r6
    3dcc:	2d ee       	ldi	r18, 0xED	; 237
    3dce:	31 e0       	ldi	r19, 0x01	; 1
    3dd0:	3f 93       	push	r19
    3dd2:	2f 93       	push	r18
    3dd4:	8a 0d       	add	r24, r10
    3dd6:	9b 1d       	adc	r25, r11
    3dd8:	9f 93       	push	r25
    3dda:	8f 93       	push	r24
    3ddc:	0e 94 2f 23 	call	0x465e	; 0x465e <sprintf>
    3de0:	a5 01       	movw	r20, r10
    3de2:	60 e0       	ldi	r22, 0x00	; 0
    3de4:	88 ec       	ldi	r24, 0xC8	; 200
    3de6:	90 e0       	ldi	r25, 0x00	; 0
    3de8:	0e 94 72 22 	call	0x44e4	; 0x44e4 <UART_Transmit_String>
    3dec:	60 e1       	ldi	r22, 0x10	; 16
    3dee:	8c e2       	ldi	r24, 0x2C	; 44
    3df0:	90 e0       	ldi	r25, 0x00	; 0
    3df2:	0e 94 ee 10 	call	0x21dc	; 0x21dc <LEDS_On>
    3df6:	0f 90       	pop	r0
    3df8:	0f 90       	pop	r0
    3dfa:	0f 90       	pop	r0
    3dfc:	0f 90       	pop	r0
    3dfe:	0f 90       	pop	r0
    3e00:	0f 90       	pop	r0
    3e02:	61 2c       	mov	r6, r1
    3e04:	71 2c       	mov	r7, r1
    3e06:	81 2c       	mov	r8, r1
    3e08:	91 2c       	mov	r9, r1
    3e0a:	f4 01       	movw	r30, r8
    3e0c:	e4 53       	subi	r30, 0x34	; 52
    3e0e:	ff 4f       	sbci	r31, 0xFF	; 255
    3e10:	54 90       	lpm	r5, Z
    3e12:	f4 01       	movw	r30, r8
    3e14:	e3 53       	subi	r30, 0x33	; 51
    3e16:	ff 4f       	sbci	r31, 0xFF	; 255
    3e18:	e4 91       	lpm	r30, Z
    3e1a:	e9 83       	std	Y+1, r30	; 0x01
    3e1c:	92 e0       	ldi	r25, 0x02	; 2
    3e1e:	89 0e       	add	r8, r25
    3e20:	91 1c       	adc	r9, r1
    3e22:	2f ef       	ldi	r18, 0xFF	; 255
    3e24:	52 16       	cp	r5, r18
    3e26:	d9 f0       	breq	.+54     	; 0x3e5e <STA013_Init+0x33e>
    3e28:	ef 3f       	cpi	r30, 0xFF	; 255
    3e2a:	c9 f0       	breq	.+50     	; 0x3e5e <STA013_Init+0x33e>
    3e2c:	12 e3       	ldi	r17, 0x32	; 50
    3e2e:	85 2d       	mov	r24, r5
    3e30:	90 e0       	ldi	r25, 0x00	; 0
    3e32:	a0 e0       	ldi	r26, 0x00	; 0
    3e34:	b0 e0       	ldi	r27, 0x00	; 0
    3e36:	9e 01       	movw	r18, r28
    3e38:	2f 5f       	subi	r18, 0xFF	; 255
    3e3a:	3f 4f       	sbci	r19, 0xFF	; 255
    3e3c:	69 01       	movw	r12, r18
    3e3e:	ee 24       	eor	r14, r14
    3e40:	e3 94       	inc	r14
    3e42:	01 e0       	ldi	r16, 0x01	; 1
    3e44:	9c 01       	movw	r18, r24
    3e46:	ad 01       	movw	r20, r26
    3e48:	63 e4       	ldi	r22, 0x43	; 67
    3e4a:	88 ed       	ldi	r24, 0xD8	; 216
    3e4c:	90 e0       	ldi	r25, 0x00	; 0
    3e4e:	0e 94 51 20 	call	0x40a2	; 0x40a2 <TWI_Master_Transmit>
    3e52:	08 2f       	mov	r16, r24
    3e54:	11 50       	subi	r17, 0x01	; 1
    3e56:	88 23       	and	r24, r24
    3e58:	11 f0       	breq	.+4      	; 0x3e5e <STA013_Init+0x33e>
    3e5a:	11 11       	cpse	r17, r1
    3e5c:	e8 cf       	rjmp	.-48     	; 0x3e2e <STA013_Init+0x30e>
    3e5e:	01 11       	cpse	r16, r1
    3e60:	05 c0       	rjmp	.+10     	; 0x3e6c <STA013_Init+0x34c>
    3e62:	11 23       	and	r17, r17
    3e64:	19 f0       	breq	.+6      	; 0x3e6c <STA013_Init+0x34c>
    3e66:	3f ef       	ldi	r19, 0xFF	; 255
    3e68:	63 1a       	sub	r6, r19
    3e6a:	73 0a       	sbc	r7, r19
    3e6c:	8f ef       	ldi	r24, 0xFF	; 255
    3e6e:	58 12       	cpse	r5, r24
    3e70:	03 c0       	rjmp	.+6      	; 0x3e78 <STA013_Init+0x358>
    3e72:	89 81       	ldd	r24, Y+1	; 0x01
    3e74:	8f 3f       	cpi	r24, 0xFF	; 255
    3e76:	29 f0       	breq	.+10     	; 0x3e82 <STA013_Init+0x362>
    3e78:	11 23       	and	r17, r17
    3e7a:	19 f0       	breq	.+6      	; 0x3e82 <STA013_Init+0x362>
    3e7c:	00 23       	and	r16, r16
    3e7e:	09 f4       	brne	.+2      	; 0x3e82 <STA013_Init+0x362>
    3e80:	c4 cf       	rjmp	.-120    	; 0x3e0a <STA013_Init+0x2ea>
    3e82:	a5 01       	movw	r20, r10
    3e84:	60 e0       	ldi	r22, 0x00	; 0
    3e86:	8b e7       	ldi	r24, 0x7B	; 123
    3e88:	95 e1       	ldi	r25, 0x15	; 21
    3e8a:	0e 94 4c 22 	call	0x4498	; 0x4498 <Copy_String_to_Buffer>
    3e8e:	a5 01       	movw	r20, r10
    3e90:	60 e0       	ldi	r22, 0x00	; 0
    3e92:	88 ec       	ldi	r24, 0xC8	; 200
    3e94:	90 e0       	ldi	r25, 0x00	; 0
    3e96:	0e 94 72 22 	call	0x44e4	; 0x44e4 <UART_Transmit_String>
    3e9a:	a5 01       	movw	r20, r10
    3e9c:	60 e0       	ldi	r22, 0x00	; 0
    3e9e:	80 e6       	ldi	r24, 0x60	; 96
    3ea0:	95 e1       	ldi	r25, 0x15	; 21
    3ea2:	0e 94 4c 22 	call	0x4498	; 0x4498 <Copy_String_to_Buffer>
    3ea6:	90 e0       	ldi	r25, 0x00	; 0
    3ea8:	01 97       	sbiw	r24, 0x01	; 1
    3eaa:	7f 92       	push	r7
    3eac:	6f 92       	push	r6
    3eae:	2d ee       	ldi	r18, 0xED	; 237
    3eb0:	31 e0       	ldi	r19, 0x01	; 1
    3eb2:	3f 93       	push	r19
    3eb4:	2f 93       	push	r18
    3eb6:	8a 0d       	add	r24, r10
    3eb8:	9b 1d       	adc	r25, r11
    3eba:	9f 93       	push	r25
    3ebc:	8f 93       	push	r24
    3ebe:	0e 94 2f 23 	call	0x465e	; 0x465e <sprintf>
    3ec2:	a5 01       	movw	r20, r10
    3ec4:	60 e0       	ldi	r22, 0x00	; 0
    3ec6:	88 ec       	ldi	r24, 0xC8	; 200
    3ec8:	90 e0       	ldi	r25, 0x00	; 0
    3eca:	0e 94 72 22 	call	0x44e4	; 0x44e4 <UART_Transmit_String>
    3ece:	60 e8       	ldi	r22, 0x80	; 128
    3ed0:	80 e2       	ldi	r24, 0x20	; 32
    3ed2:	90 e0       	ldi	r25, 0x00	; 0
    3ed4:	0e 94 ee 10 	call	0x21dc	; 0x21dc <LEDS_On>
    3ed8:	0f 90       	pop	r0
    3eda:	0f 90       	pop	r0
    3edc:	0f 90       	pop	r0
    3ede:	0f 90       	pop	r0
    3ee0:	0f 90       	pop	r0
    3ee2:	0f 90       	pop	r0
    3ee4:	81 2c       	mov	r8, r1
    3ee6:	91 2c       	mov	r9, r1
    3ee8:	7a c0       	rjmp	.+244    	; 0x3fde <STA013_Init+0x4be>
    3eea:	f4 01       	movw	r30, r8
    3eec:	e5 50       	subi	r30, 0x05	; 5
    3eee:	fa 4e       	sbci	r31, 0xEA	; 234
    3ef0:	f4 90       	lpm	r15, Z
    3ef2:	f4 01       	movw	r30, r8
    3ef4:	e7 51       	subi	r30, 0x17	; 23
    3ef6:	fa 4e       	sbci	r31, 0xEA	; 234
    3ef8:	e4 91       	lpm	r30, Z
    3efa:	e9 83       	std	Y+1, r30	; 0x01
    3efc:	12 e3       	ldi	r17, 0x32	; 50
    3efe:	4f 2c       	mov	r4, r15
    3f00:	51 2c       	mov	r5, r1
    3f02:	61 2c       	mov	r6, r1
    3f04:	71 2c       	mov	r7, r1
    3f06:	9e 01       	movw	r18, r28
    3f08:	2f 5f       	subi	r18, 0xFF	; 255
    3f0a:	3f 4f       	sbci	r19, 0xFF	; 255
    3f0c:	69 01       	movw	r12, r18
    3f0e:	ee 24       	eor	r14, r14
    3f10:	e3 94       	inc	r14
    3f12:	01 e0       	ldi	r16, 0x01	; 1
    3f14:	a3 01       	movw	r20, r6
    3f16:	92 01       	movw	r18, r4
    3f18:	63 e4       	ldi	r22, 0x43	; 67
    3f1a:	88 ed       	ldi	r24, 0xD8	; 216
    3f1c:	90 e0       	ldi	r25, 0x00	; 0
    3f1e:	0e 94 51 20 	call	0x40a2	; 0x40a2 <TWI_Master_Transmit>
    3f22:	08 2f       	mov	r16, r24
    3f24:	11 50       	subi	r17, 0x01	; 1
    3f26:	29 f4       	brne	.+10     	; 0x3f32 <STA013_Init+0x412>
    3f28:	60 e8       	ldi	r22, 0x80	; 128
    3f2a:	86 e2       	ldi	r24, 0x26	; 38
    3f2c:	90 e0       	ldi	r25, 0x00	; 0
    3f2e:	0e 94 ee 10 	call	0x21dc	; 0x21dc <LEDS_On>
    3f32:	00 23       	and	r16, r16
    3f34:	11 f0       	breq	.+4      	; 0x3f3a <STA013_Init+0x41a>
    3f36:	11 11       	cpse	r17, r1
    3f38:	e2 cf       	rjmp	.-60     	; 0x3efe <STA013_Init+0x3de>
    3f3a:	a5 01       	movw	r20, r10
    3f3c:	60 e0       	ldi	r22, 0x00	; 0
    3f3e:	8f e4       	ldi	r24, 0x4F	; 79
    3f40:	95 e1       	ldi	r25, 0x15	; 21
    3f42:	0e 94 4c 22 	call	0x4498	; 0x4498 <Copy_String_to_Buffer>
    3f46:	29 81       	ldd	r18, Y+1	; 0x01
    3f48:	90 e0       	ldi	r25, 0x00	; 0
    3f4a:	01 97       	sbiw	r24, 0x01	; 1
    3f4c:	1f 92       	push	r1
    3f4e:	2f 93       	push	r18
    3f50:	1f 92       	push	r1
    3f52:	ff 92       	push	r15
    3f54:	26 ef       	ldi	r18, 0xF6	; 246
    3f56:	31 e0       	ldi	r19, 0x01	; 1
    3f58:	3f 93       	push	r19
    3f5a:	2f 93       	push	r18
    3f5c:	8a 0d       	add	r24, r10
    3f5e:	9b 1d       	adc	r25, r11
    3f60:	9f 93       	push	r25
    3f62:	8f 93       	push	r24
    3f64:	0e 94 2f 23 	call	0x465e	; 0x465e <sprintf>
    3f68:	a5 01       	movw	r20, r10
    3f6a:	60 e0       	ldi	r22, 0x00	; 0
    3f6c:	88 ec       	ldi	r24, 0xC8	; 200
    3f6e:	90 e0       	ldi	r25, 0x00	; 0
    3f70:	0e 94 72 22 	call	0x44e4	; 0x44e4 <UART_Transmit_String>
    3f74:	ce 01       	movw	r24, r28
    3f76:	03 96       	adiw	r24, 0x03	; 3
    3f78:	6c 01       	movw	r12, r24
    3f7a:	ee 24       	eor	r14, r14
    3f7c:	e3 94       	inc	r14
    3f7e:	01 e0       	ldi	r16, 0x01	; 1
    3f80:	a3 01       	movw	r20, r6
    3f82:	92 01       	movw	r18, r4
    3f84:	63 e4       	ldi	r22, 0x43	; 67
    3f86:	88 ed       	ldi	r24, 0xD8	; 216
    3f88:	90 e0       	ldi	r25, 0x00	; 0
    3f8a:	0e 94 55 21 	call	0x42aa	; 0x42aa <TWI_Master_Receive>
    3f8e:	08 2f       	mov	r16, r24
    3f90:	a5 01       	movw	r20, r10
    3f92:	60 e0       	ldi	r22, 0x00	; 0
    3f94:	8a e3       	ldi	r24, 0x3A	; 58
    3f96:	95 e1       	ldi	r25, 0x15	; 21
    3f98:	0e 94 4c 22 	call	0x4498	; 0x4498 <Copy_String_to_Buffer>
    3f9c:	2b 81       	ldd	r18, Y+3	; 0x03
    3f9e:	90 e0       	ldi	r25, 0x00	; 0
    3fa0:	01 97       	sbiw	r24, 0x01	; 1
    3fa2:	1f 92       	push	r1
    3fa4:	0f 93       	push	r16
    3fa6:	1f 92       	push	r1
    3fa8:	2f 93       	push	r18
    3faa:	1f 92       	push	r1
    3fac:	ff 92       	push	r15
    3fae:	26 e0       	ldi	r18, 0x06	; 6
    3fb0:	32 e0       	ldi	r19, 0x02	; 2
    3fb2:	3f 93       	push	r19
    3fb4:	2f 93       	push	r18
    3fb6:	8a 0d       	add	r24, r10
    3fb8:	9b 1d       	adc	r25, r11
    3fba:	9f 93       	push	r25
    3fbc:	8f 93       	push	r24
    3fbe:	0e 94 2f 23 	call	0x465e	; 0x465e <sprintf>
    3fc2:	a5 01       	movw	r20, r10
    3fc4:	60 e0       	ldi	r22, 0x00	; 0
    3fc6:	88 ec       	ldi	r24, 0xC8	; 200
    3fc8:	90 e0       	ldi	r25, 0x00	; 0
    3fca:	0e 94 72 22 	call	0x44e4	; 0x44e4 <UART_Transmit_String>
    3fce:	9f ef       	ldi	r25, 0xFF	; 255
    3fd0:	89 1a       	sub	r8, r25
    3fd2:	99 0a       	sbc	r9, r25
    3fd4:	0f b6       	in	r0, 0x3f	; 63
    3fd6:	f8 94       	cli
    3fd8:	de bf       	out	0x3e, r29	; 62
    3fda:	0f be       	out	0x3f, r0	; 63
    3fdc:	cd bf       	out	0x3d, r28	; 61
    3fde:	32 e1       	ldi	r19, 0x12	; 18
    3fe0:	83 16       	cp	r8, r19
    3fe2:	91 04       	cpc	r9, r1
    3fe4:	08 f4       	brcc	.+2      	; 0x3fe8 <STA013_Init+0x4c8>
    3fe6:	81 cf       	rjmp	.-254    	; 0x3eea <STA013_Init+0x3ca>
    3fe8:	a5 01       	movw	r20, r10
    3fea:	60 e0       	ldi	r22, 0x00	; 0
    3fec:	81 e2       	ldi	r24, 0x21	; 33
    3fee:	95 e1       	ldi	r25, 0x15	; 21
    3ff0:	0e 94 4c 22 	call	0x4498	; 0x4498 <Copy_String_to_Buffer>
    3ff4:	a5 01       	movw	r20, r10
    3ff6:	60 e0       	ldi	r22, 0x00	; 0
    3ff8:	88 ec       	ldi	r24, 0xC8	; 200
    3ffa:	90 e0       	ldi	r25, 0x00	; 0
    3ffc:	0e 94 72 22 	call	0x44e4	; 0x44e4 <UART_Transmit_String>
    4000:	68 e0       	ldi	r22, 0x08	; 8
    4002:	83 e2       	ldi	r24, 0x23	; 35
    4004:	90 e0       	ldi	r25, 0x00	; 0
    4006:	0e 94 eb 10 	call	0x21d6	; 0x21d6 <LEDS_Off>
    400a:	60 e1       	ldi	r22, 0x10	; 16
    400c:	8c e2       	ldi	r24, 0x2C	; 44
    400e:	90 e0       	ldi	r25, 0x00	; 0
    4010:	0e 94 eb 10 	call	0x21d6	; 0x21d6 <LEDS_Off>
    4014:	60 e8       	ldi	r22, 0x80	; 128
    4016:	80 e2       	ldi	r24, 0x20	; 32
    4018:	90 e0       	ldi	r25, 0x00	; 0
    401a:	0e 94 eb 10 	call	0x21d6	; 0x21d6 <LEDS_Off>
    401e:	80 2f       	mov	r24, r16
    4020:	0f 90       	pop	r0
    4022:	0f 90       	pop	r0
    4024:	0f 90       	pop	r0
    4026:	0f 90       	pop	r0
    4028:	0f 90       	pop	r0
    402a:	df 91       	pop	r29
    402c:	cf 91       	pop	r28
    402e:	1f 91       	pop	r17
    4030:	0f 91       	pop	r16
    4032:	ff 90       	pop	r15
    4034:	ef 90       	pop	r14
    4036:	df 90       	pop	r13
    4038:	cf 90       	pop	r12
    403a:	bf 90       	pop	r11
    403c:	af 90       	pop	r10
    403e:	9f 90       	pop	r9
    4040:	8f 90       	pop	r8
    4042:	7f 90       	pop	r7
    4044:	6f 90       	pop	r6
    4046:	5f 90       	pop	r5
    4048:	4f 90       	pop	r4
    404a:	08 95       	ret

0000404c <TWI_Master_Init>:
    404c:	cf 93       	push	r28
    404e:	df 93       	push	r29
    4050:	ec 01       	movw	r28, r24
    4052:	9a 01       	movw	r18, r20
    4054:	ab 01       	movw	r20, r22
    4056:	60 e0       	ldi	r22, 0x00	; 0
    4058:	74 e2       	ldi	r23, 0x24	; 36
    405a:	84 ef       	ldi	r24, 0xF4	; 244
    405c:	90 e0       	ldi	r25, 0x00	; 0
    405e:	0e 94 b7 22 	call	0x456e	; 0x456e <__udivmodsi4>
    4062:	da 01       	movw	r26, r20
    4064:	c9 01       	movw	r24, r18
    4066:	40 97       	sbiw	r24, 0x10	; 16
    4068:	a1 09       	sbc	r26, r1
    406a:	b1 09       	sbc	r27, r1
    406c:	20 e0       	ldi	r18, 0x00	; 0
    406e:	09 c0       	rjmp	.+18     	; 0x4082 <TWI_Master_Init+0x36>
    4070:	b6 95       	lsr	r27
    4072:	a7 95       	ror	r26
    4074:	97 95       	ror	r25
    4076:	87 95       	ror	r24
    4078:	b6 95       	lsr	r27
    407a:	a7 95       	ror	r26
    407c:	97 95       	ror	r25
    407e:	87 95       	ror	r24
    4080:	2f 5f       	subi	r18, 0xFF	; 255
    4082:	81 30       	cpi	r24, 0x01	; 1
    4084:	31 e0       	ldi	r19, 0x01	; 1
    4086:	93 07       	cpc	r25, r19
    4088:	a1 05       	cpc	r26, r1
    408a:	b1 05       	cpc	r27, r1
    408c:	88 f7       	brcc	.-30     	; 0x4070 <TWI_Master_Init+0x24>
    408e:	24 30       	cpi	r18, 0x04	; 4
    4090:	20 f4       	brcc	.+8      	; 0x409a <TWI_Master_Init+0x4e>
    4092:	29 83       	std	Y+1, r18	; 0x01
    4094:	88 83       	st	Y, r24
    4096:	80 e0       	ldi	r24, 0x00	; 0
    4098:	01 c0       	rjmp	.+2      	; 0x409c <TWI_Master_Init+0x50>
    409a:	87 e8       	ldi	r24, 0x87	; 135
    409c:	df 91       	pop	r29
    409e:	cf 91       	pop	r28
    40a0:	08 95       	ret

000040a2 <TWI_Master_Transmit>:
    40a2:	4f 92       	push	r4
    40a4:	5f 92       	push	r5
    40a6:	6f 92       	push	r6
    40a8:	7f 92       	push	r7
    40aa:	8f 92       	push	r8
    40ac:	9f 92       	push	r9
    40ae:	af 92       	push	r10
    40b0:	bf 92       	push	r11
    40b2:	cf 92       	push	r12
    40b4:	df 92       	push	r13
    40b6:	ef 92       	push	r14
    40b8:	0f 93       	push	r16
    40ba:	cf 93       	push	r28
    40bc:	df 93       	push	r29
    40be:	1f 92       	push	r1
    40c0:	cd b7       	in	r28, 0x3d	; 61
    40c2:	de b7       	in	r29, 0x3e	; 62
    40c4:	fc 01       	movw	r30, r24
    40c6:	49 01       	movw	r8, r18
    40c8:	5a 01       	movw	r10, r20
    40ca:	66 0f       	add	r22, r22
    40cc:	84 ea       	ldi	r24, 0xA4	; 164
    40ce:	84 83       	std	Z+4, r24	; 0x04
    40d0:	80 e0       	ldi	r24, 0x00	; 0
    40d2:	90 e0       	ldi	r25, 0x00	; 0
    40d4:	34 81       	ldd	r19, Z+4	; 0x04
    40d6:	01 96       	adiw	r24, 0x01	; 1
    40d8:	33 23       	and	r19, r19
    40da:	14 f0       	brlt	.+4      	; 0x40e0 <TWI_Master_Transmit+0x3e>
    40dc:	00 97       	sbiw	r24, 0x00	; 0
    40de:	d1 f7       	brne	.-12     	; 0x40d4 <TWI_Master_Transmit+0x32>
    40e0:	89 2b       	or	r24, r25
    40e2:	71 f0       	breq	.+28     	; 0x4100 <TWI_Master_Transmit+0x5e>
    40e4:	81 81       	ldd	r24, Z+1	; 0x01
    40e6:	88 7f       	andi	r24, 0xF8	; 248
    40e8:	89 83       	std	Y+1, r24	; 0x01
    40ea:	89 81       	ldd	r24, Y+1	; 0x01
    40ec:	88 30       	cpi	r24, 0x08	; 8
    40ee:	19 f0       	breq	.+6      	; 0x40f6 <TWI_Master_Transmit+0x54>
    40f0:	89 81       	ldd	r24, Y+1	; 0x01
    40f2:	80 31       	cpi	r24, 0x10	; 16
    40f4:	39 f4       	brne	.+14     	; 0x4104 <TWI_Master_Transmit+0x62>
    40f6:	63 83       	std	Z+3, r22	; 0x03
    40f8:	84 e8       	ldi	r24, 0x84	; 132
    40fa:	84 83       	std	Z+4, r24	; 0x04
    40fc:	80 e0       	ldi	r24, 0x00	; 0
    40fe:	03 c0       	rjmp	.+6      	; 0x4106 <TWI_Master_Transmit+0x64>
    4100:	81 e8       	ldi	r24, 0x81	; 129
    4102:	01 c0       	rjmp	.+2      	; 0x4106 <TWI_Master_Transmit+0x64>
    4104:	81 e8       	ldi	r24, 0x81	; 129
    4106:	00 23       	and	r16, r16
    4108:	09 f4       	brne	.+2      	; 0x410c <TWI_Master_Transmit+0x6a>
    410a:	4e c0       	rjmp	.+156    	; 0x41a8 <TWI_Master_Transmit+0x106>
    410c:	81 11       	cpse	r24, r1
    410e:	4c c0       	rjmp	.+152    	; 0x41a8 <TWI_Master_Transmit+0x106>
    4110:	34 e0       	ldi	r19, 0x04	; 4
    4112:	30 1b       	sub	r19, r16
    4114:	44 c0       	rjmp	.+136    	; 0x419e <TWI_Master_Transmit+0xfc>
    4116:	43 e0       	ldi	r20, 0x03	; 3
    4118:	50 e0       	ldi	r21, 0x00	; 0
    411a:	43 1b       	sub	r20, r19
    411c:	51 09       	sbc	r21, r1
    411e:	44 0f       	add	r20, r20
    4120:	55 1f       	adc	r21, r21
    4122:	44 0f       	add	r20, r20
    4124:	55 1f       	adc	r21, r21
    4126:	44 0f       	add	r20, r20
    4128:	55 1f       	adc	r21, r21
    412a:	24 01       	movw	r4, r8
    412c:	35 01       	movw	r6, r10
    412e:	04 c0       	rjmp	.+8      	; 0x4138 <TWI_Master_Transmit+0x96>
    4130:	76 94       	lsr	r7
    4132:	67 94       	ror	r6
    4134:	57 94       	ror	r5
    4136:	47 94       	ror	r4
    4138:	4a 95       	dec	r20
    413a:	d2 f7       	brpl	.-12     	; 0x4130 <TWI_Master_Transmit+0x8e>
    413c:	b3 01       	movw	r22, r6
    413e:	a2 01       	movw	r20, r4
    4140:	3f 5f       	subi	r19, 0xFF	; 255
    4142:	94 81       	ldd	r25, Z+4	; 0x04
    4144:	99 23       	and	r25, r25
    4146:	ec f7       	brge	.-6      	; 0x4142 <TWI_Master_Transmit+0xa0>
    4148:	91 81       	ldd	r25, Z+1	; 0x01
    414a:	98 7f       	andi	r25, 0xF8	; 248
    414c:	99 83       	std	Y+1, r25	; 0x01
    414e:	99 81       	ldd	r25, Y+1	; 0x01
    4150:	98 31       	cpi	r25, 0x18	; 24
    4152:	21 f4       	brne	.+8      	; 0x415c <TWI_Master_Transmit+0xba>
    4154:	43 83       	std	Z+3, r20	; 0x03
    4156:	94 e8       	ldi	r25, 0x84	; 132
    4158:	94 83       	std	Z+4, r25	; 0x04
    415a:	21 c0       	rjmp	.+66     	; 0x419e <TWI_Master_Transmit+0xfc>
    415c:	99 81       	ldd	r25, Y+1	; 0x01
    415e:	98 32       	cpi	r25, 0x28	; 40
    4160:	21 f4       	brne	.+8      	; 0x416a <TWI_Master_Transmit+0xc8>
    4162:	43 83       	std	Z+3, r20	; 0x03
    4164:	94 e8       	ldi	r25, 0x84	; 132
    4166:	94 83       	std	Z+4, r25	; 0x04
    4168:	1a c0       	rjmp	.+52     	; 0x419e <TWI_Master_Transmit+0xfc>
    416a:	99 81       	ldd	r25, Y+1	; 0x01
    416c:	90 32       	cpi	r25, 0x20	; 32
    416e:	39 f4       	brne	.+14     	; 0x417e <TWI_Master_Transmit+0xdc>
    4170:	84 e9       	ldi	r24, 0x94	; 148
    4172:	84 83       	std	Z+4, r24	; 0x04
    4174:	84 81       	ldd	r24, Z+4	; 0x04
    4176:	84 fd       	sbrc	r24, 4
    4178:	fd cf       	rjmp	.-6      	; 0x4174 <TWI_Master_Transmit+0xd2>
    417a:	82 e8       	ldi	r24, 0x82	; 130
    417c:	10 c0       	rjmp	.+32     	; 0x419e <TWI_Master_Transmit+0xfc>
    417e:	99 81       	ldd	r25, Y+1	; 0x01
    4180:	90 33       	cpi	r25, 0x30	; 48
    4182:	39 f4       	brne	.+14     	; 0x4192 <TWI_Master_Transmit+0xf0>
    4184:	84 e9       	ldi	r24, 0x94	; 148
    4186:	84 83       	std	Z+4, r24	; 0x04
    4188:	84 81       	ldd	r24, Z+4	; 0x04
    418a:	84 fd       	sbrc	r24, 4
    418c:	fd cf       	rjmp	.-6      	; 0x4188 <TWI_Master_Transmit+0xe6>
    418e:	82 e8       	ldi	r24, 0x82	; 130
    4190:	06 c0       	rjmp	.+12     	; 0x419e <TWI_Master_Transmit+0xfc>
    4192:	99 81       	ldd	r25, Y+1	; 0x01
    4194:	98 33       	cpi	r25, 0x38	; 56
    4196:	19 f4       	brne	.+6      	; 0x419e <TWI_Master_Transmit+0xfc>
    4198:	84 e8       	ldi	r24, 0x84	; 132
    419a:	84 83       	std	Z+4, r24	; 0x04
    419c:	81 e8       	ldi	r24, 0x81	; 129
    419e:	34 30       	cpi	r19, 0x04	; 4
    41a0:	18 f4       	brcc	.+6      	; 0x41a8 <TWI_Master_Transmit+0x106>
    41a2:	88 23       	and	r24, r24
    41a4:	09 f4       	brne	.+2      	; 0x41a8 <TWI_Master_Transmit+0x106>
    41a6:	b7 cf       	rjmp	.-146    	; 0x4116 <TWI_Master_Transmit+0x74>
    41a8:	88 23       	and	r24, r24
    41aa:	b1 f1       	breq	.+108    	; 0x4218 <TWI_Master_Transmit+0x176>
    41ac:	6e c0       	rjmp	.+220    	; 0x428a <TWI_Master_Transmit+0x1e8>
    41ae:	d6 01       	movw	r26, r12
    41b0:	a2 0f       	add	r26, r18
    41b2:	b1 1d       	adc	r27, r1
    41b4:	3c 91       	ld	r19, X
    41b6:	2f 5f       	subi	r18, 0xFF	; 255
    41b8:	ea 94       	dec	r14
    41ba:	94 81       	ldd	r25, Z+4	; 0x04
    41bc:	99 23       	and	r25, r25
    41be:	ec f7       	brge	.-6      	; 0x41ba <TWI_Master_Transmit+0x118>
    41c0:	91 81       	ldd	r25, Z+1	; 0x01
    41c2:	98 7f       	andi	r25, 0xF8	; 248
    41c4:	99 83       	std	Y+1, r25	; 0x01
    41c6:	99 81       	ldd	r25, Y+1	; 0x01
    41c8:	98 31       	cpi	r25, 0x18	; 24
    41ca:	21 f4       	brne	.+8      	; 0x41d4 <TWI_Master_Transmit+0x132>
    41cc:	33 83       	std	Z+3, r19	; 0x03
    41ce:	94 e8       	ldi	r25, 0x84	; 132
    41d0:	94 83       	std	Z+4, r25	; 0x04
    41d2:	23 c0       	rjmp	.+70     	; 0x421a <TWI_Master_Transmit+0x178>
    41d4:	99 81       	ldd	r25, Y+1	; 0x01
    41d6:	98 32       	cpi	r25, 0x28	; 40
    41d8:	21 f4       	brne	.+8      	; 0x41e2 <TWI_Master_Transmit+0x140>
    41da:	33 83       	std	Z+3, r19	; 0x03
    41dc:	94 e8       	ldi	r25, 0x84	; 132
    41de:	94 83       	std	Z+4, r25	; 0x04
    41e0:	1c c0       	rjmp	.+56     	; 0x421a <TWI_Master_Transmit+0x178>
    41e2:	99 81       	ldd	r25, Y+1	; 0x01
    41e4:	90 32       	cpi	r25, 0x20	; 32
    41e6:	39 f4       	brne	.+14     	; 0x41f6 <TWI_Master_Transmit+0x154>
    41e8:	84 e9       	ldi	r24, 0x94	; 148
    41ea:	84 83       	std	Z+4, r24	; 0x04
    41ec:	84 81       	ldd	r24, Z+4	; 0x04
    41ee:	84 fd       	sbrc	r24, 4
    41f0:	fd cf       	rjmp	.-6      	; 0x41ec <TWI_Master_Transmit+0x14a>
    41f2:	82 e8       	ldi	r24, 0x82	; 130
    41f4:	12 c0       	rjmp	.+36     	; 0x421a <TWI_Master_Transmit+0x178>
    41f6:	99 81       	ldd	r25, Y+1	; 0x01
    41f8:	90 33       	cpi	r25, 0x30	; 48
    41fa:	39 f4       	brne	.+14     	; 0x420a <TWI_Master_Transmit+0x168>
    41fc:	84 e9       	ldi	r24, 0x94	; 148
    41fe:	84 83       	std	Z+4, r24	; 0x04
    4200:	84 81       	ldd	r24, Z+4	; 0x04
    4202:	84 fd       	sbrc	r24, 4
    4204:	fd cf       	rjmp	.-6      	; 0x4200 <TWI_Master_Transmit+0x15e>
    4206:	82 e8       	ldi	r24, 0x82	; 130
    4208:	08 c0       	rjmp	.+16     	; 0x421a <TWI_Master_Transmit+0x178>
    420a:	99 81       	ldd	r25, Y+1	; 0x01
    420c:	98 33       	cpi	r25, 0x38	; 56
    420e:	29 f4       	brne	.+10     	; 0x421a <TWI_Master_Transmit+0x178>
    4210:	84 e8       	ldi	r24, 0x84	; 132
    4212:	84 83       	std	Z+4, r24	; 0x04
    4214:	81 e8       	ldi	r24, 0x81	; 129
    4216:	01 c0       	rjmp	.+2      	; 0x421a <TWI_Master_Transmit+0x178>
    4218:	20 e0       	ldi	r18, 0x00	; 0
    421a:	ee 20       	and	r14, r14
    421c:	11 f0       	breq	.+4      	; 0x4222 <TWI_Master_Transmit+0x180>
    421e:	88 23       	and	r24, r24
    4220:	31 f2       	breq	.-116    	; 0x41ae <TWI_Master_Transmit+0x10c>
    4222:	81 11       	cpse	r24, r1
    4224:	32 c0       	rjmp	.+100    	; 0x428a <TWI_Master_Transmit+0x1e8>
    4226:	94 81       	ldd	r25, Z+4	; 0x04
    4228:	99 23       	and	r25, r25
    422a:	ec f7       	brge	.-6      	; 0x4226 <TWI_Master_Transmit+0x184>
    422c:	91 81       	ldd	r25, Z+1	; 0x01
    422e:	98 7f       	andi	r25, 0xF8	; 248
    4230:	99 83       	std	Y+1, r25	; 0x01
    4232:	99 81       	ldd	r25, Y+1	; 0x01
    4234:	98 31       	cpi	r25, 0x18	; 24
    4236:	31 f4       	brne	.+12     	; 0x4244 <TWI_Master_Transmit+0x1a2>
    4238:	94 e9       	ldi	r25, 0x94	; 148
    423a:	94 83       	std	Z+4, r25	; 0x04
    423c:	94 81       	ldd	r25, Z+4	; 0x04
    423e:	94 fd       	sbrc	r25, 4
    4240:	fd cf       	rjmp	.-6      	; 0x423c <TWI_Master_Transmit+0x19a>
    4242:	23 c0       	rjmp	.+70     	; 0x428a <TWI_Master_Transmit+0x1e8>
    4244:	99 81       	ldd	r25, Y+1	; 0x01
    4246:	98 32       	cpi	r25, 0x28	; 40
    4248:	31 f4       	brne	.+12     	; 0x4256 <TWI_Master_Transmit+0x1b4>
    424a:	94 e9       	ldi	r25, 0x94	; 148
    424c:	94 83       	std	Z+4, r25	; 0x04
    424e:	94 81       	ldd	r25, Z+4	; 0x04
    4250:	94 fd       	sbrc	r25, 4
    4252:	fd cf       	rjmp	.-6      	; 0x424e <TWI_Master_Transmit+0x1ac>
    4254:	1a c0       	rjmp	.+52     	; 0x428a <TWI_Master_Transmit+0x1e8>
    4256:	99 81       	ldd	r25, Y+1	; 0x01
    4258:	90 32       	cpi	r25, 0x20	; 32
    425a:	39 f4       	brne	.+14     	; 0x426a <TWI_Master_Transmit+0x1c8>
    425c:	84 e9       	ldi	r24, 0x94	; 148
    425e:	84 83       	std	Z+4, r24	; 0x04
    4260:	84 81       	ldd	r24, Z+4	; 0x04
    4262:	84 fd       	sbrc	r24, 4
    4264:	fd cf       	rjmp	.-6      	; 0x4260 <TWI_Master_Transmit+0x1be>
    4266:	82 e8       	ldi	r24, 0x82	; 130
    4268:	10 c0       	rjmp	.+32     	; 0x428a <TWI_Master_Transmit+0x1e8>
    426a:	99 81       	ldd	r25, Y+1	; 0x01
    426c:	90 33       	cpi	r25, 0x30	; 48
    426e:	39 f4       	brne	.+14     	; 0x427e <TWI_Master_Transmit+0x1dc>
    4270:	84 e9       	ldi	r24, 0x94	; 148
    4272:	84 83       	std	Z+4, r24	; 0x04
    4274:	84 81       	ldd	r24, Z+4	; 0x04
    4276:	84 fd       	sbrc	r24, 4
    4278:	fd cf       	rjmp	.-6      	; 0x4274 <TWI_Master_Transmit+0x1d2>
    427a:	82 e8       	ldi	r24, 0x82	; 130
    427c:	06 c0       	rjmp	.+12     	; 0x428a <TWI_Master_Transmit+0x1e8>
    427e:	99 81       	ldd	r25, Y+1	; 0x01
    4280:	98 33       	cpi	r25, 0x38	; 56
    4282:	19 f4       	brne	.+6      	; 0x428a <TWI_Master_Transmit+0x1e8>
    4284:	84 e8       	ldi	r24, 0x84	; 132
    4286:	84 83       	std	Z+4, r24	; 0x04
    4288:	81 e8       	ldi	r24, 0x81	; 129
    428a:	0f 90       	pop	r0
    428c:	df 91       	pop	r29
    428e:	cf 91       	pop	r28
    4290:	0f 91       	pop	r16
    4292:	ef 90       	pop	r14
    4294:	df 90       	pop	r13
    4296:	cf 90       	pop	r12
    4298:	bf 90       	pop	r11
    429a:	af 90       	pop	r10
    429c:	9f 90       	pop	r9
    429e:	8f 90       	pop	r8
    42a0:	7f 90       	pop	r7
    42a2:	6f 90       	pop	r6
    42a4:	5f 90       	pop	r5
    42a6:	4f 90       	pop	r4
    42a8:	08 95       	ret

000042aa <TWI_Master_Receive>:
    42aa:	8f 92       	push	r8
    42ac:	9f 92       	push	r9
    42ae:	af 92       	push	r10
    42b0:	bf 92       	push	r11
    42b2:	cf 92       	push	r12
    42b4:	df 92       	push	r13
    42b6:	ef 92       	push	r14
    42b8:	ff 92       	push	r15
    42ba:	0f 93       	push	r16
    42bc:	1f 93       	push	r17
    42be:	cf 93       	push	r28
    42c0:	df 93       	push	r29
    42c2:	1f 92       	push	r1
    42c4:	cd b7       	in	r28, 0x3d	; 61
    42c6:	de b7       	in	r29, 0x3e	; 62
    42c8:	5c 01       	movw	r10, r24
    42ca:	f6 2e       	mov	r15, r22
    42cc:	1e 2d       	mov	r17, r14
    42ce:	46 01       	movw	r8, r12
    42d0:	00 23       	and	r16, r16
    42d2:	41 f0       	breq	.+16     	; 0x42e4 <TWI_Master_Receive+0x3a>
    42d4:	ce 01       	movw	r24, r28
    42d6:	01 96       	adiw	r24, 0x01	; 1
    42d8:	6c 01       	movw	r12, r24
    42da:	e1 2c       	mov	r14, r1
    42dc:	c5 01       	movw	r24, r10
    42de:	0e 94 51 20 	call	0x40a2	; 0x40a2 <TWI_Master_Transmit>
    42e2:	01 c0       	rjmp	.+2      	; 0x42e6 <TWI_Master_Receive+0x3c>
    42e4:	80 e0       	ldi	r24, 0x00	; 0
    42e6:	2f 2d       	mov	r18, r15
    42e8:	30 e0       	ldi	r19, 0x00	; 0
    42ea:	22 0f       	add	r18, r18
    42ec:	33 1f       	adc	r19, r19
    42ee:	42 2f       	mov	r20, r18
    42f0:	41 60       	ori	r20, 0x01	; 1
    42f2:	49 83       	std	Y+1, r20	; 0x01
    42f4:	94 ea       	ldi	r25, 0xA4	; 164
    42f6:	d5 01       	movw	r26, r10
    42f8:	14 96       	adiw	r26, 0x04	; 4
    42fa:	9c 93       	st	X, r25
    42fc:	20 e0       	ldi	r18, 0x00	; 0
    42fe:	30 e0       	ldi	r19, 0x00	; 0
    4300:	f5 01       	movw	r30, r10
    4302:	94 81       	ldd	r25, Z+4	; 0x04
    4304:	2f 5f       	subi	r18, 0xFF	; 255
    4306:	3f 4f       	sbci	r19, 0xFF	; 255
    4308:	99 23       	and	r25, r25
    430a:	1c f0       	brlt	.+6      	; 0x4312 <TWI_Master_Receive+0x68>
    430c:	21 15       	cp	r18, r1
    430e:	31 05       	cpc	r19, r1
    4310:	b9 f7       	brne	.-18     	; 0x4300 <TWI_Master_Receive+0x56>
    4312:	23 2b       	or	r18, r19
    4314:	69 f0       	breq	.+26     	; 0x4330 <TWI_Master_Receive+0x86>
    4316:	d5 01       	movw	r26, r10
    4318:	11 96       	adiw	r26, 0x01	; 1
    431a:	9c 91       	ld	r25, X
    431c:	98 7f       	andi	r25, 0xF8	; 248
    431e:	98 30       	cpi	r25, 0x08	; 8
    4320:	11 f0       	breq	.+4      	; 0x4326 <TWI_Master_Receive+0x7c>
    4322:	90 31       	cpi	r25, 0x10	; 16
    4324:	39 f4       	brne	.+14     	; 0x4334 <TWI_Master_Receive+0x8a>
    4326:	f5 01       	movw	r30, r10
    4328:	43 83       	std	Z+3, r20	; 0x03
    432a:	94 e8       	ldi	r25, 0x84	; 132
    432c:	94 83       	std	Z+4, r25	; 0x04
    432e:	03 c0       	rjmp	.+6      	; 0x4336 <TWI_Master_Receive+0x8c>
    4330:	81 e8       	ldi	r24, 0x81	; 129
    4332:	01 c0       	rjmp	.+2      	; 0x4336 <TWI_Master_Receive+0x8c>
    4334:	81 e8       	ldi	r24, 0x81	; 129
    4336:	81 11       	cpse	r24, r1
    4338:	23 c0       	rjmp	.+70     	; 0x4380 <TWI_Master_Receive+0xd6>
    433a:	d5 01       	movw	r26, r10
    433c:	14 96       	adiw	r26, 0x04	; 4
    433e:	9c 91       	ld	r25, X
    4340:	14 97       	sbiw	r26, 0x04	; 4
    4342:	99 23       	and	r25, r25
    4344:	d4 f7       	brge	.-12     	; 0x433a <TWI_Master_Receive+0x90>
    4346:	11 96       	adiw	r26, 0x01	; 1
    4348:	9c 91       	ld	r25, X
    434a:	11 97       	sbiw	r26, 0x01	; 1
    434c:	98 7f       	andi	r25, 0xF8	; 248
    434e:	90 34       	cpi	r25, 0x40	; 64
    4350:	51 f4       	brne	.+20     	; 0x4366 <TWI_Master_Receive+0xbc>
    4352:	11 30       	cpi	r17, 0x01	; 1
    4354:	21 f4       	brne	.+8      	; 0x435e <TWI_Master_Receive+0xb4>
    4356:	94 e8       	ldi	r25, 0x84	; 132
    4358:	14 96       	adiw	r26, 0x04	; 4
    435a:	9c 93       	st	X, r25
    435c:	11 c0       	rjmp	.+34     	; 0x4380 <TWI_Master_Receive+0xd6>
    435e:	94 ec       	ldi	r25, 0xC4	; 196
    4360:	f5 01       	movw	r30, r10
    4362:	94 83       	std	Z+4, r25	; 0x04
    4364:	0d c0       	rjmp	.+26     	; 0x4380 <TWI_Master_Receive+0xd6>
    4366:	98 34       	cpi	r25, 0x48	; 72
    4368:	51 f4       	brne	.+20     	; 0x437e <TWI_Master_Receive+0xd4>
    436a:	84 e9       	ldi	r24, 0x94	; 148
    436c:	d5 01       	movw	r26, r10
    436e:	14 96       	adiw	r26, 0x04	; 4
    4370:	8c 93       	st	X, r24
    4372:	f5 01       	movw	r30, r10
    4374:	84 81       	ldd	r24, Z+4	; 0x04
    4376:	84 fd       	sbrc	r24, 4
    4378:	fc cf       	rjmp	.-8      	; 0x4372 <TWI_Master_Receive+0xc8>
    437a:	82 e8       	ldi	r24, 0x82	; 130
    437c:	01 c0       	rjmp	.+2      	; 0x4380 <TWI_Master_Receive+0xd6>
    437e:	81 e8       	ldi	r24, 0x81	; 129
    4380:	88 23       	and	r24, r24
    4382:	e1 f1       	breq	.+120    	; 0x43fc <TWI_Master_Receive+0x152>
    4384:	41 c0       	rjmp	.+130    	; 0x4408 <TWI_Master_Receive+0x15e>
    4386:	d5 01       	movw	r26, r10
    4388:	14 96       	adiw	r26, 0x04	; 4
    438a:	9c 91       	ld	r25, X
    438c:	14 97       	sbiw	r26, 0x04	; 4
    438e:	99 23       	and	r25, r25
    4390:	d4 f7       	brge	.-12     	; 0x4386 <TWI_Master_Receive+0xdc>
    4392:	11 96       	adiw	r26, 0x01	; 1
    4394:	9c 91       	ld	r25, X
    4396:	11 97       	sbiw	r26, 0x01	; 1
    4398:	98 7f       	andi	r25, 0xF8	; 248
    439a:	90 35       	cpi	r25, 0x50	; 80
    439c:	99 f4       	brne	.+38     	; 0x43c4 <TWI_Master_Receive+0x11a>
    439e:	11 50       	subi	r17, 0x01	; 1
    43a0:	f4 01       	movw	r30, r8
    43a2:	e2 0f       	add	r30, r18
    43a4:	f1 1d       	adc	r31, r1
    43a6:	13 96       	adiw	r26, 0x03	; 3
    43a8:	9c 91       	ld	r25, X
    43aa:	13 97       	sbiw	r26, 0x03	; 3
    43ac:	90 83       	st	Z, r25
    43ae:	2f 5f       	subi	r18, 0xFF	; 255
    43b0:	11 30       	cpi	r17, 0x01	; 1
    43b2:	21 f4       	brne	.+8      	; 0x43bc <TWI_Master_Receive+0x112>
    43b4:	94 e8       	ldi	r25, 0x84	; 132
    43b6:	14 96       	adiw	r26, 0x04	; 4
    43b8:	9c 93       	st	X, r25
    43ba:	21 c0       	rjmp	.+66     	; 0x43fe <TWI_Master_Receive+0x154>
    43bc:	94 ec       	ldi	r25, 0xC4	; 196
    43be:	f5 01       	movw	r30, r10
    43c0:	94 83       	std	Z+4, r25	; 0x04
    43c2:	1d c0       	rjmp	.+58     	; 0x43fe <TWI_Master_Receive+0x154>
    43c4:	98 35       	cpi	r25, 0x58	; 88
    43c6:	91 f4       	brne	.+36     	; 0x43ec <TWI_Master_Receive+0x142>
    43c8:	11 50       	subi	r17, 0x01	; 1
    43ca:	f4 01       	movw	r30, r8
    43cc:	e2 0f       	add	r30, r18
    43ce:	f1 1d       	adc	r31, r1
    43d0:	d5 01       	movw	r26, r10
    43d2:	13 96       	adiw	r26, 0x03	; 3
    43d4:	9c 91       	ld	r25, X
    43d6:	13 97       	sbiw	r26, 0x03	; 3
    43d8:	90 83       	st	Z, r25
    43da:	2f 5f       	subi	r18, 0xFF	; 255
    43dc:	94 e9       	ldi	r25, 0x94	; 148
    43de:	14 96       	adiw	r26, 0x04	; 4
    43e0:	9c 93       	st	X, r25
    43e2:	f5 01       	movw	r30, r10
    43e4:	94 81       	ldd	r25, Z+4	; 0x04
    43e6:	94 fd       	sbrc	r25, 4
    43e8:	fc cf       	rjmp	.-8      	; 0x43e2 <TWI_Master_Receive+0x138>
    43ea:	09 c0       	rjmp	.+18     	; 0x43fe <TWI_Master_Receive+0x154>
    43ec:	98 33       	cpi	r25, 0x38	; 56
    43ee:	39 f4       	brne	.+14     	; 0x43fe <TWI_Master_Receive+0x154>
    43f0:	84 e8       	ldi	r24, 0x84	; 132
    43f2:	d5 01       	movw	r26, r10
    43f4:	14 96       	adiw	r26, 0x04	; 4
    43f6:	8c 93       	st	X, r24
    43f8:	81 e8       	ldi	r24, 0x81	; 129
    43fa:	01 c0       	rjmp	.+2      	; 0x43fe <TWI_Master_Receive+0x154>
    43fc:	20 e0       	ldi	r18, 0x00	; 0
    43fe:	11 23       	and	r17, r17
    4400:	19 f0       	breq	.+6      	; 0x4408 <TWI_Master_Receive+0x15e>
    4402:	88 23       	and	r24, r24
    4404:	09 f4       	brne	.+2      	; 0x4408 <TWI_Master_Receive+0x15e>
    4406:	bf cf       	rjmp	.-130    	; 0x4386 <TWI_Master_Receive+0xdc>
    4408:	0f 90       	pop	r0
    440a:	df 91       	pop	r29
    440c:	cf 91       	pop	r28
    440e:	1f 91       	pop	r17
    4410:	0f 91       	pop	r16
    4412:	ff 90       	pop	r15
    4414:	ef 90       	pop	r14
    4416:	df 90       	pop	r13
    4418:	cf 90       	pop	r12
    441a:	bf 90       	pop	r11
    441c:	af 90       	pop	r10
    441e:	9f 90       	pop	r9
    4420:	8f 90       	pop	r8
    4422:	08 95       	ret

00004424 <UART_Init>:
    4424:	cf 93       	push	r28
    4426:	df 93       	push	r29
    4428:	ec 01       	movw	r28, r24
    442a:	cb 01       	movw	r24, r22
    442c:	a0 e0       	ldi	r26, 0x00	; 0
    442e:	b0 e0       	ldi	r27, 0x00	; 0
    4430:	88 0f       	add	r24, r24
    4432:	99 1f       	adc	r25, r25
    4434:	aa 1f       	adc	r26, r26
    4436:	bb 1f       	adc	r27, r27
    4438:	88 0f       	add	r24, r24
    443a:	99 1f       	adc	r25, r25
    443c:	aa 1f       	adc	r26, r26
    443e:	bb 1f       	adc	r27, r27
    4440:	9c 01       	movw	r18, r24
    4442:	ad 01       	movw	r20, r26
    4444:	22 0f       	add	r18, r18
    4446:	33 1f       	adc	r19, r19
    4448:	44 1f       	adc	r20, r20
    444a:	55 1f       	adc	r21, r21
    444c:	22 0f       	add	r18, r18
    444e:	33 1f       	adc	r19, r19
    4450:	44 1f       	adc	r20, r20
    4452:	55 1f       	adc	r21, r21
    4454:	60 e0       	ldi	r22, 0x00	; 0
    4456:	74 e2       	ldi	r23, 0x24	; 36
    4458:	84 ef       	ldi	r24, 0xF4	; 244
    445a:	90 e0       	ldi	r25, 0x00	; 0
    445c:	0e 94 b7 22 	call	0x456e	; 0x456e <__udivmodsi4>
    4460:	21 50       	subi	r18, 0x01	; 1
    4462:	31 09       	sbc	r19, r1
    4464:	3d 83       	std	Y+5, r19	; 0x05
    4466:	2c 83       	std	Y+4, r18	; 0x04
    4468:	18 82       	st	Y, r1
    446a:	86 e0       	ldi	r24, 0x06	; 6
    446c:	8a 83       	std	Y+2, r24	; 0x02
    446e:	88 e1       	ldi	r24, 0x18	; 24
    4470:	89 83       	std	Y+1, r24	; 0x01
    4472:	df 91       	pop	r29
    4474:	cf 91       	pop	r28
    4476:	08 95       	ret

00004478 <UART_Transmit>:
    4478:	fc 01       	movw	r30, r24
    447a:	90 81       	ld	r25, Z
    447c:	95 ff       	sbrs	r25, 5
    447e:	fd cf       	rjmp	.-6      	; 0x447a <UART_Transmit+0x2>
    4480:	66 83       	std	Z+6, r22	; 0x06
    4482:	80 e0       	ldi	r24, 0x00	; 0
    4484:	08 95       	ret

00004486 <UART_Receive>:
    4486:	fc 01       	movw	r30, r24
    4488:	90 81       	ld	r25, Z
    448a:	99 23       	and	r25, r25
    448c:	ec f7       	brge	.-6      	; 0x4488 <UART_Receive+0x2>
    448e:	86 81       	ldd	r24, Z+6	; 0x06
    4490:	08 95       	ret

00004492 <Export_print_buffer>:
    4492:	8d e1       	ldi	r24, 0x1D	; 29
    4494:	92 e0       	ldi	r25, 0x02	; 2
    4496:	08 95       	ret

00004498 <Copy_String_to_Buffer>:
    4498:	cf 93       	push	r28
    449a:	df 93       	push	r29
    449c:	dc 01       	movw	r26, r24
    449e:	61 11       	cpse	r22, r1
    44a0:	1a c0       	rjmp	.+52     	; 0x44d6 <Copy_String_to_Buffer+0x3e>
    44a2:	26 2f       	mov	r18, r22
    44a4:	30 e0       	ldi	r19, 0x00	; 0
    44a6:	fd 01       	movw	r30, r26
    44a8:	e2 0f       	add	r30, r18
    44aa:	f3 1f       	adc	r31, r19
    44ac:	e4 91       	lpm	r30, Z
    44ae:	ea 01       	movw	r28, r20
    44b0:	c2 0f       	add	r28, r18
    44b2:	d3 1f       	adc	r29, r19
    44b4:	e8 83       	st	Y, r30
    44b6:	6f 5f       	subi	r22, 0xFF	; 255
    44b8:	e1 11       	cpse	r30, r1
    44ba:	f3 cf       	rjmp	.-26     	; 0x44a2 <Copy_String_to_Buffer+0xa>
    44bc:	0f c0       	rjmp	.+30     	; 0x44dc <Copy_String_to_Buffer+0x44>
    44be:	29 2f       	mov	r18, r25
    44c0:	30 e0       	ldi	r19, 0x00	; 0
    44c2:	fd 01       	movw	r30, r26
    44c4:	e2 0f       	add	r30, r18
    44c6:	f3 1f       	adc	r31, r19
    44c8:	e4 91       	lpm	r30, Z
    44ca:	ea 01       	movw	r28, r20
    44cc:	c2 0f       	add	r28, r18
    44ce:	d3 1f       	adc	r29, r19
    44d0:	e8 83       	st	Y, r30
    44d2:	9f 5f       	subi	r25, 0xFF	; 255
    44d4:	01 c0       	rjmp	.+2      	; 0x44d8 <Copy_String_to_Buffer+0x40>
    44d6:	90 e0       	ldi	r25, 0x00	; 0
    44d8:	96 17       	cp	r25, r22
    44da:	88 f3       	brcs	.-30     	; 0x44be <Copy_String_to_Buffer+0x26>
    44dc:	86 2f       	mov	r24, r22
    44de:	df 91       	pop	r29
    44e0:	cf 91       	pop	r28
    44e2:	08 95       	ret

000044e4 <UART_Transmit_String>:
    44e4:	ef 92       	push	r14
    44e6:	ff 92       	push	r15
    44e8:	0f 93       	push	r16
    44ea:	1f 93       	push	r17
    44ec:	cf 93       	push	r28
    44ee:	df 93       	push	r29
    44f0:	7c 01       	movw	r14, r24
    44f2:	06 2f       	mov	r16, r22
    44f4:	ea 01       	movw	r28, r20
    44f6:	61 11       	cpse	r22, r1
    44f8:	15 c0       	rjmp	.+42     	; 0x4524 <UART_Transmit_String+0x40>
    44fa:	68 81       	ld	r22, Y
    44fc:	05 c0       	rjmp	.+10     	; 0x4508 <UART_Transmit_String+0x24>
    44fe:	c7 01       	movw	r24, r14
    4500:	0e 94 3c 22 	call	0x4478	; 0x4478 <UART_Transmit>
    4504:	21 96       	adiw	r28, 0x01	; 1
    4506:	68 81       	ld	r22, Y
    4508:	61 11       	cpse	r22, r1
    450a:	f9 cf       	rjmp	.-14     	; 0x44fe <UART_Transmit_String+0x1a>
    450c:	15 c0       	rjmp	.+42     	; 0x4538 <UART_Transmit_String+0x54>
    450e:	fe 01       	movw	r30, r28
    4510:	e1 0f       	add	r30, r17
    4512:	f1 1d       	adc	r31, r1
    4514:	17 fd       	sbrc	r17, 7
    4516:	fa 95       	dec	r31
    4518:	60 81       	ld	r22, Z
    451a:	c7 01       	movw	r24, r14
    451c:	0e 94 3c 22 	call	0x4478	; 0x4478 <UART_Transmit>
    4520:	1f 5f       	subi	r17, 0xFF	; 255
    4522:	01 c0       	rjmp	.+2      	; 0x4526 <UART_Transmit_String+0x42>
    4524:	10 e0       	ldi	r17, 0x00	; 0
    4526:	20 2f       	mov	r18, r16
    4528:	30 e0       	ldi	r19, 0x00	; 0
    452a:	81 2f       	mov	r24, r17
    452c:	01 2e       	mov	r0, r17
    452e:	00 0c       	add	r0, r0
    4530:	99 0b       	sbc	r25, r25
    4532:	82 17       	cp	r24, r18
    4534:	93 07       	cpc	r25, r19
    4536:	5c f3       	brlt	.-42     	; 0x450e <UART_Transmit_String+0x2a>
    4538:	df 91       	pop	r29
    453a:	cf 91       	pop	r28
    453c:	1f 91       	pop	r17
    453e:	0f 91       	pop	r16
    4540:	ff 90       	pop	r15
    4542:	ef 90       	pop	r14
    4544:	08 95       	ret

00004546 <__udivmodhi4>:
    4546:	aa 1b       	sub	r26, r26
    4548:	bb 1b       	sub	r27, r27
    454a:	51 e1       	ldi	r21, 0x11	; 17
    454c:	07 c0       	rjmp	.+14     	; 0x455c <__udivmodhi4_ep>

0000454e <__udivmodhi4_loop>:
    454e:	aa 1f       	adc	r26, r26
    4550:	bb 1f       	adc	r27, r27
    4552:	a6 17       	cp	r26, r22
    4554:	b7 07       	cpc	r27, r23
    4556:	10 f0       	brcs	.+4      	; 0x455c <__udivmodhi4_ep>
    4558:	a6 1b       	sub	r26, r22
    455a:	b7 0b       	sbc	r27, r23

0000455c <__udivmodhi4_ep>:
    455c:	88 1f       	adc	r24, r24
    455e:	99 1f       	adc	r25, r25
    4560:	5a 95       	dec	r21
    4562:	a9 f7       	brne	.-22     	; 0x454e <__udivmodhi4_loop>
    4564:	80 95       	com	r24
    4566:	90 95       	com	r25
    4568:	bc 01       	movw	r22, r24
    456a:	cd 01       	movw	r24, r26
    456c:	08 95       	ret

0000456e <__udivmodsi4>:
    456e:	a1 e2       	ldi	r26, 0x21	; 33
    4570:	1a 2e       	mov	r1, r26
    4572:	aa 1b       	sub	r26, r26
    4574:	bb 1b       	sub	r27, r27
    4576:	fd 01       	movw	r30, r26
    4578:	0d c0       	rjmp	.+26     	; 0x4594 <__udivmodsi4_ep>

0000457a <__udivmodsi4_loop>:
    457a:	aa 1f       	adc	r26, r26
    457c:	bb 1f       	adc	r27, r27
    457e:	ee 1f       	adc	r30, r30
    4580:	ff 1f       	adc	r31, r31
    4582:	a2 17       	cp	r26, r18
    4584:	b3 07       	cpc	r27, r19
    4586:	e4 07       	cpc	r30, r20
    4588:	f5 07       	cpc	r31, r21
    458a:	20 f0       	brcs	.+8      	; 0x4594 <__udivmodsi4_ep>
    458c:	a2 1b       	sub	r26, r18
    458e:	b3 0b       	sbc	r27, r19
    4590:	e4 0b       	sbc	r30, r20
    4592:	f5 0b       	sbc	r31, r21

00004594 <__udivmodsi4_ep>:
    4594:	66 1f       	adc	r22, r22
    4596:	77 1f       	adc	r23, r23
    4598:	88 1f       	adc	r24, r24
    459a:	99 1f       	adc	r25, r25
    459c:	1a 94       	dec	r1
    459e:	69 f7       	brne	.-38     	; 0x457a <__udivmodsi4_loop>
    45a0:	60 95       	com	r22
    45a2:	70 95       	com	r23
    45a4:	80 95       	com	r24
    45a6:	90 95       	com	r25
    45a8:	9b 01       	movw	r18, r22
    45aa:	ac 01       	movw	r20, r24
    45ac:	bd 01       	movw	r22, r26
    45ae:	cf 01       	movw	r24, r30
    45b0:	08 95       	ret

000045b2 <__muluhisi3>:
    45b2:	0e 94 e4 22 	call	0x45c8	; 0x45c8 <__umulhisi3>
    45b6:	a5 9f       	mul	r26, r21
    45b8:	90 0d       	add	r25, r0
    45ba:	b4 9f       	mul	r27, r20
    45bc:	90 0d       	add	r25, r0
    45be:	a4 9f       	mul	r26, r20
    45c0:	80 0d       	add	r24, r0
    45c2:	91 1d       	adc	r25, r1
    45c4:	11 24       	eor	r1, r1
    45c6:	08 95       	ret

000045c8 <__umulhisi3>:
    45c8:	a2 9f       	mul	r26, r18
    45ca:	b0 01       	movw	r22, r0
    45cc:	b3 9f       	mul	r27, r19
    45ce:	c0 01       	movw	r24, r0
    45d0:	a3 9f       	mul	r26, r19
    45d2:	70 0d       	add	r23, r0
    45d4:	81 1d       	adc	r24, r1
    45d6:	11 24       	eor	r1, r1
    45d8:	91 1d       	adc	r25, r1
    45da:	b2 9f       	mul	r27, r18
    45dc:	70 0d       	add	r23, r0
    45de:	81 1d       	adc	r24, r1
    45e0:	11 24       	eor	r1, r1
    45e2:	91 1d       	adc	r25, r1
    45e4:	08 95       	ret

000045e6 <atol>:
    45e6:	1f 93       	push	r17
    45e8:	fc 01       	movw	r30, r24
    45ea:	99 27       	eor	r25, r25
    45ec:	88 27       	eor	r24, r24
    45ee:	bc 01       	movw	r22, r24
    45f0:	e8 94       	clt
    45f2:	11 91       	ld	r17, Z+
    45f4:	10 32       	cpi	r17, 0x20	; 32
    45f6:	e9 f3       	breq	.-6      	; 0x45f2 <atol+0xc>
    45f8:	19 30       	cpi	r17, 0x09	; 9
    45fa:	10 f0       	brcs	.+4      	; 0x4600 <atol+0x1a>
    45fc:	1e 30       	cpi	r17, 0x0E	; 14
    45fe:	c8 f3       	brcs	.-14     	; 0x45f2 <atol+0xc>
    4600:	1b 32       	cpi	r17, 0x2B	; 43
    4602:	51 f0       	breq	.+20     	; 0x4618 <atol+0x32>
    4604:	1d 32       	cpi	r17, 0x2D	; 45
    4606:	49 f4       	brne	.+18     	; 0x461a <atol+0x34>
    4608:	68 94       	set
    460a:	06 c0       	rjmp	.+12     	; 0x4618 <atol+0x32>
    460c:	0e 94 1a 23 	call	0x4634	; 0x4634 <__mulsi_const_10>
    4610:	61 0f       	add	r22, r17
    4612:	71 1d       	adc	r23, r1
    4614:	81 1d       	adc	r24, r1
    4616:	91 1d       	adc	r25, r1
    4618:	11 91       	ld	r17, Z+
    461a:	10 53       	subi	r17, 0x30	; 48
    461c:	1a 30       	cpi	r17, 0x0A	; 10
    461e:	b0 f3       	brcs	.-20     	; 0x460c <atol+0x26>
    4620:	3e f4       	brtc	.+14     	; 0x4630 <atol+0x4a>
    4622:	90 95       	com	r25
    4624:	80 95       	com	r24
    4626:	70 95       	com	r23
    4628:	61 95       	neg	r22
    462a:	7f 4f       	sbci	r23, 0xFF	; 255
    462c:	8f 4f       	sbci	r24, 0xFF	; 255
    462e:	9f 4f       	sbci	r25, 0xFF	; 255
    4630:	1f 91       	pop	r17
    4632:	08 95       	ret

00004634 <__mulsi_const_10>:
    4634:	59 2f       	mov	r21, r25
    4636:	48 2f       	mov	r20, r24
    4638:	37 2f       	mov	r19, r23
    463a:	26 2f       	mov	r18, r22
    463c:	66 0f       	add	r22, r22
    463e:	77 1f       	adc	r23, r23
    4640:	88 1f       	adc	r24, r24
    4642:	99 1f       	adc	r25, r25
    4644:	66 0f       	add	r22, r22
    4646:	77 1f       	adc	r23, r23
    4648:	88 1f       	adc	r24, r24
    464a:	99 1f       	adc	r25, r25
    464c:	62 0f       	add	r22, r18
    464e:	73 1f       	adc	r23, r19
    4650:	84 1f       	adc	r24, r20
    4652:	95 1f       	adc	r25, r21
    4654:	66 0f       	add	r22, r22
    4656:	77 1f       	adc	r23, r23
    4658:	88 1f       	adc	r24, r24
    465a:	99 1f       	adc	r25, r25
    465c:	08 95       	ret

0000465e <sprintf>:
    465e:	ae e0       	ldi	r26, 0x0E	; 14
    4660:	b0 e0       	ldi	r27, 0x00	; 0
    4662:	e5 e3       	ldi	r30, 0x35	; 53
    4664:	f3 e2       	ldi	r31, 0x23	; 35
    4666:	0c 94 f0 25 	jmp	0x4be0	; 0x4be0 <__prologue_saves__+0x1c>
    466a:	0d 89       	ldd	r16, Y+21	; 0x15
    466c:	1e 89       	ldd	r17, Y+22	; 0x16
    466e:	86 e0       	ldi	r24, 0x06	; 6
    4670:	8c 83       	std	Y+4, r24	; 0x04
    4672:	1a 83       	std	Y+2, r17	; 0x02
    4674:	09 83       	std	Y+1, r16	; 0x01
    4676:	8f ef       	ldi	r24, 0xFF	; 255
    4678:	9f e7       	ldi	r25, 0x7F	; 127
    467a:	9e 83       	std	Y+6, r25	; 0x06
    467c:	8d 83       	std	Y+5, r24	; 0x05
    467e:	ae 01       	movw	r20, r28
    4680:	47 5e       	subi	r20, 0xE7	; 231
    4682:	5f 4f       	sbci	r21, 0xFF	; 255
    4684:	6f 89       	ldd	r22, Y+23	; 0x17
    4686:	78 8d       	ldd	r23, Y+24	; 0x18
    4688:	ce 01       	movw	r24, r28
    468a:	01 96       	adiw	r24, 0x01	; 1
    468c:	0e 94 51 23 	call	0x46a2	; 0x46a2 <vfprintf>
    4690:	ef 81       	ldd	r30, Y+7	; 0x07
    4692:	f8 85       	ldd	r31, Y+8	; 0x08
    4694:	e0 0f       	add	r30, r16
    4696:	f1 1f       	adc	r31, r17
    4698:	10 82       	st	Z, r1
    469a:	2e 96       	adiw	r28, 0x0e	; 14
    469c:	e4 e0       	ldi	r30, 0x04	; 4
    469e:	0c 94 0c 26 	jmp	0x4c18	; 0x4c18 <__epilogue_restores__+0x1c>

000046a2 <vfprintf>:
    46a2:	ab e0       	ldi	r26, 0x0B	; 11
    46a4:	b0 e0       	ldi	r27, 0x00	; 0
    46a6:	e7 e5       	ldi	r30, 0x57	; 87
    46a8:	f3 e2       	ldi	r31, 0x23	; 35
    46aa:	0c 94 e2 25 	jmp	0x4bc4	; 0x4bc4 <__prologue_saves__>
    46ae:	6c 01       	movw	r12, r24
    46b0:	7b 01       	movw	r14, r22
    46b2:	8a 01       	movw	r16, r20
    46b4:	fc 01       	movw	r30, r24
    46b6:	17 82       	std	Z+7, r1	; 0x07
    46b8:	16 82       	std	Z+6, r1	; 0x06
    46ba:	83 81       	ldd	r24, Z+3	; 0x03
    46bc:	81 ff       	sbrs	r24, 1
    46be:	cc c1       	rjmp	.+920    	; 0x4a58 <vfprintf+0x3b6>
    46c0:	ce 01       	movw	r24, r28
    46c2:	01 96       	adiw	r24, 0x01	; 1
    46c4:	3c 01       	movw	r6, r24
    46c6:	f6 01       	movw	r30, r12
    46c8:	93 81       	ldd	r25, Z+3	; 0x03
    46ca:	f7 01       	movw	r30, r14
    46cc:	93 fd       	sbrc	r25, 3
    46ce:	85 91       	lpm	r24, Z+
    46d0:	93 ff       	sbrs	r25, 3
    46d2:	81 91       	ld	r24, Z+
    46d4:	7f 01       	movw	r14, r30
    46d6:	88 23       	and	r24, r24
    46d8:	09 f4       	brne	.+2      	; 0x46dc <vfprintf+0x3a>
    46da:	ba c1       	rjmp	.+884    	; 0x4a50 <vfprintf+0x3ae>
    46dc:	85 32       	cpi	r24, 0x25	; 37
    46de:	39 f4       	brne	.+14     	; 0x46ee <vfprintf+0x4c>
    46e0:	93 fd       	sbrc	r25, 3
    46e2:	85 91       	lpm	r24, Z+
    46e4:	93 ff       	sbrs	r25, 3
    46e6:	81 91       	ld	r24, Z+
    46e8:	7f 01       	movw	r14, r30
    46ea:	85 32       	cpi	r24, 0x25	; 37
    46ec:	29 f4       	brne	.+10     	; 0x46f8 <vfprintf+0x56>
    46ee:	b6 01       	movw	r22, r12
    46f0:	90 e0       	ldi	r25, 0x00	; 0
    46f2:	0e 94 48 25 	call	0x4a90	; 0x4a90 <fputc>
    46f6:	e7 cf       	rjmp	.-50     	; 0x46c6 <vfprintf+0x24>
    46f8:	91 2c       	mov	r9, r1
    46fa:	21 2c       	mov	r2, r1
    46fc:	31 2c       	mov	r3, r1
    46fe:	ff e1       	ldi	r31, 0x1F	; 31
    4700:	f3 15       	cp	r31, r3
    4702:	d8 f0       	brcs	.+54     	; 0x473a <vfprintf+0x98>
    4704:	8b 32       	cpi	r24, 0x2B	; 43
    4706:	79 f0       	breq	.+30     	; 0x4726 <vfprintf+0x84>
    4708:	38 f4       	brcc	.+14     	; 0x4718 <vfprintf+0x76>
    470a:	80 32       	cpi	r24, 0x20	; 32
    470c:	79 f0       	breq	.+30     	; 0x472c <vfprintf+0x8a>
    470e:	83 32       	cpi	r24, 0x23	; 35
    4710:	a1 f4       	brne	.+40     	; 0x473a <vfprintf+0x98>
    4712:	23 2d       	mov	r18, r3
    4714:	20 61       	ori	r18, 0x10	; 16
    4716:	1d c0       	rjmp	.+58     	; 0x4752 <vfprintf+0xb0>
    4718:	8d 32       	cpi	r24, 0x2D	; 45
    471a:	61 f0       	breq	.+24     	; 0x4734 <vfprintf+0x92>
    471c:	80 33       	cpi	r24, 0x30	; 48
    471e:	69 f4       	brne	.+26     	; 0x473a <vfprintf+0x98>
    4720:	23 2d       	mov	r18, r3
    4722:	21 60       	ori	r18, 0x01	; 1
    4724:	16 c0       	rjmp	.+44     	; 0x4752 <vfprintf+0xb0>
    4726:	83 2d       	mov	r24, r3
    4728:	82 60       	ori	r24, 0x02	; 2
    472a:	38 2e       	mov	r3, r24
    472c:	e3 2d       	mov	r30, r3
    472e:	e4 60       	ori	r30, 0x04	; 4
    4730:	3e 2e       	mov	r3, r30
    4732:	2a c0       	rjmp	.+84     	; 0x4788 <vfprintf+0xe6>
    4734:	f3 2d       	mov	r31, r3
    4736:	f8 60       	ori	r31, 0x08	; 8
    4738:	1d c0       	rjmp	.+58     	; 0x4774 <vfprintf+0xd2>
    473a:	37 fc       	sbrc	r3, 7
    473c:	2d c0       	rjmp	.+90     	; 0x4798 <vfprintf+0xf6>
    473e:	20 ed       	ldi	r18, 0xD0	; 208
    4740:	28 0f       	add	r18, r24
    4742:	2a 30       	cpi	r18, 0x0A	; 10
    4744:	40 f0       	brcs	.+16     	; 0x4756 <vfprintf+0xb4>
    4746:	8e 32       	cpi	r24, 0x2E	; 46
    4748:	b9 f4       	brne	.+46     	; 0x4778 <vfprintf+0xd6>
    474a:	36 fc       	sbrc	r3, 6
    474c:	81 c1       	rjmp	.+770    	; 0x4a50 <vfprintf+0x3ae>
    474e:	23 2d       	mov	r18, r3
    4750:	20 64       	ori	r18, 0x40	; 64
    4752:	32 2e       	mov	r3, r18
    4754:	19 c0       	rjmp	.+50     	; 0x4788 <vfprintf+0xe6>
    4756:	36 fe       	sbrs	r3, 6
    4758:	06 c0       	rjmp	.+12     	; 0x4766 <vfprintf+0xc4>
    475a:	8a e0       	ldi	r24, 0x0A	; 10
    475c:	98 9e       	mul	r9, r24
    475e:	20 0d       	add	r18, r0
    4760:	11 24       	eor	r1, r1
    4762:	92 2e       	mov	r9, r18
    4764:	11 c0       	rjmp	.+34     	; 0x4788 <vfprintf+0xe6>
    4766:	ea e0       	ldi	r30, 0x0A	; 10
    4768:	2e 9e       	mul	r2, r30
    476a:	20 0d       	add	r18, r0
    476c:	11 24       	eor	r1, r1
    476e:	22 2e       	mov	r2, r18
    4770:	f3 2d       	mov	r31, r3
    4772:	f0 62       	ori	r31, 0x20	; 32
    4774:	3f 2e       	mov	r3, r31
    4776:	08 c0       	rjmp	.+16     	; 0x4788 <vfprintf+0xe6>
    4778:	8c 36       	cpi	r24, 0x6C	; 108
    477a:	21 f4       	brne	.+8      	; 0x4784 <vfprintf+0xe2>
    477c:	83 2d       	mov	r24, r3
    477e:	80 68       	ori	r24, 0x80	; 128
    4780:	38 2e       	mov	r3, r24
    4782:	02 c0       	rjmp	.+4      	; 0x4788 <vfprintf+0xe6>
    4784:	88 36       	cpi	r24, 0x68	; 104
    4786:	41 f4       	brne	.+16     	; 0x4798 <vfprintf+0xf6>
    4788:	f7 01       	movw	r30, r14
    478a:	93 fd       	sbrc	r25, 3
    478c:	85 91       	lpm	r24, Z+
    478e:	93 ff       	sbrs	r25, 3
    4790:	81 91       	ld	r24, Z+
    4792:	7f 01       	movw	r14, r30
    4794:	81 11       	cpse	r24, r1
    4796:	b3 cf       	rjmp	.-154    	; 0x46fe <vfprintf+0x5c>
    4798:	98 2f       	mov	r25, r24
    479a:	9f 7d       	andi	r25, 0xDF	; 223
    479c:	95 54       	subi	r25, 0x45	; 69
    479e:	93 30       	cpi	r25, 0x03	; 3
    47a0:	28 f4       	brcc	.+10     	; 0x47ac <vfprintf+0x10a>
    47a2:	0c 5f       	subi	r16, 0xFC	; 252
    47a4:	1f 4f       	sbci	r17, 0xFF	; 255
    47a6:	9f e3       	ldi	r25, 0x3F	; 63
    47a8:	99 83       	std	Y+1, r25	; 0x01
    47aa:	0d c0       	rjmp	.+26     	; 0x47c6 <vfprintf+0x124>
    47ac:	83 36       	cpi	r24, 0x63	; 99
    47ae:	31 f0       	breq	.+12     	; 0x47bc <vfprintf+0x11a>
    47b0:	83 37       	cpi	r24, 0x73	; 115
    47b2:	71 f0       	breq	.+28     	; 0x47d0 <vfprintf+0x12e>
    47b4:	83 35       	cpi	r24, 0x53	; 83
    47b6:	09 f0       	breq	.+2      	; 0x47ba <vfprintf+0x118>
    47b8:	59 c0       	rjmp	.+178    	; 0x486c <vfprintf+0x1ca>
    47ba:	21 c0       	rjmp	.+66     	; 0x47fe <vfprintf+0x15c>
    47bc:	f8 01       	movw	r30, r16
    47be:	80 81       	ld	r24, Z
    47c0:	89 83       	std	Y+1, r24	; 0x01
    47c2:	0e 5f       	subi	r16, 0xFE	; 254
    47c4:	1f 4f       	sbci	r17, 0xFF	; 255
    47c6:	88 24       	eor	r8, r8
    47c8:	83 94       	inc	r8
    47ca:	91 2c       	mov	r9, r1
    47cc:	53 01       	movw	r10, r6
    47ce:	13 c0       	rjmp	.+38     	; 0x47f6 <vfprintf+0x154>
    47d0:	28 01       	movw	r4, r16
    47d2:	f2 e0       	ldi	r31, 0x02	; 2
    47d4:	4f 0e       	add	r4, r31
    47d6:	51 1c       	adc	r5, r1
    47d8:	f8 01       	movw	r30, r16
    47da:	a0 80       	ld	r10, Z
    47dc:	b1 80       	ldd	r11, Z+1	; 0x01
    47de:	36 fe       	sbrs	r3, 6
    47e0:	03 c0       	rjmp	.+6      	; 0x47e8 <vfprintf+0x146>
    47e2:	69 2d       	mov	r22, r9
    47e4:	70 e0       	ldi	r23, 0x00	; 0
    47e6:	02 c0       	rjmp	.+4      	; 0x47ec <vfprintf+0x14a>
    47e8:	6f ef       	ldi	r22, 0xFF	; 255
    47ea:	7f ef       	ldi	r23, 0xFF	; 255
    47ec:	c5 01       	movw	r24, r10
    47ee:	0e 94 3d 25 	call	0x4a7a	; 0x4a7a <strnlen>
    47f2:	4c 01       	movw	r8, r24
    47f4:	82 01       	movw	r16, r4
    47f6:	f3 2d       	mov	r31, r3
    47f8:	ff 77       	andi	r31, 0x7F	; 127
    47fa:	3f 2e       	mov	r3, r31
    47fc:	16 c0       	rjmp	.+44     	; 0x482a <vfprintf+0x188>
    47fe:	28 01       	movw	r4, r16
    4800:	22 e0       	ldi	r18, 0x02	; 2
    4802:	42 0e       	add	r4, r18
    4804:	51 1c       	adc	r5, r1
    4806:	f8 01       	movw	r30, r16
    4808:	a0 80       	ld	r10, Z
    480a:	b1 80       	ldd	r11, Z+1	; 0x01
    480c:	36 fe       	sbrs	r3, 6
    480e:	03 c0       	rjmp	.+6      	; 0x4816 <vfprintf+0x174>
    4810:	69 2d       	mov	r22, r9
    4812:	70 e0       	ldi	r23, 0x00	; 0
    4814:	02 c0       	rjmp	.+4      	; 0x481a <vfprintf+0x178>
    4816:	6f ef       	ldi	r22, 0xFF	; 255
    4818:	7f ef       	ldi	r23, 0xFF	; 255
    481a:	c5 01       	movw	r24, r10
    481c:	0e 94 32 25 	call	0x4a64	; 0x4a64 <strnlen_P>
    4820:	4c 01       	movw	r8, r24
    4822:	f3 2d       	mov	r31, r3
    4824:	f0 68       	ori	r31, 0x80	; 128
    4826:	3f 2e       	mov	r3, r31
    4828:	82 01       	movw	r16, r4
    482a:	33 fc       	sbrc	r3, 3
    482c:	1b c0       	rjmp	.+54     	; 0x4864 <vfprintf+0x1c2>
    482e:	82 2d       	mov	r24, r2
    4830:	90 e0       	ldi	r25, 0x00	; 0
    4832:	88 16       	cp	r8, r24
    4834:	99 06       	cpc	r9, r25
    4836:	b0 f4       	brcc	.+44     	; 0x4864 <vfprintf+0x1c2>
    4838:	b6 01       	movw	r22, r12
    483a:	80 e2       	ldi	r24, 0x20	; 32
    483c:	90 e0       	ldi	r25, 0x00	; 0
    483e:	0e 94 48 25 	call	0x4a90	; 0x4a90 <fputc>
    4842:	2a 94       	dec	r2
    4844:	f4 cf       	rjmp	.-24     	; 0x482e <vfprintf+0x18c>
    4846:	f5 01       	movw	r30, r10
    4848:	37 fc       	sbrc	r3, 7
    484a:	85 91       	lpm	r24, Z+
    484c:	37 fe       	sbrs	r3, 7
    484e:	81 91       	ld	r24, Z+
    4850:	5f 01       	movw	r10, r30
    4852:	b6 01       	movw	r22, r12
    4854:	90 e0       	ldi	r25, 0x00	; 0
    4856:	0e 94 48 25 	call	0x4a90	; 0x4a90 <fputc>
    485a:	21 10       	cpse	r2, r1
    485c:	2a 94       	dec	r2
    485e:	21 e0       	ldi	r18, 0x01	; 1
    4860:	82 1a       	sub	r8, r18
    4862:	91 08       	sbc	r9, r1
    4864:	81 14       	cp	r8, r1
    4866:	91 04       	cpc	r9, r1
    4868:	71 f7       	brne	.-36     	; 0x4846 <vfprintf+0x1a4>
    486a:	e8 c0       	rjmp	.+464    	; 0x4a3c <vfprintf+0x39a>
    486c:	84 36       	cpi	r24, 0x64	; 100
    486e:	11 f0       	breq	.+4      	; 0x4874 <vfprintf+0x1d2>
    4870:	89 36       	cpi	r24, 0x69	; 105
    4872:	41 f5       	brne	.+80     	; 0x48c4 <vfprintf+0x222>
    4874:	f8 01       	movw	r30, r16
    4876:	37 fe       	sbrs	r3, 7
    4878:	07 c0       	rjmp	.+14     	; 0x4888 <vfprintf+0x1e6>
    487a:	60 81       	ld	r22, Z
    487c:	71 81       	ldd	r23, Z+1	; 0x01
    487e:	82 81       	ldd	r24, Z+2	; 0x02
    4880:	93 81       	ldd	r25, Z+3	; 0x03
    4882:	0c 5f       	subi	r16, 0xFC	; 252
    4884:	1f 4f       	sbci	r17, 0xFF	; 255
    4886:	08 c0       	rjmp	.+16     	; 0x4898 <vfprintf+0x1f6>
    4888:	60 81       	ld	r22, Z
    488a:	71 81       	ldd	r23, Z+1	; 0x01
    488c:	07 2e       	mov	r0, r23
    488e:	00 0c       	add	r0, r0
    4890:	88 0b       	sbc	r24, r24
    4892:	99 0b       	sbc	r25, r25
    4894:	0e 5f       	subi	r16, 0xFE	; 254
    4896:	1f 4f       	sbci	r17, 0xFF	; 255
    4898:	f3 2d       	mov	r31, r3
    489a:	ff 76       	andi	r31, 0x6F	; 111
    489c:	3f 2e       	mov	r3, r31
    489e:	97 ff       	sbrs	r25, 7
    48a0:	09 c0       	rjmp	.+18     	; 0x48b4 <vfprintf+0x212>
    48a2:	90 95       	com	r25
    48a4:	80 95       	com	r24
    48a6:	70 95       	com	r23
    48a8:	61 95       	neg	r22
    48aa:	7f 4f       	sbci	r23, 0xFF	; 255
    48ac:	8f 4f       	sbci	r24, 0xFF	; 255
    48ae:	9f 4f       	sbci	r25, 0xFF	; 255
    48b0:	f0 68       	ori	r31, 0x80	; 128
    48b2:	3f 2e       	mov	r3, r31
    48b4:	2a e0       	ldi	r18, 0x0A	; 10
    48b6:	30 e0       	ldi	r19, 0x00	; 0
    48b8:	a3 01       	movw	r20, r6
    48ba:	0e 94 84 25 	call	0x4b08	; 0x4b08 <__ultoa_invert>
    48be:	88 2e       	mov	r8, r24
    48c0:	86 18       	sub	r8, r6
    48c2:	45 c0       	rjmp	.+138    	; 0x494e <vfprintf+0x2ac>
    48c4:	85 37       	cpi	r24, 0x75	; 117
    48c6:	31 f4       	brne	.+12     	; 0x48d4 <vfprintf+0x232>
    48c8:	23 2d       	mov	r18, r3
    48ca:	2f 7e       	andi	r18, 0xEF	; 239
    48cc:	b2 2e       	mov	r11, r18
    48ce:	2a e0       	ldi	r18, 0x0A	; 10
    48d0:	30 e0       	ldi	r19, 0x00	; 0
    48d2:	25 c0       	rjmp	.+74     	; 0x491e <vfprintf+0x27c>
    48d4:	93 2d       	mov	r25, r3
    48d6:	99 7f       	andi	r25, 0xF9	; 249
    48d8:	b9 2e       	mov	r11, r25
    48da:	8f 36       	cpi	r24, 0x6F	; 111
    48dc:	c1 f0       	breq	.+48     	; 0x490e <vfprintf+0x26c>
    48de:	18 f4       	brcc	.+6      	; 0x48e6 <vfprintf+0x244>
    48e0:	88 35       	cpi	r24, 0x58	; 88
    48e2:	79 f0       	breq	.+30     	; 0x4902 <vfprintf+0x260>
    48e4:	b5 c0       	rjmp	.+362    	; 0x4a50 <vfprintf+0x3ae>
    48e6:	80 37       	cpi	r24, 0x70	; 112
    48e8:	19 f0       	breq	.+6      	; 0x48f0 <vfprintf+0x24e>
    48ea:	88 37       	cpi	r24, 0x78	; 120
    48ec:	21 f0       	breq	.+8      	; 0x48f6 <vfprintf+0x254>
    48ee:	b0 c0       	rjmp	.+352    	; 0x4a50 <vfprintf+0x3ae>
    48f0:	e9 2f       	mov	r30, r25
    48f2:	e0 61       	ori	r30, 0x10	; 16
    48f4:	be 2e       	mov	r11, r30
    48f6:	b4 fe       	sbrs	r11, 4
    48f8:	0d c0       	rjmp	.+26     	; 0x4914 <vfprintf+0x272>
    48fa:	fb 2d       	mov	r31, r11
    48fc:	f4 60       	ori	r31, 0x04	; 4
    48fe:	bf 2e       	mov	r11, r31
    4900:	09 c0       	rjmp	.+18     	; 0x4914 <vfprintf+0x272>
    4902:	34 fe       	sbrs	r3, 4
    4904:	0a c0       	rjmp	.+20     	; 0x491a <vfprintf+0x278>
    4906:	29 2f       	mov	r18, r25
    4908:	26 60       	ori	r18, 0x06	; 6
    490a:	b2 2e       	mov	r11, r18
    490c:	06 c0       	rjmp	.+12     	; 0x491a <vfprintf+0x278>
    490e:	28 e0       	ldi	r18, 0x08	; 8
    4910:	30 e0       	ldi	r19, 0x00	; 0
    4912:	05 c0       	rjmp	.+10     	; 0x491e <vfprintf+0x27c>
    4914:	20 e1       	ldi	r18, 0x10	; 16
    4916:	30 e0       	ldi	r19, 0x00	; 0
    4918:	02 c0       	rjmp	.+4      	; 0x491e <vfprintf+0x27c>
    491a:	20 e1       	ldi	r18, 0x10	; 16
    491c:	32 e0       	ldi	r19, 0x02	; 2
    491e:	f8 01       	movw	r30, r16
    4920:	b7 fe       	sbrs	r11, 7
    4922:	07 c0       	rjmp	.+14     	; 0x4932 <vfprintf+0x290>
    4924:	60 81       	ld	r22, Z
    4926:	71 81       	ldd	r23, Z+1	; 0x01
    4928:	82 81       	ldd	r24, Z+2	; 0x02
    492a:	93 81       	ldd	r25, Z+3	; 0x03
    492c:	0c 5f       	subi	r16, 0xFC	; 252
    492e:	1f 4f       	sbci	r17, 0xFF	; 255
    4930:	06 c0       	rjmp	.+12     	; 0x493e <vfprintf+0x29c>
    4932:	60 81       	ld	r22, Z
    4934:	71 81       	ldd	r23, Z+1	; 0x01
    4936:	80 e0       	ldi	r24, 0x00	; 0
    4938:	90 e0       	ldi	r25, 0x00	; 0
    493a:	0e 5f       	subi	r16, 0xFE	; 254
    493c:	1f 4f       	sbci	r17, 0xFF	; 255
    493e:	a3 01       	movw	r20, r6
    4940:	0e 94 84 25 	call	0x4b08	; 0x4b08 <__ultoa_invert>
    4944:	88 2e       	mov	r8, r24
    4946:	86 18       	sub	r8, r6
    4948:	fb 2d       	mov	r31, r11
    494a:	ff 77       	andi	r31, 0x7F	; 127
    494c:	3f 2e       	mov	r3, r31
    494e:	36 fe       	sbrs	r3, 6
    4950:	0d c0       	rjmp	.+26     	; 0x496c <vfprintf+0x2ca>
    4952:	23 2d       	mov	r18, r3
    4954:	2e 7f       	andi	r18, 0xFE	; 254
    4956:	a2 2e       	mov	r10, r18
    4958:	89 14       	cp	r8, r9
    495a:	58 f4       	brcc	.+22     	; 0x4972 <vfprintf+0x2d0>
    495c:	34 fe       	sbrs	r3, 4
    495e:	0b c0       	rjmp	.+22     	; 0x4976 <vfprintf+0x2d4>
    4960:	32 fc       	sbrc	r3, 2
    4962:	09 c0       	rjmp	.+18     	; 0x4976 <vfprintf+0x2d4>
    4964:	83 2d       	mov	r24, r3
    4966:	8e 7e       	andi	r24, 0xEE	; 238
    4968:	a8 2e       	mov	r10, r24
    496a:	05 c0       	rjmp	.+10     	; 0x4976 <vfprintf+0x2d4>
    496c:	b8 2c       	mov	r11, r8
    496e:	a3 2c       	mov	r10, r3
    4970:	03 c0       	rjmp	.+6      	; 0x4978 <vfprintf+0x2d6>
    4972:	b8 2c       	mov	r11, r8
    4974:	01 c0       	rjmp	.+2      	; 0x4978 <vfprintf+0x2d6>
    4976:	b9 2c       	mov	r11, r9
    4978:	a4 fe       	sbrs	r10, 4
    497a:	0f c0       	rjmp	.+30     	; 0x499a <vfprintf+0x2f8>
    497c:	fe 01       	movw	r30, r28
    497e:	e8 0d       	add	r30, r8
    4980:	f1 1d       	adc	r31, r1
    4982:	80 81       	ld	r24, Z
    4984:	80 33       	cpi	r24, 0x30	; 48
    4986:	21 f4       	brne	.+8      	; 0x4990 <vfprintf+0x2ee>
    4988:	9a 2d       	mov	r25, r10
    498a:	99 7e       	andi	r25, 0xE9	; 233
    498c:	a9 2e       	mov	r10, r25
    498e:	09 c0       	rjmp	.+18     	; 0x49a2 <vfprintf+0x300>
    4990:	a2 fe       	sbrs	r10, 2
    4992:	06 c0       	rjmp	.+12     	; 0x49a0 <vfprintf+0x2fe>
    4994:	b3 94       	inc	r11
    4996:	b3 94       	inc	r11
    4998:	04 c0       	rjmp	.+8      	; 0x49a2 <vfprintf+0x300>
    499a:	8a 2d       	mov	r24, r10
    499c:	86 78       	andi	r24, 0x86	; 134
    499e:	09 f0       	breq	.+2      	; 0x49a2 <vfprintf+0x300>
    49a0:	b3 94       	inc	r11
    49a2:	a3 fc       	sbrc	r10, 3
    49a4:	11 c0       	rjmp	.+34     	; 0x49c8 <vfprintf+0x326>
    49a6:	a0 fe       	sbrs	r10, 0
    49a8:	06 c0       	rjmp	.+12     	; 0x49b6 <vfprintf+0x314>
    49aa:	b2 14       	cp	r11, r2
    49ac:	88 f4       	brcc	.+34     	; 0x49d0 <vfprintf+0x32e>
    49ae:	28 0c       	add	r2, r8
    49b0:	92 2c       	mov	r9, r2
    49b2:	9b 18       	sub	r9, r11
    49b4:	0e c0       	rjmp	.+28     	; 0x49d2 <vfprintf+0x330>
    49b6:	b2 14       	cp	r11, r2
    49b8:	60 f4       	brcc	.+24     	; 0x49d2 <vfprintf+0x330>
    49ba:	b6 01       	movw	r22, r12
    49bc:	80 e2       	ldi	r24, 0x20	; 32
    49be:	90 e0       	ldi	r25, 0x00	; 0
    49c0:	0e 94 48 25 	call	0x4a90	; 0x4a90 <fputc>
    49c4:	b3 94       	inc	r11
    49c6:	f7 cf       	rjmp	.-18     	; 0x49b6 <vfprintf+0x314>
    49c8:	b2 14       	cp	r11, r2
    49ca:	18 f4       	brcc	.+6      	; 0x49d2 <vfprintf+0x330>
    49cc:	2b 18       	sub	r2, r11
    49ce:	02 c0       	rjmp	.+4      	; 0x49d4 <vfprintf+0x332>
    49d0:	98 2c       	mov	r9, r8
    49d2:	21 2c       	mov	r2, r1
    49d4:	a4 fe       	sbrs	r10, 4
    49d6:	10 c0       	rjmp	.+32     	; 0x49f8 <vfprintf+0x356>
    49d8:	b6 01       	movw	r22, r12
    49da:	80 e3       	ldi	r24, 0x30	; 48
    49dc:	90 e0       	ldi	r25, 0x00	; 0
    49de:	0e 94 48 25 	call	0x4a90	; 0x4a90 <fputc>
    49e2:	a2 fe       	sbrs	r10, 2
    49e4:	17 c0       	rjmp	.+46     	; 0x4a14 <vfprintf+0x372>
    49e6:	a1 fc       	sbrc	r10, 1
    49e8:	03 c0       	rjmp	.+6      	; 0x49f0 <vfprintf+0x34e>
    49ea:	88 e7       	ldi	r24, 0x78	; 120
    49ec:	90 e0       	ldi	r25, 0x00	; 0
    49ee:	02 c0       	rjmp	.+4      	; 0x49f4 <vfprintf+0x352>
    49f0:	88 e5       	ldi	r24, 0x58	; 88
    49f2:	90 e0       	ldi	r25, 0x00	; 0
    49f4:	b6 01       	movw	r22, r12
    49f6:	0c c0       	rjmp	.+24     	; 0x4a10 <vfprintf+0x36e>
    49f8:	8a 2d       	mov	r24, r10
    49fa:	86 78       	andi	r24, 0x86	; 134
    49fc:	59 f0       	breq	.+22     	; 0x4a14 <vfprintf+0x372>
    49fe:	a1 fe       	sbrs	r10, 1
    4a00:	02 c0       	rjmp	.+4      	; 0x4a06 <vfprintf+0x364>
    4a02:	8b e2       	ldi	r24, 0x2B	; 43
    4a04:	01 c0       	rjmp	.+2      	; 0x4a08 <vfprintf+0x366>
    4a06:	80 e2       	ldi	r24, 0x20	; 32
    4a08:	a7 fc       	sbrc	r10, 7
    4a0a:	8d e2       	ldi	r24, 0x2D	; 45
    4a0c:	b6 01       	movw	r22, r12
    4a0e:	90 e0       	ldi	r25, 0x00	; 0
    4a10:	0e 94 48 25 	call	0x4a90	; 0x4a90 <fputc>
    4a14:	89 14       	cp	r8, r9
    4a16:	38 f4       	brcc	.+14     	; 0x4a26 <vfprintf+0x384>
    4a18:	b6 01       	movw	r22, r12
    4a1a:	80 e3       	ldi	r24, 0x30	; 48
    4a1c:	90 e0       	ldi	r25, 0x00	; 0
    4a1e:	0e 94 48 25 	call	0x4a90	; 0x4a90 <fputc>
    4a22:	9a 94       	dec	r9
    4a24:	f7 cf       	rjmp	.-18     	; 0x4a14 <vfprintf+0x372>
    4a26:	8a 94       	dec	r8
    4a28:	f3 01       	movw	r30, r6
    4a2a:	e8 0d       	add	r30, r8
    4a2c:	f1 1d       	adc	r31, r1
    4a2e:	80 81       	ld	r24, Z
    4a30:	b6 01       	movw	r22, r12
    4a32:	90 e0       	ldi	r25, 0x00	; 0
    4a34:	0e 94 48 25 	call	0x4a90	; 0x4a90 <fputc>
    4a38:	81 10       	cpse	r8, r1
    4a3a:	f5 cf       	rjmp	.-22     	; 0x4a26 <vfprintf+0x384>
    4a3c:	22 20       	and	r2, r2
    4a3e:	09 f4       	brne	.+2      	; 0x4a42 <vfprintf+0x3a0>
    4a40:	42 ce       	rjmp	.-892    	; 0x46c6 <vfprintf+0x24>
    4a42:	b6 01       	movw	r22, r12
    4a44:	80 e2       	ldi	r24, 0x20	; 32
    4a46:	90 e0       	ldi	r25, 0x00	; 0
    4a48:	0e 94 48 25 	call	0x4a90	; 0x4a90 <fputc>
    4a4c:	2a 94       	dec	r2
    4a4e:	f6 cf       	rjmp	.-20     	; 0x4a3c <vfprintf+0x39a>
    4a50:	f6 01       	movw	r30, r12
    4a52:	86 81       	ldd	r24, Z+6	; 0x06
    4a54:	97 81       	ldd	r25, Z+7	; 0x07
    4a56:	02 c0       	rjmp	.+4      	; 0x4a5c <vfprintf+0x3ba>
    4a58:	8f ef       	ldi	r24, 0xFF	; 255
    4a5a:	9f ef       	ldi	r25, 0xFF	; 255
    4a5c:	2b 96       	adiw	r28, 0x0b	; 11
    4a5e:	e2 e1       	ldi	r30, 0x12	; 18
    4a60:	0c 94 fe 25 	jmp	0x4bfc	; 0x4bfc <__epilogue_restores__>

00004a64 <strnlen_P>:
    4a64:	fc 01       	movw	r30, r24
    4a66:	05 90       	lpm	r0, Z+
    4a68:	61 50       	subi	r22, 0x01	; 1
    4a6a:	70 40       	sbci	r23, 0x00	; 0
    4a6c:	01 10       	cpse	r0, r1
    4a6e:	d8 f7       	brcc	.-10     	; 0x4a66 <strnlen_P+0x2>
    4a70:	80 95       	com	r24
    4a72:	90 95       	com	r25
    4a74:	8e 0f       	add	r24, r30
    4a76:	9f 1f       	adc	r25, r31
    4a78:	08 95       	ret

00004a7a <strnlen>:
    4a7a:	fc 01       	movw	r30, r24
    4a7c:	61 50       	subi	r22, 0x01	; 1
    4a7e:	70 40       	sbci	r23, 0x00	; 0
    4a80:	01 90       	ld	r0, Z+
    4a82:	01 10       	cpse	r0, r1
    4a84:	d8 f7       	brcc	.-10     	; 0x4a7c <strnlen+0x2>
    4a86:	80 95       	com	r24
    4a88:	90 95       	com	r25
    4a8a:	8e 0f       	add	r24, r30
    4a8c:	9f 1f       	adc	r25, r31
    4a8e:	08 95       	ret

00004a90 <fputc>:
    4a90:	0f 93       	push	r16
    4a92:	1f 93       	push	r17
    4a94:	cf 93       	push	r28
    4a96:	df 93       	push	r29
    4a98:	fb 01       	movw	r30, r22
    4a9a:	23 81       	ldd	r18, Z+3	; 0x03
    4a9c:	21 fd       	sbrc	r18, 1
    4a9e:	03 c0       	rjmp	.+6      	; 0x4aa6 <fputc+0x16>
    4aa0:	8f ef       	ldi	r24, 0xFF	; 255
    4aa2:	9f ef       	ldi	r25, 0xFF	; 255
    4aa4:	2c c0       	rjmp	.+88     	; 0x4afe <fputc+0x6e>
    4aa6:	22 ff       	sbrs	r18, 2
    4aa8:	16 c0       	rjmp	.+44     	; 0x4ad6 <fputc+0x46>
    4aaa:	46 81       	ldd	r20, Z+6	; 0x06
    4aac:	57 81       	ldd	r21, Z+7	; 0x07
    4aae:	24 81       	ldd	r18, Z+4	; 0x04
    4ab0:	35 81       	ldd	r19, Z+5	; 0x05
    4ab2:	42 17       	cp	r20, r18
    4ab4:	53 07       	cpc	r21, r19
    4ab6:	44 f4       	brge	.+16     	; 0x4ac8 <fputc+0x38>
    4ab8:	a0 81       	ld	r26, Z
    4aba:	b1 81       	ldd	r27, Z+1	; 0x01
    4abc:	9d 01       	movw	r18, r26
    4abe:	2f 5f       	subi	r18, 0xFF	; 255
    4ac0:	3f 4f       	sbci	r19, 0xFF	; 255
    4ac2:	31 83       	std	Z+1, r19	; 0x01
    4ac4:	20 83       	st	Z, r18
    4ac6:	8c 93       	st	X, r24
    4ac8:	26 81       	ldd	r18, Z+6	; 0x06
    4aca:	37 81       	ldd	r19, Z+7	; 0x07
    4acc:	2f 5f       	subi	r18, 0xFF	; 255
    4ace:	3f 4f       	sbci	r19, 0xFF	; 255
    4ad0:	37 83       	std	Z+7, r19	; 0x07
    4ad2:	26 83       	std	Z+6, r18	; 0x06
    4ad4:	14 c0       	rjmp	.+40     	; 0x4afe <fputc+0x6e>
    4ad6:	8b 01       	movw	r16, r22
    4ad8:	ec 01       	movw	r28, r24
    4ada:	fb 01       	movw	r30, r22
    4adc:	00 84       	ldd	r0, Z+8	; 0x08
    4ade:	f1 85       	ldd	r31, Z+9	; 0x09
    4ae0:	e0 2d       	mov	r30, r0
    4ae2:	09 95       	icall
    4ae4:	89 2b       	or	r24, r25
    4ae6:	e1 f6       	brne	.-72     	; 0x4aa0 <fputc+0x10>
    4ae8:	d8 01       	movw	r26, r16
    4aea:	16 96       	adiw	r26, 0x06	; 6
    4aec:	8d 91       	ld	r24, X+
    4aee:	9c 91       	ld	r25, X
    4af0:	17 97       	sbiw	r26, 0x07	; 7
    4af2:	01 96       	adiw	r24, 0x01	; 1
    4af4:	17 96       	adiw	r26, 0x07	; 7
    4af6:	9c 93       	st	X, r25
    4af8:	8e 93       	st	-X, r24
    4afa:	16 97       	sbiw	r26, 0x06	; 6
    4afc:	ce 01       	movw	r24, r28
    4afe:	df 91       	pop	r29
    4b00:	cf 91       	pop	r28
    4b02:	1f 91       	pop	r17
    4b04:	0f 91       	pop	r16
    4b06:	08 95       	ret

00004b08 <__ultoa_invert>:
    4b08:	fa 01       	movw	r30, r20
    4b0a:	aa 27       	eor	r26, r26
    4b0c:	28 30       	cpi	r18, 0x08	; 8
    4b0e:	51 f1       	breq	.+84     	; 0x4b64 <__ultoa_invert+0x5c>
    4b10:	20 31       	cpi	r18, 0x10	; 16
    4b12:	81 f1       	breq	.+96     	; 0x4b74 <__ultoa_invert+0x6c>
    4b14:	e8 94       	clt
    4b16:	6f 93       	push	r22
    4b18:	6e 7f       	andi	r22, 0xFE	; 254
    4b1a:	6e 5f       	subi	r22, 0xFE	; 254
    4b1c:	7f 4f       	sbci	r23, 0xFF	; 255
    4b1e:	8f 4f       	sbci	r24, 0xFF	; 255
    4b20:	9f 4f       	sbci	r25, 0xFF	; 255
    4b22:	af 4f       	sbci	r26, 0xFF	; 255
    4b24:	b1 e0       	ldi	r27, 0x01	; 1
    4b26:	3e d0       	rcall	.+124    	; 0x4ba4 <__ultoa_invert+0x9c>
    4b28:	b4 e0       	ldi	r27, 0x04	; 4
    4b2a:	3c d0       	rcall	.+120    	; 0x4ba4 <__ultoa_invert+0x9c>
    4b2c:	67 0f       	add	r22, r23
    4b2e:	78 1f       	adc	r23, r24
    4b30:	89 1f       	adc	r24, r25
    4b32:	9a 1f       	adc	r25, r26
    4b34:	a1 1d       	adc	r26, r1
    4b36:	68 0f       	add	r22, r24
    4b38:	79 1f       	adc	r23, r25
    4b3a:	8a 1f       	adc	r24, r26
    4b3c:	91 1d       	adc	r25, r1
    4b3e:	a1 1d       	adc	r26, r1
    4b40:	6a 0f       	add	r22, r26
    4b42:	71 1d       	adc	r23, r1
    4b44:	81 1d       	adc	r24, r1
    4b46:	91 1d       	adc	r25, r1
    4b48:	a1 1d       	adc	r26, r1
    4b4a:	20 d0       	rcall	.+64     	; 0x4b8c <__ultoa_invert+0x84>
    4b4c:	09 f4       	brne	.+2      	; 0x4b50 <__ultoa_invert+0x48>
    4b4e:	68 94       	set
    4b50:	3f 91       	pop	r19
    4b52:	2a e0       	ldi	r18, 0x0A	; 10
    4b54:	26 9f       	mul	r18, r22
    4b56:	11 24       	eor	r1, r1
    4b58:	30 19       	sub	r19, r0
    4b5a:	30 5d       	subi	r19, 0xD0	; 208
    4b5c:	31 93       	st	Z+, r19
    4b5e:	de f6       	brtc	.-74     	; 0x4b16 <__ultoa_invert+0xe>
    4b60:	cf 01       	movw	r24, r30
    4b62:	08 95       	ret
    4b64:	46 2f       	mov	r20, r22
    4b66:	47 70       	andi	r20, 0x07	; 7
    4b68:	40 5d       	subi	r20, 0xD0	; 208
    4b6a:	41 93       	st	Z+, r20
    4b6c:	b3 e0       	ldi	r27, 0x03	; 3
    4b6e:	0f d0       	rcall	.+30     	; 0x4b8e <__ultoa_invert+0x86>
    4b70:	c9 f7       	brne	.-14     	; 0x4b64 <__ultoa_invert+0x5c>
    4b72:	f6 cf       	rjmp	.-20     	; 0x4b60 <__ultoa_invert+0x58>
    4b74:	46 2f       	mov	r20, r22
    4b76:	4f 70       	andi	r20, 0x0F	; 15
    4b78:	40 5d       	subi	r20, 0xD0	; 208
    4b7a:	4a 33       	cpi	r20, 0x3A	; 58
    4b7c:	18 f0       	brcs	.+6      	; 0x4b84 <__ultoa_invert+0x7c>
    4b7e:	49 5d       	subi	r20, 0xD9	; 217
    4b80:	31 fd       	sbrc	r19, 1
    4b82:	40 52       	subi	r20, 0x20	; 32
    4b84:	41 93       	st	Z+, r20
    4b86:	02 d0       	rcall	.+4      	; 0x4b8c <__ultoa_invert+0x84>
    4b88:	a9 f7       	brne	.-22     	; 0x4b74 <__ultoa_invert+0x6c>
    4b8a:	ea cf       	rjmp	.-44     	; 0x4b60 <__ultoa_invert+0x58>
    4b8c:	b4 e0       	ldi	r27, 0x04	; 4
    4b8e:	a6 95       	lsr	r26
    4b90:	97 95       	ror	r25
    4b92:	87 95       	ror	r24
    4b94:	77 95       	ror	r23
    4b96:	67 95       	ror	r22
    4b98:	ba 95       	dec	r27
    4b9a:	c9 f7       	brne	.-14     	; 0x4b8e <__ultoa_invert+0x86>
    4b9c:	00 97       	sbiw	r24, 0x00	; 0
    4b9e:	61 05       	cpc	r22, r1
    4ba0:	71 05       	cpc	r23, r1
    4ba2:	08 95       	ret
    4ba4:	9b 01       	movw	r18, r22
    4ba6:	ac 01       	movw	r20, r24
    4ba8:	0a 2e       	mov	r0, r26
    4baa:	06 94       	lsr	r0
    4bac:	57 95       	ror	r21
    4bae:	47 95       	ror	r20
    4bb0:	37 95       	ror	r19
    4bb2:	27 95       	ror	r18
    4bb4:	ba 95       	dec	r27
    4bb6:	c9 f7       	brne	.-14     	; 0x4baa <__ultoa_invert+0xa2>
    4bb8:	62 0f       	add	r22, r18
    4bba:	73 1f       	adc	r23, r19
    4bbc:	84 1f       	adc	r24, r20
    4bbe:	95 1f       	adc	r25, r21
    4bc0:	a0 1d       	adc	r26, r0
    4bc2:	08 95       	ret

00004bc4 <__prologue_saves__>:
    4bc4:	2f 92       	push	r2
    4bc6:	3f 92       	push	r3
    4bc8:	4f 92       	push	r4
    4bca:	5f 92       	push	r5
    4bcc:	6f 92       	push	r6
    4bce:	7f 92       	push	r7
    4bd0:	8f 92       	push	r8
    4bd2:	9f 92       	push	r9
    4bd4:	af 92       	push	r10
    4bd6:	bf 92       	push	r11
    4bd8:	cf 92       	push	r12
    4bda:	df 92       	push	r13
    4bdc:	ef 92       	push	r14
    4bde:	ff 92       	push	r15
    4be0:	0f 93       	push	r16
    4be2:	1f 93       	push	r17
    4be4:	cf 93       	push	r28
    4be6:	df 93       	push	r29
    4be8:	cd b7       	in	r28, 0x3d	; 61
    4bea:	de b7       	in	r29, 0x3e	; 62
    4bec:	ca 1b       	sub	r28, r26
    4bee:	db 0b       	sbc	r29, r27
    4bf0:	0f b6       	in	r0, 0x3f	; 63
    4bf2:	f8 94       	cli
    4bf4:	de bf       	out	0x3e, r29	; 62
    4bf6:	0f be       	out	0x3f, r0	; 63
    4bf8:	cd bf       	out	0x3d, r28	; 61
    4bfa:	09 94       	ijmp

00004bfc <__epilogue_restores__>:
    4bfc:	2a 88       	ldd	r2, Y+18	; 0x12
    4bfe:	39 88       	ldd	r3, Y+17	; 0x11
    4c00:	48 88       	ldd	r4, Y+16	; 0x10
    4c02:	5f 84       	ldd	r5, Y+15	; 0x0f
    4c04:	6e 84       	ldd	r6, Y+14	; 0x0e
    4c06:	7d 84       	ldd	r7, Y+13	; 0x0d
    4c08:	8c 84       	ldd	r8, Y+12	; 0x0c
    4c0a:	9b 84       	ldd	r9, Y+11	; 0x0b
    4c0c:	aa 84       	ldd	r10, Y+10	; 0x0a
    4c0e:	b9 84       	ldd	r11, Y+9	; 0x09
    4c10:	c8 84       	ldd	r12, Y+8	; 0x08
    4c12:	df 80       	ldd	r13, Y+7	; 0x07
    4c14:	ee 80       	ldd	r14, Y+6	; 0x06
    4c16:	fd 80       	ldd	r15, Y+5	; 0x05
    4c18:	0c 81       	ldd	r16, Y+4	; 0x04
    4c1a:	1b 81       	ldd	r17, Y+3	; 0x03
    4c1c:	aa 81       	ldd	r26, Y+2	; 0x02
    4c1e:	b9 81       	ldd	r27, Y+1	; 0x01
    4c20:	ce 0f       	add	r28, r30
    4c22:	d1 1d       	adc	r29, r1
    4c24:	0f b6       	in	r0, 0x3f	; 63
    4c26:	f8 94       	cli
    4c28:	de bf       	out	0x3e, r29	; 62
    4c2a:	0f be       	out	0x3f, r0	; 63
    4c2c:	cd bf       	out	0x3d, r28	; 61
    4c2e:	ed 01       	movw	r28, r26
    4c30:	08 95       	ret

00004c32 <_exit>:
    4c32:	f8 94       	cli

00004c34 <__stop_program>:
    4c34:	ff cf       	rjmp	.-2      	; 0x4c34 <__stop_program>
