
UART_solution_struct.elf:     file format elf32-avr

Sections:
Idx Name          Size      VMA       LMA       File off  Algn
  0 .data         00000116  00800100  00002c1a  00002cae  2**0
                  CONTENTS, ALLOC, LOAD, DATA
  1 .text         00002c1a  00000000  00000000  00000094  2**1
                  CONTENTS, ALLOC, LOAD, READONLY, CODE
  2 .bss          00000066  00800216  00800216  00002dc4  2**0
                  ALLOC
  3 .comment      0000005c  00000000  00000000  00002dc4  2**0
                  CONTENTS, READONLY
  4 .note.gnu.avr.deviceinfo 00000040  00000000  00000000  00002e20  2**2
                  CONTENTS, READONLY
  5 .debug_aranges 00000220  00000000  00000000  00002e60  2**0
                  CONTENTS, READONLY, DEBUGGING
  6 .debug_info   00003d82  00000000  00000000  00003080  2**0
                  CONTENTS, READONLY, DEBUGGING
  7 .debug_abbrev 00001684  00000000  00000000  00006e02  2**0
                  CONTENTS, READONLY, DEBUGGING
  8 .debug_line   00001c39  00000000  00000000  00008486  2**0
                  CONTENTS, READONLY, DEBUGGING
  9 .debug_frame  000006c0  00000000  00000000  0000a0c0  2**2
                  CONTENTS, READONLY, DEBUGGING
 10 .debug_str    00000c66  00000000  00000000  0000a780  2**0
                  CONTENTS, READONLY, DEBUGGING
 11 .debug_loc    000029bf  00000000  00000000  0000b3e6  2**0
                  CONTENTS, READONLY, DEBUGGING
 12 .debug_ranges 000001a0  00000000  00000000  0000dda5  2**0
                  CONTENTS, READONLY, DEBUGGING

Disassembly of section .text:

00000000 <__vectors>:
       0:	0c 94 4e 08 	jmp	0x109c	; 0x109c <__ctors_end>
       4:	0c 94 6b 08 	jmp	0x10d6	; 0x10d6 <__bad_interrupt>
       8:	0c 94 6b 08 	jmp	0x10d6	; 0x10d6 <__bad_interrupt>
       c:	0c 94 6b 08 	jmp	0x10d6	; 0x10d6 <__bad_interrupt>
      10:	0c 94 6b 08 	jmp	0x10d6	; 0x10d6 <__bad_interrupt>
      14:	0c 94 6b 08 	jmp	0x10d6	; 0x10d6 <__bad_interrupt>
      18:	0c 94 6b 08 	jmp	0x10d6	; 0x10d6 <__bad_interrupt>
      1c:	0c 94 6b 08 	jmp	0x10d6	; 0x10d6 <__bad_interrupt>
      20:	0c 94 6b 08 	jmp	0x10d6	; 0x10d6 <__bad_interrupt>
      24:	0c 94 6b 08 	jmp	0x10d6	; 0x10d6 <__bad_interrupt>
      28:	0c 94 6b 08 	jmp	0x10d6	; 0x10d6 <__bad_interrupt>
      2c:	0c 94 6b 08 	jmp	0x10d6	; 0x10d6 <__bad_interrupt>
      30:	0c 94 6b 08 	jmp	0x10d6	; 0x10d6 <__bad_interrupt>
      34:	0c 94 6b 08 	jmp	0x10d6	; 0x10d6 <__bad_interrupt>
      38:	0c 94 6b 08 	jmp	0x10d6	; 0x10d6 <__bad_interrupt>
      3c:	0c 94 6b 08 	jmp	0x10d6	; 0x10d6 <__bad_interrupt>
      40:	0c 94 6b 08 	jmp	0x10d6	; 0x10d6 <__bad_interrupt>
      44:	0c 94 6b 08 	jmp	0x10d6	; 0x10d6 <__bad_interrupt>
      48:	0c 94 6b 08 	jmp	0x10d6	; 0x10d6 <__bad_interrupt>
      4c:	0c 94 6b 08 	jmp	0x10d6	; 0x10d6 <__bad_interrupt>
      50:	0c 94 6b 08 	jmp	0x10d6	; 0x10d6 <__bad_interrupt>
      54:	0c 94 6b 08 	jmp	0x10d6	; 0x10d6 <__bad_interrupt>
      58:	0c 94 6b 08 	jmp	0x10d6	; 0x10d6 <__bad_interrupt>
      5c:	0c 94 6b 08 	jmp	0x10d6	; 0x10d6 <__bad_interrupt>
      60:	0c 94 6b 08 	jmp	0x10d6	; 0x10d6 <__bad_interrupt>
      64:	0c 94 6b 08 	jmp	0x10d6	; 0x10d6 <__bad_interrupt>
      68:	0c 94 6b 08 	jmp	0x10d6	; 0x10d6 <__bad_interrupt>
      6c:	0c 94 6b 08 	jmp	0x10d6	; 0x10d6 <__bad_interrupt>
      70:	0c 94 6b 08 	jmp	0x10d6	; 0x10d6 <__bad_interrupt>
      74:	0c 94 6b 08 	jmp	0x10d6	; 0x10d6 <__bad_interrupt>
      78:	0c 94 6b 08 	jmp	0x10d6	; 0x10d6 <__bad_interrupt>
      7c:	0c 94 6b 08 	jmp	0x10d6	; 0x10d6 <__bad_interrupt>
      80:	0c 94 6b 08 	jmp	0x10d6	; 0x10d6 <__bad_interrupt>
      84:	0c 94 6b 08 	jmp	0x10d6	; 0x10d6 <__bad_interrupt>
      88:	0c 94 6b 08 	jmp	0x10d6	; 0x10d6 <__bad_interrupt>
      8c:	0c 94 6b 08 	jmp	0x10d6	; 0x10d6 <__bad_interrupt>
      90:	0c 94 6b 08 	jmp	0x10d6	; 0x10d6 <__bad_interrupt>
      94:	0c 94 6b 08 	jmp	0x10d6	; 0x10d6 <__bad_interrupt>
      98:	0c 94 6b 08 	jmp	0x10d6	; 0x10d6 <__bad_interrupt>
      9c:	0c 94 6b 08 	jmp	0x10d6	; 0x10d6 <__bad_interrupt>
      a0:	0c 94 6b 08 	jmp	0x10d6	; 0x10d6 <__bad_interrupt>
      a4:	0c 94 6b 08 	jmp	0x10d6	; 0x10d6 <__bad_interrupt>
      a8:	0c 94 6b 08 	jmp	0x10d6	; 0x10d6 <__bad_interrupt>
      ac:	0c 94 6b 08 	jmp	0x10d6	; 0x10d6 <__bad_interrupt>
      b0:	0c 94 6b 08 	jmp	0x10d6	; 0x10d6 <__bad_interrupt>
      b4:	0c 94 6b 08 	jmp	0x10d6	; 0x10d6 <__bad_interrupt>
      b8:	0c 94 6b 08 	jmp	0x10d6	; 0x10d6 <__bad_interrupt>
      bc:	0c 94 6b 08 	jmp	0x10d6	; 0x10d6 <__bad_interrupt>
      c0:	0c 94 6b 08 	jmp	0x10d6	; 0x10d6 <__bad_interrupt>
      c4:	0c 94 6b 08 	jmp	0x10d6	; 0x10d6 <__bad_interrupt>
      c8:	0c 94 6b 08 	jmp	0x10d6	; 0x10d6 <__bad_interrupt>

000000cc <CONFIG2>:
      cc:	3a 00 64 3a 65 bb 08 3a 09 bb 50 10 52 67 51 77     :.d:e..:..P.RgQw
      dc:	18 04 05 a1 54 01 55 21 07 00 06 0c 0b 03 50 10     ....T.U!......P.
      ec:	51 00 52 04 61 0f 64 55 65 55 18 04 05 a1 ff ff     Q.R.a.dUeU......
      fc:	ff ff                                               ..

000000fe <CONFIG>:
      fe:	3a 01 2a 04 28 00 29 00 20 00 21 00 22 00 23 00     :.*.(.). .!.".#.
     10e:	24 00 25 00 26 00 27 00 28 01 28 02 21 8f 28 03     $.%.&.'.(.(.!.(.
     11e:	21 00 28 04 28 05 28 06 28 07 28 08 28 09 28 0a     !.(.(.(.(.(.(.(.
     12e:	28 0b 28 0c 20 80 21 90 28 0d 20 00 21 00 28 0e     (.(. .!.(. .!.(.
     13e:	20 81 21 91 28 0f 20 00 21 92 28 10 21 00 28 11      .!.(. .!.(.!.(.
     14e:	21 93 28 12 21 00 28 13 28 14 28 15 20 82 28 16     !.(.!.(.(.(. .(.
     15e:	20 00 28 17 28 18 28 19 21 94 28 1a 21 95 28 1b      .(.(.(.!.(.!.(.
     16e:	21 96 28 1c 21 00 28 1d 20 83 28 1e 20 00 28 1f     !.(.!.(. .(. .(.
     17e:	21 97 28 20 21 00 28 21 28 22 28 23 28 24 28 25     !.( !.(!("(#($(%
     18e:	28 26 28 27 28 28 28 29 28 2a 20 84 28 2b 20 00     (&('((()(* .(+ .
     19e:	28 2c 28 2d 28 2e 28 2f 28 30 28 31 28 32 20 85     (,(-(.(/(0(1(2 .
     1ae:	28 33 20 00 28 34 28 35 28 36 28 37 21 98 28 38     (3 .(4(5(6(7!.(8
     1be:	21 00 28 39 28 3a 28 3b 28 3c 28 3d 28 3e 28 3f     !.(9(:(;(<(=(>(?
     1ce:	28 40 28 41 28 42 28 43 28 44 28 45 28 46 28 47     (@(A(B(C(D(E(F(G
     1de:	28 48 28 49 28 4a 28 4b 28 4c 28 4d 28 4e 28 4f     (H(I(J(K(L(M(N(O
     1ee:	28 50 28 51 28 52 28 53 28 54 28 55 28 56 28 57     (P(Q(R(S(T(U(V(W
     1fe:	28 58 28 59 28 5a 28 5b 28 5c 28 5d 28 5e 28 5f     (X(Y(Z([(\(](^(_
     20e:	28 60 28 61 28 62 21 99 28 63 21 00 28 64 28 65     (`(a(b!.(c!.(d(e
     21e:	28 66 28 67 28 68 28 69 28 6a 28 6b 28 6c 28 6d     (f(g(h(i(j(k(l(m
     22e:	28 6e 28 6f 28 70 28 71 28 72 28 73 28 74 28 75     (n(o(p(q(r(s(t(u
     23e:	28 76 28 77 28 78 28 79 28 7a 28 7b 28 7c 28 7d     (v(w(x(y(z({(|(}
     24e:	28 7e 28 7f 28 80 28 81 28 82 28 83 28 84 28 85     (~(.(.(.(.(.(.(.
     25e:	28 86 28 87 28 88 28 89 28 8a 28 8b 28 8c 28 8d     (.(.(.(.(.(.(.(.
     26e:	28 8e 28 8f 28 90 28 91 20 86 28 92 20 87 28 93     (.(.(.(. .(. .(.
     27e:	20 00 28 94 28 95 28 96 28 97 28 98 28 99 28 9a      .(.(.(.(.(.(.(.
     28e:	28 9b 28 9c 28 9d 28 9e 28 9f 21 9a 28 a0 21 00     (.(.(.(.(.!.(.!.
     29e:	28 a1 28 a2 28 a3 28 a4 28 a5 28 a6 28 a7 28 a8     (.(.(.(.(.(.(.(.
     2ae:	28 a9 28 aa 28 ab 28 ac 28 ad 28 ae 28 af 28 b0     (.(.(.(.(.(.(.(.
     2be:	28 b1 28 b2 28 b3 28 b4 28 b5 28 b6 28 b7 28 b8     (.(.(.(.(.(.(.(.
     2ce:	28 b9 20 88 28 ba 20 00 28 bb 20 89 28 bc 20 00     (. .(. .(. .(. .
     2de:	28 bd 28 be 28 bf 28 c0 28 c1 28 c2 28 c3 21 9b     (.(.(.(.(.(.(.!.
     2ee:	28 c4 21 00 28 c5 28 c6 28 c7 28 c8 28 c9 28 ca     (.!.(.(.(.(.(.(.
     2fe:	28 cb 28 cc 28 cd 28 ce 28 cf 28 d0 28 d1 28 d2     (.(.(.(.(.(.(.(.
     30e:	28 d3 28 d4 28 d5 28 d6 28 d7 28 d8 28 d9 28 da     (.(.(.(.(.(.(.(.
     31e:	28 db 28 dc 28 dd 28 de 28 df 28 e0 28 e1 20 8a     (.(.(.(.(.(.(. .
     32e:	28 e2 20 8b 28 e3 20 00 28 e4 28 e5 28 e6 28 e7     (. .(. .(.(.(.(.
     33e:	28 e8 28 e9 28 ea 28 eb 28 ec 28 ed 28 ee 28 ef     (.(.(.(.(.(.(.(.
     34e:	28 f0 28 f1 28 f2 28 f3 28 f4 28 f5 28 f6 28 f7     (.(.(.(.(.(.(.(.
     35e:	28 f8 20 8c 28 f9 20 00 21 9c 28 fa 21 9d 28 fb     (. .(. .!.(.!.(.
     36e:	20 8d 21 9e 28 fc 20 8e 21 9f 28 fd 20 00 21 00      .!.(. .!.(. .!.
     37e:	28 fe 28 ff 2a 01 28 00 22 01 23 95 24 89 25 07     (.(.*.(.".#.$.%.
     38e:	26 a4 27 07 28 01 21 c7 22 00 23 80 26 c4 27 0c     &.'.(.!.".#.&.'.
     39e:	28 02 20 09 21 1c 22 04 26 aa 27 0a 28 03 20 00     (. .!.".&.'.(. .
     3ae:	21 00 22 00 23 a6 26 a0 27 07 28 04 28 05 20 05     !.".#.&.'.(.(. .
     3be:	23 84 26 b4 27 09 28 06 20 00 22 03 23 00 24 81     #.&.'.(. .".#.$.
     3ce:	25 c0 26 ab 27 0a 28 07 21 ae 22 00 23 95 24 89     %.&.'.(.!.".#.$.
     3de:	25 07 26 a4 27 00 28 08 21 48 22 01 23 80 26 c4     %.&.'.(.!H".#.&.
     3ee:	27 0c 28 09 20 09 21 04 22 04 26 aa 27 0a 28 0a     '.(. .!.".&.'.(.
     3fe:	20 00 21 00 22 00 23 a8 26 a4 27 07 28 0b 28 0c      .!.".#.&.'.(.(.
     40e:	21 40 22 20 23 80 26 c4 27 0c 28 0d 22 24 26 c6     !@" #.&.'.(."$&.
     41e:	28 0e 21 9e 22 00 26 c8 28 0f 20 09 21 02 22 14     (.!.".&.(. .!.".
     42e:	26 aa 27 0a 28 10 20 05 21 00 22 00 23 84 26 b4     &.'.(. .!.".#.&.
     43e:	27 09 28 11 20 00 21 01 23 00 24 01 25 c0 26 ab     '.(. .!.#.$.%.&.
     44e:	27 0a 28 12 21 c3 23 95 24 89 25 07 26 20 27 00     '.(.!.#.$.%.& '.
     45e:	28 13 20 03 21 c2 23 83 26 26 27 0d 28 14 21 b3     (. .!.#.&&'.(.!.
     46e:	22 08 28 15 20 00 21 c6 22 00 23 95 26 00 27 08     ".(. .!.".#.&.'.
     47e:	28 16 21 00 23 00 24 96 25 03 26 aa 27 0a 28 17     (.!.#.$.%.&.'.(.
     48e:	20 42 21 b6 23 80 24 89 25 07 28 18 20 00 21 00      B!.#.$.%.(. .!.
     49e:	23 94 26 0e 28 19 20 0f 23 84 26 b4 27 09 28 1a     #.&.(. .#.&.'.(.
     4ae:	20 00 23 93 26 a8 27 03 28 1b 26 28 27 00 28 1c      .#.&.'.(.&('.(.
     4be:	21 01 23 00 24 01 25 c0 26 ab 27 0a 28 1d 21 c5     !.#.$.%.&.'.(.!.
     4ce:	23 95 24 89 25 07 26 20 27 00 28 1e 21 00 23 94     #.$.%.& '.(.!.#.
     4de:	26 00 27 0a 28 1f 26 0e 28 20 20 03 21 79 22 01     &.'.(.&.(  .!y".
     4ee:	23 83 26 26 27 0d 28 21 21 32 28 22 20 00 21 04     #.&&'.(!!2(" .!.
     4fe:	22 00 23 80 24 00 25 fc 26 aa 27 0a 28 23 21 00     ".#.$.%.&.'.(#!.
     50e:	23 00 25 00 28 24 21 a3 22 0d 23 80 24 9e 25 3b     #.%.($!.".#.$.%;
     51e:	28 25 20 42 21 57 22 01 24 89 25 07 28 26 20 00     (% B!W".$.%.(& .
     52e:	21 43 22 0d 24 00 25 38 28 27 21 08 22 98 23 95     !C".$.%8('!.".#.
     53e:	24 89 25 07 26 24 27 00 28 28 20 42 21 93 22 01     $.%.&$'.(( B!.".
     54e:	23 80 26 aa 27 0a 28 29 20 03 21 7e 22 04 23 83     #.&.'.() .!~".#.
     55e:	26 26 27 0d 28 2a 20 00 21 b0 22 00 23 95 26 a0     &&'.(* .!.".#.&.
     56e:	27 07 28 2b 21 00 23 00 24 0c 25 04 26 aa 27 0a     '.(+!.#.$.%.&.'.
     57e:	28 2c 21 02 23 80 24 86 25 c3 26 ab 28 2d 20 42     (,!.#.$.%.&.(- B
     58e:	21 97 22 01 24 89 25 07 26 aa 28 2e 20 00 21 00     !.".$.%.&.(. .!.
     59e:	22 00 24 1f 25 04 28 2f 21 b2 23 95 24 89 25 07     ".$.%.(/!.#.$.%.
     5ae:	26 20 27 04 28 30 20 42 21 8b 22 04 23 80 26 aa     & '.(0 B!.".#.&.
     5be:	27 0a 28 31 20 00 21 b1 22 00 23 95 26 a0 27 07     '.(1 .!.".#.&.'.
     5ce:	28 32 20 03 21 75 22 04 23 83 26 26 27 0d 28 33     (2 .!u".#.&&'.(3
     5de:	20 05 21 00 22 00 23 84 26 b4 27 09 28 34 20 00      .!.".#.&.'.(4 .
     5ee:	21 60 23 00 24 01 25 c0 26 ab 27 0a 28 35 21 08     !`#.$.%.&.'.(5!.
     5fe:	22 98 23 95 24 89 25 07 26 24 27 00 28 36 21 bc     ".#.$.%.&$'.(6!.
     60e:	22 00 28 37 21 a3 22 0d 23 00 24 01 25 c0 26 ab     ".(7!.".#.$.%.&.
     61e:	27 0a 28 38 21 60 22 00 23 80 24 00 25 38 26 aa     '.(8!`".#.$.%8&.
     62e:	28 39 21 06 22 98 23 95 24 89 25 07 26 24 27 00     (9!.".#.$.%.&$'.
     63e:	28 3a 21 be 22 00 28 3b 20 05 21 00 23 84 26 b4     (:!.".(; .!.#.&.
     64e:	27 09 28 3c 20 00 21 60 23 00 24 01 25 c0 26 ab     '.(< .!`#.$.%.&.
     65e:	27 0a 28 3d 21 42 22 01 23 95 24 89 25 07 26 24     '.(=!B".#.$.%.&$
     66e:	27 00 28 3e 21 0c 22 98 26 a4 27 07 28 3f 21 08     '.(>!.".&.'.(?!.
     67e:	28 40 21 60 22 00 23 00 24 01 25 c0 26 ab 27 0a     (@!`".#.$.%.&.'.
     68e:	28 41 21 0c 22 98 23 95 24 89 25 07 26 24 27 00     (A!.".#.$.%.&$'.
     69e:	28 42 20 05 21 00 22 00 23 84 26 b4 27 09 28 43     (B .!.".#.&.'.(C
     6ae:	20 00 23 80 24 00 25 10 26 ab 27 0a 28 44 21 22      .#.$.%.&.'.(D!"
     6be:	22 01 23 95 24 89 25 07 26 24 27 00 28 45 21 00     ".#.$.%.&$'.(E!.
     6ce:	22 00 23 00 24 04 25 12 26 aa 27 0a 28 46 20 03     ".#.$.%.&.'.(F .
     6de:	21 d4 22 05 23 83 24 89 25 07 26 26 27 0d 28 47     !.".#.$.%.&&'.(G
     6ee:	20 00 21 60 22 00 23 00 24 01 25 c0 26 ab 27 0a      .!`".#.$.%.&.'.
     6fe:	28 48 21 b3 23 95 24 89 25 07 26 00 27 08 28 49     (H!.#.$.%.&.'.(I
     70e:	21 00 23 00 24 09 25 00 26 aa 27 0a 28 4a 21 02     !.#.$.%.&.'.(J!.
     71e:	23 80 24 86 25 3b 28 4b 20 42 21 dd 22 05 24 89     #.$.%;(K B!.".$.
     72e:	25 07 28 4c 20 00 21 00 22 00 24 1f 25 00 28 4d     %.(L .!.".$.%.(M
     73e:	21 b3 23 95 24 89 25 07 26 20 27 00 28 4e 21 00     !.#.$.%.& '.(N!.
     74e:	23 00 24 97 25 03 26 aa 27 0a 28 4f 20 42 21 e2     #.$.%.&.'.(O B!.
     75e:	22 05 23 80 24 89 25 07 28 50 20 00 21 10 22 00     ".#.$.%.(P .!.".
     76e:	23 00 24 80 25 cc 26 ab 28 51 21 00 22 40 23 b4     #.$.%.&.(Q!."@#.
     77e:	24 89 25 07 26 aa 27 04 28 52 22 00 23 b0 26 92     $.%.&.'.(R".#.&.
     78e:	27 09 28 53 21 14 22 01 23 95 26 00 27 08 28 54     '.(S!.".#.&.'.(T
     79e:	21 48 23 a4 26 2a 27 00 28 55 21 00 22 00 23 00     !H#.&*'.(U!.".#.
     7ae:	24 09 25 00 26 aa 27 0a 28 56 21 08 23 80 24 86     $.%.&.'.(V!.#.$.
     7be:	25 3b 28 57 20 42 21 11 22 07 24 89 25 07 28 58     %;(W B!.".$.%.(X
     7ce:	20 00 21 00 22 00 24 1f 25 00 28 59 21 14 22 01      .!.".$.%.(Y!.".
     7de:	23 95 24 89 25 07 26 20 27 00 28 5a 21 16 26 02     #.$.%.& '.(Z!.&.
     7ee:	27 09 28 5b 21 00 22 00 23 00 24 80 25 48 26 aa     '.([!.".#.$.%H&.
     7fe:	27 0a 28 5c 23 a0 24 89 25 07 26 14 27 09 28 5d     '.(\#.$.%.&.'.(]
     80e:	24 80 25 50 26 a4 27 04 28 5e 21 16 22 01 23 95     $.%P&.'.(^!.".#.
     81e:	24 89 25 07 27 00 28 5f 21 04 22 00 23 00 24 9c     $.%.'.(_!.".#.$.
     82e:	25 78 26 aa 27 0a 28 60 21 43 22 0d 24 01 25 c4     %x&.'.(`!C".$.%.
     83e:	26 ab 28 61 21 03 22 00 24 15 28 62 21 00 24 00     &.(a!.".$.(b!.$.
     84e:	25 00 26 aa 28 63 21 5e 23 95 24 89 25 07 26 10     %.&.(c!^#.$.%.&.
     85e:	27 09 28 64 21 03 23 00 24 15 25 c4 26 ab 27 0a     '.(d!.#.$.%.&.'.
     86e:	28 65 21 00 23 80 24 00 25 06 26 aa 28 66 24 8f     (e!.#.$.%.&.(f$.
     87e:	25 e3 26 ab 28 67 20 42 21 cd 22 07 24 89 25 07     %.&.(g B!.".$.%.
     88e:	26 aa 28 68 20 00 21 60 22 00 23 00 24 01 25 c0     &.(h .!`".#.$.%.
     89e:	26 ab 28 69 21 00 23 80 24 8f 25 03 26 aa 28 6a     &.(i!.#.$.%.&.(j
     8ae:	20 42 21 dd 22 07 24 89 25 07 28 6b 20 00 21 43      B!.".$.%.(k .!C
     8be:	22 0d 23 00 24 01 25 c0 26 ab 28 6c 21 00 22 00     ".#.$.%.&.(l!.".
     8ce:	24 00 25 04 26 aa 28 6d 20 03 21 7f 22 01 23 83     $.%.&.(m .!.".#.
     8de:	24 89 25 07 26 26 27 0d 28 6e 21 62 28 6f 20 05     $.%.&&'.(n!b(o .
     8ee:	21 00 22 00 23 84 26 b4 27 09 28 70 20 00 21 06     !.".#.&.'.(p .!.
     8fe:	23 95 26 00 27 08 28 71 21 01 23 00 24 97 25 3b     #.&.'.(q!.#.$.%;
     90e:	26 aa 27 0a 28 72 20 42 21 0e 22 08 23 80 24 89     &.'.(r B!.".#.$.
     91e:	25 07 28 73 20 03 21 3c 22 0b 23 83 26 26 27 0d     %.(s .!<".#.&&'.
     92e:	28 74 20 00 21 03 22 00 23 95 26 02 27 08 28 75     (t .!.".#.&.'.(u
     93e:	21 27 23 00 24 81 25 c4 26 ab 27 0a 28 76 21 00     !'#.$.%.&.'.(v!.
     94e:	23 80 24 09 25 48 26 aa 28 77 21 58 22 34 23 a3     #.$.%H&.(w!X"4#.
     95e:	24 89 25 07 26 2a 27 00 28 78 21 00 22 00 23 a0     $.%.&*'.(x!.".#.
     96e:	26 00 27 09 28 79 21 07 23 80 24 03 25 39 26 aa     &.'.(y!.#.$.%9&.
     97e:	27 0a 28 7a 21 04 23 00 24 1c 25 38 28 7b 21 07     '.(z!.#.$.%8({!.
     98e:	23 80 24 83 25 39 28 7c 21 03 23 95 24 89 25 07     #.$.%9(|!.#.$.%.
     99e:	26 02 27 08 28 7d 21 27 23 00 24 81 25 c4 26 ab     &.'.(}!'#.$.%.&.
     9ae:	27 0a 28 7e 21 00 23 80 24 09 25 48 26 aa 28 7f     '.(~!.#.$.%H&.(.
     9be:	21 58 22 34 23 a3 24 89 25 07 26 2a 27 00 28 80     !X"4#.$.%.&*'.(.
     9ce:	21 06 22 00 23 00 24 81 25 c0 26 93 27 01 28 81     !.".#.$.%.&.'.(.
     9de:	21 00 23 80 24 89 25 48 26 aa 27 0a 28 82 20 02     !.#.$.%H&.'.(. .
     9ee:	21 66 22 08 23 00 24 00 25 66 28 83 20 00 21 00     !f".#.$.%f(. .!.
     9fe:	22 00 23 80 24 1f 25 02 28 84 21 06 24 89 25 07     ".#.$.%.(.!.$.%.
     a0e:	26 dc 27 0c 28 85 21 00 23 aa 26 aa 27 0a 28 86     &.'.(.!.#.&.'.(.
     a1e:	23 b6 26 00 27 08 28 87 23 80 24 86 25 3b 26 aa     #.&.'.(.#.$.%;&.
     a2e:	27 0a 28 88 21 05 24 89 25 07 26 dc 27 0c 28 89     '.(.!.$.%.&.'.(.
     a3e:	21 00 23 aa 26 aa 27 0a 28 8a 23 b6 26 00 27 08     !.#.&.'.(.#.&.'.
     a4e:	28 8b 23 80 24 86 25 3b 26 aa 27 0a 28 8c 20 42     (.#.$.%;&.'.(. B
     a5e:	21 7b 22 08 24 89 25 07 28 8d 20 00 21 00 22 00     !{".$.%.(. .!.".
     a6e:	23 00 24 01 25 82 28 8e 21 05 24 81 25 c2 26 ab     #.$.%.(.!.$.%.&.
     a7e:	28 8f 20 03 21 93 22 08 23 83 24 89 25 07 26 26     (. .!.".#.$.%.&&
     a8e:	27 0d 28 90 20 00 21 05 22 00 23 00 24 81 25 c0     '.(. .!.".#.$.%.
     a9e:	26 13 27 01 28 91 21 00 23 80 24 89 25 48 26 aa     &.'.(.!.#.$.%H&.
     aae:	27 0a 28 92 20 02 21 7e 22 08 23 00 24 00 25 66     '.(. .!~".#.$.%f
     abe:	28 93 20 00 21 00 22 00 23 80 24 1f 25 02 28 94     (. .!.".#.$.%.(.
     ace:	21 05 24 89 25 07 26 dc 27 0c 28 95 21 00 23 aa     !.$.%.&.'.(.!.#.
     ade:	26 aa 27 0a 28 96 23 b6 26 00 27 08 28 97 23 80     &.'.(.#.&.'.(.#.
     aee:	24 86 25 3b 26 aa 27 0a 28 98 21 05 24 89 25 07     $.%;&.'.(.!.$.%.
     afe:	26 dc 27 0c 28 99 21 00 23 aa 26 aa 27 0a 28 9a     &.'.(.!.#.&.'.(.
     b0e:	23 80 24 1f 25 02 28 9b 21 01 23 00 24 81 25 c2     #.$.%.(.!.#.$.%.
     b1e:	26 ab 28 9c 20 03 21 93 22 08 23 83 24 89 25 07     &.(. .!.".#.$.%.
     b2e:	26 26 27 0d 28 9d 20 00 21 04 22 00 23 95 26 12     &&'.(. .!.".#.&.
     b3e:	27 08 28 9e 21 60 23 c4 26 aa 27 04 28 9f 21 00     '.(.!`#.&.'.(.!.
     b4e:	23 c0 26 00 27 09 28 a0 20 42 21 cb 22 08 23 80     #.&.'.(. B!.".#.
     b5e:	26 aa 27 0a 28 a1 20 70 21 54 22 b8 23 95 26 12     &.'.(. p!T".#.&.
     b6e:	27 08 28 a2 20 02 21 cc 22 08 23 80 26 aa 27 0a     '.(. .!.".#.&.'.
     b7e:	28 a3 20 03 21 ca 22 0f 23 83 26 26 27 0d 28 a4     (. .!.".#.&&'.(.
     b8e:	20 00 21 00 22 00 23 00 24 8c 25 0c 26 aa 27 0a      .!.".#.$.%.&.'.
     b9e:	28 a5 21 04 24 82 25 78 28 a6 21 00 23 80 24 89     (.!.$.%x(.!.#.$.
     bae:	25 48 26 12 27 04 28 a7 20 03 21 de 22 0f 23 83     %H&.'.(. .!.".#.
     bbe:	25 07 26 26 27 0d 28 a8 20 00 21 01 22 00 23 00     %.&&'.(. .!.".#.
     bce:	24 9c 25 78 26 aa 27 0a 28 a9 21 00 23 80 24 81     $.%x&.'.(.!.#.$.
     bde:	25 40 28 aa 20 03 21 cf 22 0f 23 83 24 89 25 07     %@(. .!.".#.$.%.
     bee:	26 26 27 0d 28 ab 20 70 21 08 22 b8 23 95 26 a0     &&'.(. p!.".#.&.
     bfe:	27 04 28 ac 20 03 21 d4 22 0f 23 83 26 26 27 0d     '.(. .!.".#.&&'.
     c0e:	28 ad 21 27 22 0b 28 ae 20 70 21 63 22 b8 23 95     (.!'".(. p!c".#.
     c1e:	26 12 27 08 28 af 20 00 21 01 22 00 23 80 24 86     &.'.(. .!.".#.$.
     c2e:	25 cb 26 ab 27 0a 28 b0 20 42 21 dd 22 08 24 89     %.&.'.(. B!.".$.
     c3e:	25 07 26 aa 28 b1 20 00 21 18 22 80 23 95 26 a4     %.&.(. .!.".#.&.
     c4e:	27 00 28 b2 20 03 21 d9 22 0f 23 83 26 26 27 0d     '.(. .!.".#.&&'.
     c5e:	28 b3 20 70 21 0a 22 b8 23 95 26 a0 27 00 28 b4     (. p!.".#.&.'.(.
     c6e:	20 02 21 e0 22 08 23 80 26 aa 27 0a 28 b5 20 70      .!.".#.&.'.(. p
     c7e:	21 0a 22 b8 23 95 26 a0 27 00 28 b6 21 54 26 02     !.".#.&.'.(.!T&.
     c8e:	27 08 28 b7 20 00 21 18 22 80 26 a4 27 00 28 b8     '.(. .!.".&.'.(.
     c9e:	21 00 22 00 23 80 24 80 25 48 26 aa 27 0a 28 b9     !.".#.$.%H&.'.(.
     cae:	20 70 21 5e 22 b8 23 95 24 89 25 07 26 12 27 08      p!^".#.$.%.&.'.
     cbe:	28 ba 20 00 21 00 22 00 23 80 24 09 25 4b 26 aa     (. .!.".#.$.%K&.
     cce:	27 0a 28 bb 20 70 21 5f 22 b8 23 95 24 89 25 07     '.(. p!_".#.$.%.
     cde:	26 10 27 08 28 bc 20 00 21 00 22 00 23 00 24 1c     &.'.(. .!.".#.$.
     cee:	25 83 26 ab 27 0a 28 bd 20 03 21 32 22 09 23 83     %.&.'.(. .!2".#.
     cfe:	24 89 25 07 26 26 27 0d 28 be 20 00 21 00 22 00     $.%.&&'.(. .!.".
     d0e:	23 00 24 82 25 8c 26 ab 27 0a 28 bf 20 03 21 25     #.$.%.&.'.(. .!%
     d1e:	22 09 23 83 24 89 25 07 26 26 27 0d 28 c0 20 42     ".#.$.%.&&'.(. B
     d2e:	21 bc 23 80 26 aa 27 0a 28 c1 20 00 21 01 22 00     !.#.&.'.(. .!.".
     d3e:	23 00 24 01 25 c0 26 ab 28 c2 20 70 21 0f 22 b8     #.$.%.&.(. p!.".
     d4e:	23 95 24 89 25 07 26 20 27 00 28 c3 20 03 21 e3     #.$.%.& '.(. .!.
     d5e:	22 0f 23 83 26 26 27 0d 28 c4 20 05 21 00 22 00     ".#.&&'.(. .!.".
     d6e:	23 84 26 b4 27 09 28 c5 20 00 21 03 23 95 26 14     #.&.'.(. .!.#.&.
     d7e:	27 08 28 c6 21 a6 23 a4 26 2a 27 05 28 c7 21 00     '.(.!.#.&*'.(.!.
     d8e:	23 a0 26 44 27 09 28 c8 21 18 22 6d 23 80 24 9e     #.&D'.(.!."m#.$.
     d9e:	25 7b 26 aa 27 0a 28 c9 20 42 21 13 22 0b 24 89     %{&.'.(. B!.".$.
     dae:	25 07 28 ca 20 00 21 ae 22 00 23 95 26 24 27 00     %.(. .!.".#.&$'.
     dbe:	28 cb 21 00 22 03 23 80 24 87 25 7b 26 aa 27 0a     (.!.".#.$.%{&.'.
     dce:	28 cc 20 42 21 16 22 0b 24 89 25 07 28 cd 20 00     (. B!.".$.%.(. .
     dde:	21 ae 22 00 23 95 26 24 27 00 28 ce 20 05 21 00     !.".#.&$'.(. .!.
     dee:	23 84 26 b4 27 09 28 cf 20 03 21 0d 22 0b 23 83     #.&.'.(. .!.".#.
     dfe:	26 26 27 0d 28 d0 20 00 21 00 22 00 23 00 24 80     &&'.(. .!.".#.$.
     e0e:	26 02 27 00 28 d1 23 80 24 09 25 48 26 1e 28 d2     &.'.(.#.$.%H&.(.
     e1e:	21 58 22 34 23 33 24 80 25 07 26 2a 28 d3 21 00     !X"4#3$.%.&*(.!.
     e2e:	22 00 23 00 26 80 27 10 28 d4 21 10 23 63 26 2a     ".#.&.'.(.!.#c&*
     e3e:	27 00 28 d5 21 00 23 60 26 a8 27 12 28 d6 21 af     '.(.!.#`&.'.(.!.
     e4e:	22 4c 23 00 26 c8 27 0c 28 d7 21 00 22 00 26 80     "L#.&.'.(.!.".&.
     e5e:	27 05 28 d8 23 80 24 86 25 3b 26 1e 27 00 28 d9     '.(.#.$.%;&.'.(.
     e6e:	20 42 21 1c 22 0e 23 00 24 80 25 07 28 da 20 00      B!.".#.$.%.(. .
     e7e:	21 35 22 29 26 c4 27 0c 28 db 20 02 21 1d 22 0e     !5")&.'.(. .!.".
     e8e:	26 1e 27 00 28 dc 20 00 21 7f 22 34 26 c4 27 0c     &.'.(. .!."4&.'.
     e9e:	28 dd 21 00 22 00 23 90 24 9f 25 04 26 10 27 0a     (.!.".#.$.%.&.'.
     eae:	28 de 23 00 24 84 25 00 26 80 27 10 28 df 21 06     (.#.$.%.&.'.(.!.
     ebe:	23 63 24 80 25 07 26 2a 27 00 28 e0 21 00 23 80     #c$.%.&*'.(.!.#.
     ece:	24 89 26 aa 27 0a 28 e1 20 05 23 84 26 b4 27 09     $.&.'.(. .#.&.'.
     ede:	28 e2 20 70 21 61 22 b8 23 95 26 12 27 08 28 e3     (. p!a".#.&.'.(.
     eee:	20 00 21 01 22 00 23 80 24 86 25 c3 26 ab 27 0a      .!.".#.$.%.&.'.
     efe:	28 e4 20 42 21 ce 22 0f 24 89 25 07 26 aa 28 e5     (. B!.".$.%.&.(.
     f0e:	20 70 21 50 22 b8 23 95 26 12 27 08 28 e6 20 05      p!P".#.&.'.(. .
     f1e:	21 00 22 00 23 84 26 b4 27 09 28 e7 20 70 21 64     !.".#.&.'.(. p!d
     f2e:	22 b8 23 95 26 12 27 08 28 e8 20 00 21 01 22 00     ".#.&.'.(. .!.".
     f3e:	23 80 24 86 25 c3 26 ab 27 0a 28 e9 20 42 21 d3     #.$.%.&.'.(. B!.
     f4e:	22 0f 24 89 25 07 26 aa 28 ea 20 70 21 51 22 b8     ".$.%.&.(. p!Q".
     f5e:	23 95 26 12 27 08 28 eb 20 05 21 00 22 00 23 84     #.&.'.(. .!.".#.
     f6e:	26 b4 27 09 28 ec 20 70 21 65 22 b8 23 95 26 12     &.'.(. p!e".#.&.
     f7e:	27 08 28 ed 20 00 21 01 22 00 23 80 24 86 25 c3     '.(. .!.".#.$.%.
     f8e:	26 ab 27 0a 28 ee 20 42 21 d8 22 0f 24 89 25 07     &.'.(. B!.".$.%.
     f9e:	26 aa 28 ef 20 70 21 52 22 b8 23 95 26 12 27 08     &.(. p!R".#.&.'.
     fae:	28 f0 20 05 21 00 22 00 23 84 26 b4 27 09 28 f1     (. .!.".#.&.'.(.
     fbe:	20 70 21 61 22 b8 23 95 26 02 27 08 28 f2 20 00      p!a".#.&.'.(. .
     fce:	21 01 22 00 23 80 24 86 25 c3 26 ab 27 0a 28 f3     !.".#.$.%.&.'.(.
     fde:	20 42 21 dd 22 0f 24 89 25 07 26 aa 28 f4 20 70      B!.".$.%.&.(. p
     fee:	21 50 22 b8 23 95 26 02 27 08 28 f5 20 05 21 00     !P".#.&.'.(. .!.
     ffe:	22 00 23 84 26 b4 27 09 28 f6 20 00 21 01 23 80     ".#.&.'.(. .!.#.
    100e:	24 86 25 cb 26 ab 27 0a 28 f7 20 42 21 e1 22 0f     $.%.&.'.(. B!.".
    101e:	24 89 25 07 26 aa 28 f8 20 00 21 02 22 00 23 00     $.%.&.(. .!.".#.
    102e:	24 81 25 c4 26 ab 28 f9 21 00 23 80 24 89 25 48     $.%.&.(.!.#.$.%H
    103e:	26 aa 28 fa 20 05 23 84 25 07 26 b4 27 09 28 fb     &.(. .#.%.&.'.(.
    104e:	20 70 21 4e 22 b8 23 95 26 10 27 08 28 fc 20 00      p!N".#.&.'.(. .
    105e:	21 00 22 00 23 80 24 86 25 c3 26 ab 27 0a 28 fd     !.".#.$.%.&.'.(.
    106e:	20 42 21 e7 22 0f 24 89 25 07 26 aa 28 fe 20 00      B!.".$.%.&.(. .
    107e:	21 bb 22 00 23 95 26 20 27 00 28 ff 20 05 21 00     !.".#.& '.(. .!.
    108e:	23 84 26 b4 27 09 2a 08 10 01 ff ff ff ff           #.&.'.*.......

0000109c <__ctors_end>:
    109c:	11 24       	eor	r1, r1
    109e:	1f be       	out	0x3f, r1	; 63
    10a0:	cf ef       	ldi	r28, 0xFF	; 255
    10a2:	d8 e0       	ldi	r29, 0x08	; 8
    10a4:	de bf       	out	0x3e, r29	; 62
    10a6:	cd bf       	out	0x3d, r28	; 61

000010a8 <__do_copy_data>:
    10a8:	12 e0       	ldi	r17, 0x02	; 2
    10aa:	a0 e0       	ldi	r26, 0x00	; 0
    10ac:	b1 e0       	ldi	r27, 0x01	; 1
    10ae:	ea e1       	ldi	r30, 0x1A	; 26
    10b0:	fc e2       	ldi	r31, 0x2C	; 44
    10b2:	02 c0       	rjmp	.+4      	; 0x10b8 <__do_copy_data+0x10>
    10b4:	05 90       	lpm	r0, Z+
    10b6:	0d 92       	st	X+, r0
    10b8:	a6 31       	cpi	r26, 0x16	; 22
    10ba:	b1 07       	cpc	r27, r17
    10bc:	d9 f7       	brne	.-10     	; 0x10b4 <__do_copy_data+0xc>

000010be <__do_clear_bss>:
    10be:	22 e0       	ldi	r18, 0x02	; 2
    10c0:	a6 e1       	ldi	r26, 0x16	; 22
    10c2:	b2 e0       	ldi	r27, 0x02	; 2
    10c4:	01 c0       	rjmp	.+2      	; 0x10c8 <.do_clear_bss_start>

000010c6 <.do_clear_bss_loop>:
    10c6:	1d 92       	st	X+, r1

000010c8 <.do_clear_bss_start>:
    10c8:	ac 37       	cpi	r26, 0x7C	; 124
    10ca:	b2 07       	cpc	r27, r18
    10cc:	e1 f7       	brne	.-8      	; 0x10c6 <.do_clear_bss_loop>
    10ce:	0e 94 59 0d 	call	0x1ab2	; 0x1ab2 <main>
    10d2:	0c 94 0b 16 	jmp	0x2c16	; 0x2c16 <_exit>

000010d6 <__bad_interrupt>:
    10d6:	0c 94 00 00 	jmp	0	; 0x0 <__vectors>

000010da <Export_Drive_values>:
************************************************************************/

FS_values_t * Export_Drive_values(void)
{
   return &Drive_values;
}
    10da:	86 e6       	ldi	r24, 0x66	; 102
    10dc:	92 e0       	ldi	r25, 0x02	; 2
    10de:	08 95       	ret

000010e0 <Read_Sector>:
	}
	if(return_clus==0) return_clus=no_entry_found;
   return return_clus;
 }
 
 uint8_t Read_Sector(uint32_t sector_number, uint16_t sector_size, uint8_t * array_for_data){
    10e0:	af 92       	push	r10
    10e2:	bf 92       	push	r11
    10e4:	cf 92       	push	r12
    10e6:	df 92       	push	r13
    10e8:	ef 92       	push	r14
    10ea:	ff 92       	push	r15
    10ec:	0f 93       	push	r16
    10ee:	1f 93       	push	r17
    10f0:	cf 93       	push	r28
    10f2:	6b 01       	movw	r12, r22
    10f4:	7c 01       	movw	r14, r24
    10f6:	8a 01       	movw	r16, r20
    10f8:	59 01       	movw	r10, r18
	 
	 uint8_t SDtype,error_flag=No_Disk_Error;
	 SDtype = 0;
	 //SDtype=Return_SD_Card_Type(); // HC=0, no change to sector number
	 // SC=9, multiplies sector number by 512 to convert to byte addr.
	 SD_CS_active (SD_CS_port, SD_CS_pin); //nCS0=0;
    10fa:	60 e1       	ldi	r22, 0x10	; 16
    10fc:	83 e2       	ldi	r24, 0x23	; 35
    10fe:	90 e0       	ldi	r25, 0x00	; 0
    1100:	0e 94 8b 0e 	call	0x1d16	; 0x1d16 <SD_CS_active>
	 error_flag=Send_Command(17,(sector_number<<SDtype));
    1104:	b7 01       	movw	r22, r14
    1106:	a6 01       	movw	r20, r12
    1108:	81 e1       	ldi	r24, 0x11	; 17
    110a:	0e 94 db 0e 	call	0x1db6	; 0x1db6 <Send_Command>
    110e:	c8 2f       	mov	r28, r24
	 if(error_flag==no_errors)
    1110:	81 11       	cpse	r24, r1
    1112:	05 c0       	rjmp	.+10     	; 0x111e <Read_Sector+0x3e>
	 error_flag=Read_Block(sector_size,array_for_data); //I return error for some reason
    1114:	b5 01       	movw	r22, r10
    1116:	c8 01       	movw	r24, r16
    1118:	0e 94 93 0e 	call	0x1d26	; 0x1d26 <Read_Block>
    111c:	c8 2f       	mov	r28, r24
	 SD_CS_inactive (SD_CS_port, SD_CS_pin); // nCS0=1;
    111e:	60 e1       	ldi	r22, 0x10	; 16
    1120:	83 e2       	ldi	r24, 0x23	; 35
    1122:	90 e0       	ldi	r25, 0x00	; 0
    1124:	0e 94 8f 0e 	call	0x1d1e	; 0x1d1e <SD_CS_inactive>
	 if(error_flag!=no_errors)
    1128:	c1 11       	cpse	r28, r1
	 {
		 error_flag=Disk_Error;
    112a:	c0 ef       	ldi	r28, 0xF0	; 240
	 }
	 return error_flag;
 }
    112c:	8c 2f       	mov	r24, r28
    112e:	cf 91       	pop	r28
    1130:	1f 91       	pop	r17
    1132:	0f 91       	pop	r16
    1134:	ff 90       	pop	r15
    1136:	ef 90       	pop	r14
    1138:	df 90       	pop	r13
    113a:	cf 90       	pop	r12
    113c:	bf 90       	pop	r11
    113e:	af 90       	pop	r10
    1140:	08 95       	ret

00001142 <read8>:

uint8_t read8 (uint16_t offset, uint8_t * array_name){
	uint8_t temp;
	temp = *(array_name+offset);
    1142:	86 0f       	add	r24, r22
    1144:	97 1f       	adc	r25, r23
	return temp;
}
    1146:	fc 01       	movw	r30, r24
    1148:	80 81       	ld	r24, Z
    114a:	08 95       	ret

0000114c <Print_Directory>:
************************************************************************/



uint16_t  Print_Directory(uint32_t Sector_num, uint8_t * array_in)
{ 
    114c:	2f 92       	push	r2
    114e:	3f 92       	push	r3
    1150:	4f 92       	push	r4
    1152:	5f 92       	push	r5
    1154:	6f 92       	push	r6
    1156:	7f 92       	push	r7
    1158:	8f 92       	push	r8
    115a:	9f 92       	push	r9
    115c:	af 92       	push	r10
    115e:	bf 92       	push	r11
    1160:	cf 92       	push	r12
    1162:	df 92       	push	r13
    1164:	ef 92       	push	r14
    1166:	ff 92       	push	r15
    1168:	0f 93       	push	r16
    116a:	1f 93       	push	r17
    116c:	cf 93       	push	r28
    116e:	df 93       	push	r29
    1170:	cd b7       	in	r28, 0x3d	; 61
    1172:	de b7       	in	r29, 0x3e	; 62
    1174:	27 97       	sbiw	r28, 0x07	; 7
    1176:	0f b6       	in	r0, 0x3f	; 63
    1178:	f8 94       	cli
    117a:	de bf       	out	0x3e, r29	; 62
    117c:	0f be       	out	0x3f, r0	; 63
    117e:	cd bf       	out	0x3d, r28	; 61
    1180:	4b 01       	movw	r8, r22
    1182:	5c 01       	movw	r10, r24
    1184:	5a 83       	std	Y+2, r21	; 0x02
    1186:	49 83       	std	Y+1, r20	; 0x01
   uint16_t i, entries;
   uint8_t temp8, j, attr, out_val, error_flag;
   uint8_t * values;
   char *prnt_bffr;

   prnt_bffr=Export_print_buffer();
    1188:	0e 94 51 12 	call	0x24a2	; 0x24a2 <Export_print_buffer>
    118c:	8c 83       	std	Y+4, r24	; 0x04
    118e:	9d 83       	std	Y+5, r25	; 0x05
   
   values=array_in;
   entries=0;
   i=0;
   if (Drive_values.FATtype==FAT16)  // included for FAT16 compatibility
    1190:	80 91 67 02 	lds	r24, 0x0267	; 0x800267 <Drive_values+0x1>
    1194:	82 30       	cpi	r24, 0x02	; 2
    1196:	49 f4       	brne	.+18     	; 0x11aa <Print_Directory+0x5e>
   { 
      max_sectors=Drive_values.RootDirSecs;   // maximum sectors in a FAT16 root directory
    1198:	40 90 78 02 	lds	r4, 0x0278	; 0x800278 <Drive_values+0x12>
    119c:	50 90 79 02 	lds	r5, 0x0279	; 0x800279 <Drive_values+0x13>
    11a0:	60 90 7a 02 	lds	r6, 0x027A	; 0x80027a <Drive_values+0x14>
    11a4:	70 90 7b 02 	lds	r7, 0x027B	; 0x80027b <Drive_values+0x15>
    11a8:	05 c0       	rjmp	.+10     	; 0x11b4 <Print_Directory+0x68>
   }
   else
   {
      max_sectors=Drive_values.SecPerClus;
    11aa:	40 90 66 02 	lds	r4, 0x0266	; 0x800266 <Drive_values>
    11ae:	51 2c       	mov	r5, r1
    11b0:	61 2c       	mov	r6, r1
    11b2:	71 2c       	mov	r7, r1
   }
   Sector=Sector_num;
   error_flag=Read_Sector(Sector,Drive_values.BytesPerSec,values);
    11b4:	40 91 6a 02 	lds	r20, 0x026A	; 0x80026a <Drive_values+0x4>
    11b8:	50 91 6b 02 	lds	r21, 0x026B	; 0x80026b <Drive_values+0x5>
    11bc:	29 81       	ldd	r18, Y+1	; 0x01
    11be:	3a 81       	ldd	r19, Y+2	; 0x02
    11c0:	c5 01       	movw	r24, r10
    11c2:	b4 01       	movw	r22, r8
    11c4:	0e 94 70 08 	call	0x10e0	; 0x10e0 <Read_Sector>
   if(error_flag==no_errors)
    11c8:	81 11       	cpse	r24, r1
    11ca:	cd c0       	rjmp	.+410    	; 0x1366 <Print_Directory+0x21a>
    11cc:	75 01       	movw	r14, r10
    11ce:	64 01       	movw	r12, r8
    11d0:	00 e0       	ldi	r16, 0x00	; 0
    11d2:	10 e0       	ldi	r17, 0x00	; 0
    11d4:	1f 82       	std	Y+7, r1	; 0x07
    11d6:	1e 82       	std	Y+6, r1	; 0x06
   {
     do
     {
        temp8=read8(0+i,values);  // read first byte to see if empty
    11d8:	69 81       	ldd	r22, Y+1	; 0x01
    11da:	7a 81       	ldd	r23, Y+2	; 0x02
    11dc:	8e 81       	ldd	r24, Y+6	; 0x06
    11de:	9f 81       	ldd	r25, Y+7	; 0x07
    11e0:	0e 94 a1 08 	call	0x1142	; 0x1142 <read8>
    11e4:	38 2e       	mov	r3, r24
        if((temp8!=0xE5)&&(temp8!=0x00)) // -------------------------temp8 = 0x00 for some reason--------
    11e6:	25 ee       	ldi	r18, 0xE5	; 229
    11e8:	82 17       	cp	r24, r18
    11ea:	09 f4       	brne	.+2      	; 0x11ee <Print_Directory+0xa2>
    11ec:	8a c0       	rjmp	.+276    	; 0x1302 <Print_Directory+0x1b6>
    11ee:	88 23       	and	r24, r24
    11f0:	09 f4       	brne	.+2      	; 0x11f4 <Print_Directory+0xa8>
    11f2:	87 c0       	rjmp	.+270    	; 0x1302 <Print_Directory+0x1b6>
	    {  
	       attr=read8(0x0b+i,values);
    11f4:	69 81       	ldd	r22, Y+1	; 0x01
    11f6:	7a 81       	ldd	r23, Y+2	; 0x02
    11f8:	8e 81       	ldd	r24, Y+6	; 0x06
    11fa:	9f 81       	ldd	r25, Y+7	; 0x07
    11fc:	0b 96       	adiw	r24, 0x0b	; 11
    11fe:	0e 94 a1 08 	call	0x1142	; 0x1142 <read8>
    1202:	8b 83       	std	Y+3, r24	; 0x03
		   if((attr&0x0E)==0)   // if hidden, system or Vol_ID bit is set do not print
    1204:	8e 70       	andi	r24, 0x0E	; 14
    1206:	09 f0       	breq	.+2      	; 0x120a <Print_Directory+0xbe>
    1208:	7c c0       	rjmp	.+248    	; 0x1302 <Print_Directory+0x1b6>
		   {
		      entries++;
    120a:	0f 5f       	subi	r16, 0xFF	; 255
    120c:	1f 4f       	sbci	r17, 0xFF	; 255
			  sprintf(prnt_bffr,"%5d. ",entries);  // print entry number with a fixed width specifier
    120e:	1f 93       	push	r17
    1210:	0f 93       	push	r16
    1212:	80 e0       	ldi	r24, 0x00	; 0
    1214:	91 e0       	ldi	r25, 0x01	; 1
    1216:	9f 93       	push	r25
    1218:	8f 93       	push	r24
    121a:	8d 81       	ldd	r24, Y+5	; 0x05
    121c:	8f 93       	push	r24
    121e:	9c 81       	ldd	r25, Y+4	; 0x04
    1220:	9f 93       	push	r25
    1222:	0e 94 21 13 	call	0x2642	; 0x2642 <sprintf>
		      UART_Transmit_String(UART1,0,prnt_bffr);
    1226:	4c 81       	ldd	r20, Y+4	; 0x04
    1228:	5d 81       	ldd	r21, Y+5	; 0x05
    122a:	60 e0       	ldi	r22, 0x00	; 0
    122c:	88 ec       	ldi	r24, 0xC8	; 200
    122e:	90 e0       	ldi	r25, 0x00	; 0
    1230:	0e 94 54 12 	call	0x24a8	; 0x24a8 <UART_Transmit_String>
			  for(j=0;j<8;j++)
    1234:	0f 90       	pop	r0
    1236:	0f 90       	pop	r0
    1238:	0f 90       	pop	r0
    123a:	0f 90       	pop	r0
    123c:	0f 90       	pop	r0
    123e:	0f 90       	pop	r0
    1240:	21 2c       	mov	r2, r1
    1242:	0e c0       	rjmp	.+28     	; 0x1260 <Print_Directory+0x114>
			  {
			     out_val=read8(i+j,values);   // print the 8 byte name
    1244:	69 81       	ldd	r22, Y+1	; 0x01
    1246:	7a 81       	ldd	r23, Y+2	; 0x02
    1248:	8e 81       	ldd	r24, Y+6	; 0x06
    124a:	9f 81       	ldd	r25, Y+7	; 0x07
    124c:	82 0d       	add	r24, r2
    124e:	91 1d       	adc	r25, r1
    1250:	0e 94 a1 08 	call	0x1142	; 0x1142 <read8>
			     UART_Transmit(UART1,out_val);
    1254:	68 2f       	mov	r22, r24
    1256:	88 ec       	ldi	r24, 0xC8	; 200
    1258:	90 e0       	ldi	r25, 0x00	; 0
    125a:	0e 94 44 12 	call	0x2488	; 0x2488 <UART_Transmit>
		   if((attr&0x0E)==0)   // if hidden, system or Vol_ID bit is set do not print
		   {
		      entries++;
			  sprintf(prnt_bffr,"%5d. ",entries);  // print entry number with a fixed width specifier
		      UART_Transmit_String(UART1,0,prnt_bffr);
			  for(j=0;j<8;j++)
    125e:	23 94       	inc	r2
    1260:	27 e0       	ldi	r18, 0x07	; 7
    1262:	22 15       	cp	r18, r2
    1264:	78 f7       	brcc	.-34     	; 0x1244 <Print_Directory+0xf8>
			  {
			     out_val=read8(i+j,values);   // print the 8 byte name
			     UART_Transmit(UART1,out_val);
			  }
              if((attr&0x10)==0x10)  // indicates directory
    1266:	8b 81       	ldd	r24, Y+3	; 0x03
    1268:	84 fd       	sbrc	r24, 4
    126a:	10 c0       	rjmp	.+32     	; 0x128c <Print_Directory+0x140>
    126c:	26 c0       	rjmp	.+76     	; 0x12ba <Print_Directory+0x16e>
			  {
			     for(j=8;j<11;j++)
			     {
			        out_val=read8(i+j,values);
    126e:	69 81       	ldd	r22, Y+1	; 0x01
    1270:	7a 81       	ldd	r23, Y+2	; 0x02
    1272:	8e 81       	ldd	r24, Y+6	; 0x06
    1274:	9f 81       	ldd	r25, Y+7	; 0x07
    1276:	82 0d       	add	r24, r2
    1278:	91 1d       	adc	r25, r1
    127a:	0e 94 a1 08 	call	0x1142	; 0x1142 <read8>
			        UART_Transmit(UART1,out_val);
    127e:	68 2f       	mov	r22, r24
    1280:	88 ec       	ldi	r24, 0xC8	; 200
    1282:	90 e0       	ldi	r25, 0x00	; 0
    1284:	0e 94 44 12 	call	0x2488	; 0x2488 <UART_Transmit>
			     out_val=read8(i+j,values);   // print the 8 byte name
			     UART_Transmit(UART1,out_val);
			  }
              if((attr&0x10)==0x10)  // indicates directory
			  {
			     for(j=8;j<11;j++)
    1288:	23 94       	inc	r2
    128a:	03 c0       	rjmp	.+6      	; 0x1292 <Print_Directory+0x146>
    128c:	68 94       	set
    128e:	22 24       	eor	r2, r2
    1290:	23 f8       	bld	r2, 3
    1292:	9a e0       	ldi	r25, 0x0A	; 10
    1294:	92 15       	cp	r25, r2
    1296:	58 f7       	brcc	.-42     	; 0x126e <Print_Directory+0x122>
			     {
			        out_val=read8(i+j,values);
			        UART_Transmit(UART1,out_val);
			     }
			     sprintf(prnt_bffr,"[DIR]\r\n");
    1298:	88 e0       	ldi	r24, 0x08	; 8
    129a:	e6 e0       	ldi	r30, 0x06	; 6
    129c:	f1 e0       	ldi	r31, 0x01	; 1
    129e:	ac 81       	ldd	r26, Y+4	; 0x04
    12a0:	bd 81       	ldd	r27, Y+5	; 0x05
    12a2:	01 90       	ld	r0, Z+
    12a4:	0d 92       	st	X+, r0
    12a6:	8a 95       	dec	r24
    12a8:	e1 f7       	brne	.-8      	; 0x12a2 <Print_Directory+0x156>
				 UART_Transmit_String(UART1,0,prnt_bffr);
    12aa:	4c 81       	ldd	r20, Y+4	; 0x04
    12ac:	5d 81       	ldd	r21, Y+5	; 0x05
    12ae:	60 e0       	ldi	r22, 0x00	; 0
    12b0:	88 ec       	ldi	r24, 0xC8	; 200
    12b2:	90 e0       	ldi	r25, 0x00	; 0
    12b4:	0e 94 54 12 	call	0x24a8	; 0x24a8 <UART_Transmit_String>
    12b8:	24 c0       	rjmp	.+72     	; 0x1302 <Print_Directory+0x1b6>
			  }
			  else       // print a period and the three byte extension for a file
			  {
			     UART_Transmit(UART1,0x2E);       
    12ba:	6e e2       	ldi	r22, 0x2E	; 46
    12bc:	88 ec       	ldi	r24, 0xC8	; 200
    12be:	90 e0       	ldi	r25, 0x00	; 0
    12c0:	0e 94 44 12 	call	0x2488	; 0x2488 <UART_Transmit>
			     for(j=8;j<11;j++)
    12c4:	68 94       	set
    12c6:	22 24       	eor	r2, r2
    12c8:	23 f8       	bld	r2, 3
    12ca:	0e c0       	rjmp	.+28     	; 0x12e8 <Print_Directory+0x19c>
			     {
			        out_val=read8(i+j,values);
    12cc:	69 81       	ldd	r22, Y+1	; 0x01
    12ce:	7a 81       	ldd	r23, Y+2	; 0x02
    12d0:	8e 81       	ldd	r24, Y+6	; 0x06
    12d2:	9f 81       	ldd	r25, Y+7	; 0x07
    12d4:	82 0d       	add	r24, r2
    12d6:	91 1d       	adc	r25, r1
    12d8:	0e 94 a1 08 	call	0x1142	; 0x1142 <read8>
			        UART_Transmit(UART1,out_val);
    12dc:	68 2f       	mov	r22, r24
    12de:	88 ec       	ldi	r24, 0xC8	; 200
    12e0:	90 e0       	ldi	r25, 0x00	; 0
    12e2:	0e 94 44 12 	call	0x2488	; 0x2488 <UART_Transmit>
				 UART_Transmit_String(UART1,0,prnt_bffr);
			  }
			  else       // print a period and the three byte extension for a file
			  {
			     UART_Transmit(UART1,0x2E);       
			     for(j=8;j<11;j++)
    12e6:	23 94       	inc	r2
    12e8:	2a e0       	ldi	r18, 0x0A	; 10
    12ea:	22 15       	cp	r18, r2
    12ec:	78 f7       	brcc	.-34     	; 0x12cc <Print_Directory+0x180>
			     {
			        out_val=read8(i+j,values);
			        UART_Transmit(UART1,out_val);
			     }
			     UART_Transmit(UART1,CR);
    12ee:	6d e0       	ldi	r22, 0x0D	; 13
    12f0:	88 ec       	ldi	r24, 0xC8	; 200
    12f2:	90 e0       	ldi	r25, 0x00	; 0
    12f4:	0e 94 44 12 	call	0x2488	; 0x2488 <UART_Transmit>
                 UART_Transmit(UART1,LF);
    12f8:	6a e0       	ldi	r22, 0x0A	; 10
    12fa:	88 ec       	ldi	r24, 0xC8	; 200
    12fc:	90 e0       	ldi	r25, 0x00	; 0
    12fe:	0e 94 44 12 	call	0x2488	; 0x2488 <UART_Transmit>
			  }
		    }
		}
		    i=i+32;  // next entry
    1302:	8e 81       	ldd	r24, Y+6	; 0x06
    1304:	9f 81       	ldd	r25, Y+7	; 0x07
    1306:	80 96       	adiw	r24, 0x20	; 32
    1308:	9f 83       	std	Y+7, r25	; 0x07
    130a:	8e 83       	std	Y+6, r24	; 0x06
		    if(i>510)
    130c:	8f 3f       	cpi	r24, 0xFF	; 255
    130e:	91 40       	sbci	r25, 0x01	; 1
    1310:	38 f1       	brcs	.+78     	; 0x1360 <Print_Directory+0x214>
		    {
			  Sector++;
    1312:	8f ef       	ldi	r24, 0xFF	; 255
    1314:	c8 1a       	sub	r12, r24
    1316:	d8 0a       	sbc	r13, r24
    1318:	e8 0a       	sbc	r14, r24
    131a:	f8 0a       	sbc	r15, r24
              if((Sector-Sector_num)<max_sectors)
    131c:	d7 01       	movw	r26, r14
    131e:	c6 01       	movw	r24, r12
    1320:	88 19       	sub	r24, r8
    1322:	99 09       	sbc	r25, r9
    1324:	aa 09       	sbc	r26, r10
    1326:	bb 09       	sbc	r27, r11
    1328:	84 15       	cp	r24, r4
    132a:	95 05       	cpc	r25, r5
    132c:	a6 05       	cpc	r26, r6
    132e:	b7 05       	cpc	r27, r7
    1330:	78 f4       	brcc	.+30     	; 0x1350 <Print_Directory+0x204>
			  {
                 error_flag=Read_Sector(Sector,Drive_values.BytesPerSec,values);
    1332:	40 91 6a 02 	lds	r20, 0x026A	; 0x80026a <Drive_values+0x4>
    1336:	50 91 6b 02 	lds	r21, 0x026B	; 0x80026b <Drive_values+0x5>
    133a:	29 81       	ldd	r18, Y+1	; 0x01
    133c:	3a 81       	ldd	r19, Y+2	; 0x02
    133e:	c7 01       	movw	r24, r14
    1340:	b6 01       	movw	r22, r12
    1342:	0e 94 70 08 	call	0x10e0	; 0x10e0 <Read_Sector>
			     if(error_flag!=no_errors)
    1346:	81 11       	cpse	r24, r1
    1348:	06 c0       	rjmp	.+12     	; 0x1356 <Print_Directory+0x20a>
			     {
			        entries=0;   // no entries found indicates disk read error
				    temp8=0;     // forces a function exit
			     }
                 i=0;
    134a:	1f 82       	std	Y+7, r1	; 0x07
    134c:	1e 82       	std	Y+6, r1	; 0x06
    134e:	08 c0       	rjmp	.+16     	; 0x1360 <Print_Directory+0x214>
			  }
			  else
			  {
			     entries=entries|more_entries;  // set msb to indicate more entries in another cluster
    1350:	10 68       	ori	r17, 0x80	; 128
			     temp8=0;                       // forces a function exit
    1352:	31 2c       	mov	r3, r1
    1354:	05 c0       	rjmp	.+10     	; 0x1360 <Print_Directory+0x214>
			  {
                 error_flag=Read_Sector(Sector,Drive_values.BytesPerSec,values);
			     if(error_flag!=no_errors)
			     {
			        entries=0;   // no entries found indicates disk read error
				    temp8=0;     // forces a function exit
    1356:	31 2c       	mov	r3, r1
              if((Sector-Sector_num)<max_sectors)
			  {
                 error_flag=Read_Sector(Sector,Drive_values.BytesPerSec,values);
			     if(error_flag!=no_errors)
			     {
			        entries=0;   // no entries found indicates disk read error
    1358:	00 e0       	ldi	r16, 0x00	; 0
    135a:	10 e0       	ldi	r17, 0x00	; 0
				    temp8=0;     // forces a function exit
			     }
                 i=0;
    135c:	1f 82       	std	Y+7, r1	; 0x07
    135e:	1e 82       	std	Y+6, r1	; 0x06
			     entries=entries|more_entries;  // set msb to indicate more entries in another cluster
			     temp8=0;                       // forces a function exit
			  }
		    }
         
	  }while(temp8!=0);
    1360:	31 10       	cpse	r3, r1
    1362:	3a cf       	rjmp	.-396    	; 0x11d8 <Print_Directory+0x8c>
    1364:	02 c0       	rjmp	.+4      	; 0x136a <Print_Directory+0x21e>
	}
	else
	{
	   entries=0;    // no entries found indicates disk read error
    1366:	00 e0       	ldi	r16, 0x00	; 0
    1368:	10 e0       	ldi	r17, 0x00	; 0
	}
   return entries;
 }
    136a:	c8 01       	movw	r24, r16
    136c:	27 96       	adiw	r28, 0x07	; 7
    136e:	0f b6       	in	r0, 0x3f	; 63
    1370:	f8 94       	cli
    1372:	de bf       	out	0x3e, r29	; 62
    1374:	0f be       	out	0x3f, r0	; 63
    1376:	cd bf       	out	0x3d, r28	; 61
    1378:	df 91       	pop	r29
    137a:	cf 91       	pop	r28
    137c:	1f 91       	pop	r17
    137e:	0f 91       	pop	r16
    1380:	ff 90       	pop	r15
    1382:	ef 90       	pop	r14
    1384:	df 90       	pop	r13
    1386:	cf 90       	pop	r12
    1388:	bf 90       	pop	r11
    138a:	af 90       	pop	r10
    138c:	9f 90       	pop	r9
    138e:	8f 90       	pop	r8
    1390:	7f 90       	pop	r7
    1392:	6f 90       	pop	r6
    1394:	5f 90       	pop	r5
    1396:	4f 90       	pop	r4
    1398:	3f 90       	pop	r3
    139a:	2f 90       	pop	r2
    139c:	08 95       	ret

0000139e <Read_Dir_Entry>:
         a directory entry, clear for a file.  Bit 31 set for error.
CAUTION: 
************************************************************************/

uint32_t Read_Dir_Entry(uint32_t Sector_num, uint16_t Entry, uint8_t * array_in)
{ 
    139e:	2f 92       	push	r2
    13a0:	3f 92       	push	r3
    13a2:	4f 92       	push	r4
    13a4:	5f 92       	push	r5
    13a6:	6f 92       	push	r6
    13a8:	7f 92       	push	r7
    13aa:	8f 92       	push	r8
    13ac:	9f 92       	push	r9
    13ae:	af 92       	push	r10
    13b0:	bf 92       	push	r11
    13b2:	cf 92       	push	r12
    13b4:	df 92       	push	r13
    13b6:	ef 92       	push	r14
    13b8:	ff 92       	push	r15
    13ba:	0f 93       	push	r16
    13bc:	1f 93       	push	r17
    13be:	cf 93       	push	r28
    13c0:	df 93       	push	r29
    13c2:	cd b7       	in	r28, 0x3d	; 61
    13c4:	de b7       	in	r29, 0x3e	; 62
    13c6:	2a 97       	sbiw	r28, 0x0a	; 10
    13c8:	0f b6       	in	r0, 0x3f	; 63
    13ca:	f8 94       	cli
    13cc:	de bf       	out	0x3e, r29	; 62
    13ce:	0f be       	out	0x3f, r0	; 63
    13d0:	cd bf       	out	0x3d, r28	; 61
    13d2:	4b 01       	movw	r8, r22
    13d4:	5c 01       	movw	r10, r24
    13d6:	58 87       	std	Y+8, r21	; 0x08
    13d8:	4f 83       	std	Y+7, r20	; 0x07
    13da:	3a 83       	std	Y+2, r19	; 0x02
    13dc:	29 83       	std	Y+1, r18	; 0x01

   values=array_in;
   entries=0;
   i=0;
   return_clus=0;
   if (Drive_values.FATtype==FAT16)  // included for FAT16 compatibility
    13de:	80 91 67 02 	lds	r24, 0x0267	; 0x800267 <Drive_values+0x1>
    13e2:	82 30       	cpi	r24, 0x02	; 2
    13e4:	69 f4       	brne	.+26     	; 0x1400 <Read_Dir_Entry+0x62>
   { 
      max_sectors=Drive_values.RootDirSecs;   // maximum sectors in a FAT16 root directory
    13e6:	20 91 78 02 	lds	r18, 0x0278	; 0x800278 <Drive_values+0x12>
    13ea:	30 91 79 02 	lds	r19, 0x0279	; 0x800279 <Drive_values+0x13>
    13ee:	40 91 7a 02 	lds	r20, 0x027A	; 0x80027a <Drive_values+0x14>
    13f2:	50 91 7b 02 	lds	r21, 0x027B	; 0x80027b <Drive_values+0x15>
    13f6:	2b 83       	std	Y+3, r18	; 0x03
    13f8:	3c 83       	std	Y+4, r19	; 0x04
    13fa:	4d 83       	std	Y+5, r20	; 0x05
    13fc:	5e 83       	std	Y+6, r21	; 0x06
    13fe:	0a c0       	rjmp	.+20     	; 0x1414 <Read_Dir_Entry+0x76>
   }
   else
   {
      max_sectors=Drive_values.SecPerClus;
    1400:	80 91 66 02 	lds	r24, 0x0266	; 0x800266 <Drive_values>
    1404:	28 2f       	mov	r18, r24
    1406:	30 e0       	ldi	r19, 0x00	; 0
    1408:	40 e0       	ldi	r20, 0x00	; 0
    140a:	50 e0       	ldi	r21, 0x00	; 0
    140c:	2b 83       	std	Y+3, r18	; 0x03
    140e:	3c 83       	std	Y+4, r19	; 0x04
    1410:	4d 83       	std	Y+5, r20	; 0x05
    1412:	5e 83       	std	Y+6, r21	; 0x06
   }
   Sector=Sector_num;
   error_flag=Read_Sector(Sector,Drive_values.BytesPerSec,values);
    1414:	40 91 6a 02 	lds	r20, 0x026A	; 0x80026a <Drive_values+0x4>
    1418:	50 91 6b 02 	lds	r21, 0x026B	; 0x80026b <Drive_values+0x5>
    141c:	29 81       	ldd	r18, Y+1	; 0x01
    141e:	3a 81       	ldd	r19, Y+2	; 0x02
    1420:	c5 01       	movw	r24, r10
    1422:	b4 01       	movw	r22, r8
    1424:	0e 94 70 08 	call	0x10e0	; 0x10e0 <Read_Sector>
   if(error_flag==no_errors)
    1428:	81 11       	cpse	r24, r1
    142a:	9b c0       	rjmp	.+310    	; 0x1562 <Read_Dir_Entry+0x1c4>
    142c:	75 01       	movw	r14, r10
    142e:	64 01       	movw	r12, r8
    1430:	21 2c       	mov	r2, r1
    1432:	31 2c       	mov	r3, r1
    1434:	1a 86       	std	Y+10, r1	; 0x0a
    1436:	19 86       	std	Y+9, r1	; 0x09
    1438:	41 2c       	mov	r4, r1
    143a:	51 2c       	mov	r5, r1
    143c:	32 01       	movw	r6, r4
   {
     do
     {
        temp8=read8(0+i,values);  // read first byte to see if empty
    143e:	69 81       	ldd	r22, Y+1	; 0x01
    1440:	7a 81       	ldd	r23, Y+2	; 0x02
    1442:	89 85       	ldd	r24, Y+9	; 0x09
    1444:	9a 85       	ldd	r25, Y+10	; 0x0a
    1446:	0e 94 a1 08 	call	0x1142	; 0x1142 <read8>
    144a:	18 2f       	mov	r17, r24
        if((temp8!=0xE5)&&(temp8!=0x00))
    144c:	85 3e       	cpi	r24, 0xE5	; 229
    144e:	09 f4       	brne	.+2      	; 0x1452 <Read_Dir_Entry+0xb4>
    1450:	50 c0       	rjmp	.+160    	; 0x14f2 <Read_Dir_Entry+0x154>
    1452:	88 23       	and	r24, r24
    1454:	09 f4       	brne	.+2      	; 0x1458 <Read_Dir_Entry+0xba>
    1456:	4d c0       	rjmp	.+154    	; 0x14f2 <Read_Dir_Entry+0x154>
	    {  
	       attr=read8(0x0b+i,values);
    1458:	69 81       	ldd	r22, Y+1	; 0x01
    145a:	7a 81       	ldd	r23, Y+2	; 0x02
    145c:	89 85       	ldd	r24, Y+9	; 0x09
    145e:	9a 85       	ldd	r25, Y+10	; 0x0a
    1460:	0b 96       	adiw	r24, 0x0b	; 11
    1462:	0e 94 a1 08 	call	0x1142	; 0x1142 <read8>
    1466:	08 2f       	mov	r16, r24
		   if((attr&0x0E)==0)    // if hidden do not print
    1468:	8e 70       	andi	r24, 0x0E	; 14
    146a:	09 f0       	breq	.+2      	; 0x146e <Read_Dir_Entry+0xd0>
    146c:	42 c0       	rjmp	.+132    	; 0x14f2 <Read_Dir_Entry+0x154>
		   {
		      entries++;
    146e:	5f ef       	ldi	r21, 0xFF	; 255
    1470:	25 1a       	sub	r2, r21
    1472:	35 0a       	sbc	r3, r21
              if(entries==Entry)
    1474:	8f 81       	ldd	r24, Y+7	; 0x07
    1476:	98 85       	ldd	r25, Y+8	; 0x08
    1478:	28 16       	cp	r2, r24
    147a:	39 06       	cpc	r3, r25
    147c:	d1 f5       	brne	.+116    	; 0x14f2 <Read_Dir_Entry+0x154>
              {
			    if(Drive_values.FATtype==FAT32)
    147e:	80 91 67 02 	lds	r24, 0x0267	; 0x800267 <Drive_values+0x1>
    1482:	84 30       	cpi	r24, 0x04	; 4
    1484:	d9 f4       	brne	.+54     	; 0x14bc <Read_Dir_Entry+0x11e>
                {
                   return_clus=read8(21+i,values);
    1486:	69 81       	ldd	r22, Y+1	; 0x01
    1488:	7a 81       	ldd	r23, Y+2	; 0x02
    148a:	89 85       	ldd	r24, Y+9	; 0x09
    148c:	9a 85       	ldd	r25, Y+10	; 0x0a
    148e:	45 96       	adiw	r24, 0x15	; 21
    1490:	0e 94 a1 08 	call	0x1142	; 0x1142 <read8>
    1494:	48 2e       	mov	r4, r24
    1496:	51 2c       	mov	r5, r1
    1498:	61 2c       	mov	r6, r1
    149a:	71 2c       	mov	r7, r1
				   return_clus=return_clus<<8;
    149c:	76 2c       	mov	r7, r6
    149e:	65 2c       	mov	r6, r5
    14a0:	54 2c       	mov	r5, r4
    14a2:	44 24       	eor	r4, r4
                   return_clus|=read8(20+i,values);
    14a4:	69 81       	ldd	r22, Y+1	; 0x01
    14a6:	7a 81       	ldd	r23, Y+2	; 0x02
    14a8:	89 85       	ldd	r24, Y+9	; 0x09
    14aa:	9a 85       	ldd	r25, Y+10	; 0x0a
    14ac:	44 96       	adiw	r24, 0x14	; 20
    14ae:	0e 94 a1 08 	call	0x1142	; 0x1142 <read8>
    14b2:	48 2a       	or	r4, r24
                   return_clus=return_clus<<8;
    14b4:	76 2c       	mov	r7, r6
    14b6:	65 2c       	mov	r6, r5
    14b8:	54 2c       	mov	r5, r4
    14ba:	44 24       	eor	r4, r4
                }
                return_clus|=read8(27+i,values);
    14bc:	69 81       	ldd	r22, Y+1	; 0x01
    14be:	7a 81       	ldd	r23, Y+2	; 0x02
    14c0:	89 85       	ldd	r24, Y+9	; 0x09
    14c2:	9a 85       	ldd	r25, Y+10	; 0x0a
    14c4:	4b 96       	adiw	r24, 0x1b	; 27
    14c6:	0e 94 a1 08 	call	0x1142	; 0x1142 <read8>
    14ca:	48 2a       	or	r4, r24
			    return_clus=return_clus<<8;
    14cc:	76 2c       	mov	r7, r6
    14ce:	65 2c       	mov	r6, r5
    14d0:	54 2c       	mov	r5, r4
    14d2:	44 24       	eor	r4, r4
                return_clus|=read8(26+i,values);
    14d4:	69 81       	ldd	r22, Y+1	; 0x01
    14d6:	7a 81       	ldd	r23, Y+2	; 0x02
    14d8:	89 85       	ldd	r24, Y+9	; 0x09
    14da:	9a 85       	ldd	r25, Y+10	; 0x0a
    14dc:	4a 96       	adiw	r24, 0x1a	; 26
    14de:	0e 94 a1 08 	call	0x1142	; 0x1142 <read8>
    14e2:	48 2a       	or	r4, r24
			    attr=read8(0x0b+i,values);
			    if(attr&0x10) return_clus|=directory_bit;
    14e4:	04 ff       	sbrs	r16, 4
    14e6:	04 c0       	rjmp	.+8      	; 0x14f0 <Read_Dir_Entry+0x152>
    14e8:	68 94       	set
    14ea:	74 f8       	bld	r7, 4
                temp8=0;    // forces a function exit
    14ec:	10 e0       	ldi	r17, 0x00	; 0
    14ee:	01 c0       	rjmp	.+2      	; 0x14f2 <Read_Dir_Entry+0x154>
    14f0:	10 e0       	ldi	r17, 0x00	; 0
              }
              
		    }
		}
		    i=i+32;  // next entry
    14f2:	a9 85       	ldd	r26, Y+9	; 0x09
    14f4:	ba 85       	ldd	r27, Y+10	; 0x0a
    14f6:	90 96       	adiw	r26, 0x20	; 32
    14f8:	ba 87       	std	Y+10, r27	; 0x0a
    14fa:	a9 87       	std	Y+9, r26	; 0x09
		    if(i>510)
    14fc:	af 3f       	cpi	r26, 0xFF	; 255
    14fe:	b1 40       	sbci	r27, 0x01	; 1
    1500:	68 f1       	brcs	.+90     	; 0x155c <Read_Dir_Entry+0x1be>
		    {
			  Sector++;
    1502:	3f ef       	ldi	r19, 0xFF	; 255
    1504:	c3 1a       	sub	r12, r19
    1506:	d3 0a       	sbc	r13, r19
    1508:	e3 0a       	sbc	r14, r19
    150a:	f3 0a       	sbc	r15, r19
			  if((Sector-Sector_num)<max_sectors)
    150c:	d7 01       	movw	r26, r14
    150e:	c6 01       	movw	r24, r12
    1510:	88 19       	sub	r24, r8
    1512:	99 09       	sbc	r25, r9
    1514:	aa 09       	sbc	r26, r10
    1516:	bb 09       	sbc	r27, r11
    1518:	2b 81       	ldd	r18, Y+3	; 0x03
    151a:	3c 81       	ldd	r19, Y+4	; 0x04
    151c:	4d 81       	ldd	r20, Y+5	; 0x05
    151e:	5e 81       	ldd	r21, Y+6	; 0x06
    1520:	82 17       	cp	r24, r18
    1522:	93 07       	cpc	r25, r19
    1524:	a4 07       	cpc	r26, r20
    1526:	b5 07       	cpc	r27, r21
    1528:	78 f4       	brcc	.+30     	; 0x1548 <Read_Dir_Entry+0x1aa>
			  {
                 error_flag=Read_Sector(Sector,Drive_values.BytesPerSec,values);
    152a:	40 91 6a 02 	lds	r20, 0x026A	; 0x80026a <Drive_values+0x4>
    152e:	50 91 6b 02 	lds	r21, 0x026B	; 0x80026b <Drive_values+0x5>
    1532:	29 81       	ldd	r18, Y+1	; 0x01
    1534:	3a 81       	ldd	r19, Y+2	; 0x02
    1536:	c7 01       	movw	r24, r14
    1538:	b6 01       	movw	r22, r12
    153a:	0e 94 70 08 	call	0x10e0	; 0x10e0 <Read_Sector>
			     if(error_flag!=no_errors)
    153e:	81 11       	cpse	r24, r1
    1540:	05 c0       	rjmp	.+10     	; 0x154c <Read_Dir_Entry+0x1ae>
			     {
			         return_clus=no_entry_found;
                     temp8=0; 
			     }
			     i=0;
    1542:	1a 86       	std	Y+10, r1	; 0x0a
    1544:	19 86       	std	Y+9, r1	; 0x09
    1546:	0a c0       	rjmp	.+20     	; 0x155c <Read_Dir_Entry+0x1be>
			  }
			  else
			  {
			     temp8=0;                       // forces a function exit
    1548:	10 e0       	ldi	r17, 0x00	; 0
    154a:	08 c0       	rjmp	.+16     	; 0x155c <Read_Dir_Entry+0x1be>
			  {
                 error_flag=Read_Sector(Sector,Drive_values.BytesPerSec,values);
			     if(error_flag!=no_errors)
			     {
			         return_clus=no_entry_found;
                     temp8=0; 
    154c:	10 e0       	ldi	r17, 0x00	; 0
			     }
			     i=0;
    154e:	1a 86       	std	Y+10, r1	; 0x0a
    1550:	19 86       	std	Y+9, r1	; 0x09
			  if((Sector-Sector_num)<max_sectors)
			  {
                 error_flag=Read_Sector(Sector,Drive_values.BytesPerSec,values);
			     if(error_flag!=no_errors)
			     {
			         return_clus=no_entry_found;
    1552:	41 2c       	mov	r4, r1
    1554:	51 2c       	mov	r5, r1
    1556:	32 01       	movw	r6, r4
    1558:	68 94       	set
    155a:	77 f8       	bld	r7, 7
			  {
			     temp8=0;                       // forces a function exit
			  }
		    }
         
	  }while(temp8!=0);
    155c:	11 11       	cpse	r17, r1
    155e:	6f cf       	rjmp	.-290    	; 0x143e <Read_Dir_Entry+0xa0>
    1560:	05 c0       	rjmp	.+10     	; 0x156c <Read_Dir_Entry+0x1ce>
	}
	else
	{
	   return_clus=no_entry_found;
    1562:	41 2c       	mov	r4, r1
    1564:	51 2c       	mov	r5, r1
    1566:	32 01       	movw	r6, r4
    1568:	68 94       	set
    156a:	77 f8       	bld	r7, 7
	}
	if(return_clus==0) return_clus=no_entry_found;
    156c:	41 14       	cp	r4, r1
    156e:	51 04       	cpc	r5, r1
    1570:	61 04       	cpc	r6, r1
    1572:	71 04       	cpc	r7, r1
    1574:	29 f4       	brne	.+10     	; 0x1580 <Read_Dir_Entry+0x1e2>
    1576:	41 2c       	mov	r4, r1
    1578:	51 2c       	mov	r5, r1
    157a:	32 01       	movw	r6, r4
    157c:	68 94       	set
    157e:	77 f8       	bld	r7, 7
   return return_clus;
 }
    1580:	c3 01       	movw	r24, r6
    1582:	b2 01       	movw	r22, r4
    1584:	2a 96       	adiw	r28, 0x0a	; 10
    1586:	0f b6       	in	r0, 0x3f	; 63
    1588:	f8 94       	cli
    158a:	de bf       	out	0x3e, r29	; 62
    158c:	0f be       	out	0x3f, r0	; 63
    158e:	cd bf       	out	0x3d, r28	; 61
    1590:	df 91       	pop	r29
    1592:	cf 91       	pop	r28
    1594:	1f 91       	pop	r17
    1596:	0f 91       	pop	r16
    1598:	ff 90       	pop	r15
    159a:	ef 90       	pop	r14
    159c:	df 90       	pop	r13
    159e:	cf 90       	pop	r12
    15a0:	bf 90       	pop	r11
    15a2:	af 90       	pop	r10
    15a4:	9f 90       	pop	r9
    15a6:	8f 90       	pop	r8
    15a8:	7f 90       	pop	r7
    15aa:	6f 90       	pop	r6
    15ac:	5f 90       	pop	r5
    15ae:	4f 90       	pop	r4
    15b0:	3f 90       	pop	r3
    15b2:	2f 90       	pop	r2
    15b4:	08 95       	ret

000015b6 <read16>:
	uint8_t temp;
	temp = *(array_name+offset);
	return temp;
}

uint16_t read16 (uint16_t offset, uint8_t * array_name){
    15b6:	dc 01       	movw	r26, r24
	uint16_t return_val;
	uint8_t temp, i;
	return_val=0;
	for(i=0;i<2;i++)
    15b8:	90 e0       	ldi	r25, 0x00	; 0
}

uint16_t read16 (uint16_t offset, uint8_t * array_name){
	uint16_t return_val;
	uint8_t temp, i;
	return_val=0;
    15ba:	20 e0       	ldi	r18, 0x00	; 0
    15bc:	30 e0       	ldi	r19, 0x00	; 0
	for(i=0;i<2;i++)
    15be:	0b c0       	rjmp	.+22     	; 0x15d6 <read16+0x20>
	{
		temp=*(array_name+offset+(1-i)); 
    15c0:	fd 01       	movw	r30, r26
    15c2:	e9 1b       	sub	r30, r25
    15c4:	f1 09       	sbc	r31, r1
    15c6:	31 96       	adiw	r30, 0x01	; 1
    15c8:	e6 0f       	add	r30, r22
    15ca:	f7 1f       	adc	r31, r23
    15cc:	40 81       	ld	r20, Z
		return_val=return_val<<8;
    15ce:	32 2f       	mov	r19, r18
    15d0:	22 27       	eor	r18, r18
		return_val|=temp;
    15d2:	24 2b       	or	r18, r20

uint16_t read16 (uint16_t offset, uint8_t * array_name){
	uint16_t return_val;
	uint8_t temp, i;
	return_val=0;
	for(i=0;i<2;i++)
    15d4:	9f 5f       	subi	r25, 0xFF	; 255
    15d6:	92 30       	cpi	r25, 0x02	; 2
    15d8:	98 f3       	brcs	.-26     	; 0x15c0 <read16+0xa>
		temp=*(array_name+offset+(1-i)); 
		return_val=return_val<<8;
		return_val|=temp;
	}
	return return_val;
}
    15da:	c9 01       	movw	r24, r18
    15dc:	08 95       	ret

000015de <read32>:

uint32_t read32 (uint16_t offset, uint8_t * array_name){
    15de:	cf 92       	push	r12
    15e0:	df 92       	push	r13
    15e2:	ef 92       	push	r14
    15e4:	ff 92       	push	r15
    15e6:	9c 01       	movw	r18, r24
    15e8:	ab 01       	movw	r20, r22
	uint32_t return_val;
	uint8_t temp, i;
	return_val=0;
	for(i=0;i<4;i++)
    15ea:	a0 e0       	ldi	r26, 0x00	; 0
}

uint32_t read32 (uint16_t offset, uint8_t * array_name){
	uint32_t return_val;
	uint8_t temp, i;
	return_val=0;
    15ec:	60 e0       	ldi	r22, 0x00	; 0
    15ee:	70 e0       	ldi	r23, 0x00	; 0
    15f0:	cb 01       	movw	r24, r22
	for(i=0;i<4;i++)
    15f2:	0f c0       	rjmp	.+30     	; 0x1612 <read32+0x34>
	{
		temp=*(array_name+offset+(3-i));
    15f4:	f9 01       	movw	r30, r18
    15f6:	ea 1b       	sub	r30, r26
    15f8:	f1 09       	sbc	r31, r1
    15fa:	33 96       	adiw	r30, 0x03	; 3
    15fc:	e4 0f       	add	r30, r20
    15fe:	f5 1f       	adc	r31, r21
    1600:	e0 81       	ld	r30, Z
		return_val=return_val<<8;
    1602:	cc 24       	eor	r12, r12
    1604:	d6 2e       	mov	r13, r22
    1606:	e7 2e       	mov	r14, r23
    1608:	f8 2e       	mov	r15, r24
		return_val|=temp;
    160a:	c7 01       	movw	r24, r14
    160c:	b6 01       	movw	r22, r12
    160e:	6e 2b       	or	r22, r30

uint32_t read32 (uint16_t offset, uint8_t * array_name){
	uint32_t return_val;
	uint8_t temp, i;
	return_val=0;
	for(i=0;i<4;i++)
    1610:	af 5f       	subi	r26, 0xFF	; 255
    1612:	a4 30       	cpi	r26, 0x04	; 4
    1614:	78 f3       	brcs	.-34     	; 0x15f4 <read32+0x16>
		temp=*(array_name+offset+(3-i));
		return_val=return_val<<8;
		return_val|=temp;
	}
	return return_val;
}
    1616:	ff 90       	pop	r15
    1618:	ef 90       	pop	r14
    161a:	df 90       	pop	r13
    161c:	cf 90       	pop	r12
    161e:	08 95       	ret

00001620 <mount_drive>:

uint8_t mount_drive(uint8_t * array){
    1620:	2f 92       	push	r2
    1622:	3f 92       	push	r3
    1624:	4f 92       	push	r4
    1626:	5f 92       	push	r5
    1628:	6f 92       	push	r6
    162a:	7f 92       	push	r7
    162c:	8f 92       	push	r8
    162e:	9f 92       	push	r9
    1630:	af 92       	push	r10
    1632:	bf 92       	push	r11
    1634:	cf 92       	push	r12
    1636:	df 92       	push	r13
    1638:	ef 92       	push	r14
    163a:	ff 92       	push	r15
    163c:	0f 93       	push	r16
    163e:	1f 93       	push	r17
    1640:	cf 93       	push	r28
    1642:	df 93       	push	r29
    1644:	cd b7       	in	r28, 0x3d	; 61
    1646:	de b7       	in	r29, 0x3e	; 62
    1648:	2f 97       	sbiw	r28, 0x0f	; 15
    164a:	0f b6       	in	r0, 0x3f	; 63
    164c:	f8 94       	cli
    164e:	de bf       	out	0x3e, r29	; 62
    1650:	0f be       	out	0x3f, r0	; 63
    1652:	cd bf       	out	0x3d, r28	; 61
    1654:	9f 87       	std	Y+15, r25	; 0x0f
    1656:	8e 87       	std	Y+14, r24	; 0x0e
	FS_values_t * Drive_values = Export_Drive_values();
    1658:	0e 94 6d 08 	call	0x10da	; 0x10da <Export_Drive_values>
    165c:	8c 01       	movw	r16, r24
	char * p_buffer;
	p_buffer = Export_print_buffer();
    165e:	0e 94 51 12 	call	0x24a2	; 0x24a2 <Export_print_buffer>
	uint8_t error_flag, NumFATs;
	uint16_t RootEntCnt, TotSec16, RsvdSecCnt;
	uint32_t bpb_addr, TotSec32, DataSec, FATSz32, CountOfClusters, HiddSec, RootClus;
	
	error_flag = Send_Command(17, 0);
    1662:	40 e0       	ldi	r20, 0x00	; 0
    1664:	50 e0       	ldi	r21, 0x00	; 0
    1666:	ba 01       	movw	r22, r20
    1668:	81 e1       	ldi	r24, 0x11	; 17
    166a:	0e 94 db 0e 	call	0x1db6	; 0x1db6 <Send_Command>
	error_flag = Read_Block(512, array);
    166e:	6e 85       	ldd	r22, Y+14	; 0x0e
    1670:	7f 85       	ldd	r23, Y+15	; 0x0f
    1672:	80 e0       	ldi	r24, 0x00	; 0
    1674:	92 e0       	ldi	r25, 0x02	; 2
    1676:	0e 94 93 0e 	call	0x1d26	; 0x1d26 <Read_Block>
	
	// Check if MBR
	if((array[0] != 0xEB) && (array[0] != 0xE9)){
    167a:	ae 85       	ldd	r26, Y+14	; 0x0e
    167c:	bf 85       	ldd	r27, Y+15	; 0x0f
    167e:	8c 91       	ld	r24, X
    1680:	8b 3e       	cpi	r24, 0xEB	; 235
    1682:	09 f4       	brne	.+2      	; 0x1686 <mount_drive+0x66>
    1684:	1f c1       	rjmp	.+574    	; 0x18c4 <mount_drive+0x2a4>
    1686:	89 3e       	cpi	r24, 0xE9	; 233
    1688:	09 f4       	brne	.+2      	; 0x168c <mount_drive+0x6c>
    168a:	1c c1       	rjmp	.+568    	; 0x18c4 <mount_drive+0x2a4>
		bpb_addr = read32(0x01C6, array);
    168c:	bd 01       	movw	r22, r26
    168e:	86 ec       	ldi	r24, 0xC6	; 198
    1690:	91 e0       	ldi	r25, 0x01	; 1
    1692:	0e 94 ef 0a 	call	0x15de	; 0x15de <read32>
    1696:	ab 01       	movw	r20, r22
    1698:	bc 01       	movw	r22, r24
		
		error_flag = Send_Command(17, bpb_addr);
    169a:	81 e1       	ldi	r24, 0x11	; 17
    169c:	0e 94 db 0e 	call	0x1db6	; 0x1db6 <Send_Command>
		error_flag = Read_Block(512, array);
    16a0:	6e 85       	ldd	r22, Y+14	; 0x0e
    16a2:	7f 85       	ldd	r23, Y+15	; 0x0f
    16a4:	80 e0       	ldi	r24, 0x00	; 0
    16a6:	92 e0       	ldi	r25, 0x02	; 2
    16a8:	0e 94 93 0e 	call	0x1d26	; 0x1d26 <Read_Block>
		if((array[0] != 0xEB) && (array[0] != 0xE9)){
    16ac:	ee 85       	ldd	r30, Y+14	; 0x0e
    16ae:	ff 85       	ldd	r31, Y+15	; 0x0f
    16b0:	80 81       	ld	r24, Z
    16b2:	8b 3e       	cpi	r24, 0xEB	; 235
    16b4:	19 f0       	breq	.+6      	; 0x16bc <mount_drive+0x9c>
    16b6:	89 3e       	cpi	r24, 0xE9	; 233
    16b8:	09 f0       	breq	.+2      	; 0x16bc <mount_drive+0x9c>
    16ba:	05 c1       	rjmp	.+522    	; 0x18c6 <mount_drive+0x2a6>
			return Disk_Error;
		}
		
		//RootDirSectors = ((BPB_RootEntCnt * 32) + (BPB_BytsPerSec-1)) / BPB_BytsPerSec
		RootEntCnt = read16(0x0011, array);
    16bc:	6e 85       	ldd	r22, Y+14	; 0x0e
    16be:	7f 85       	ldd	r23, Y+15	; 0x0f
    16c0:	81 e1       	ldi	r24, 0x11	; 17
    16c2:	90 e0       	ldi	r25, 0x00	; 0
    16c4:	0e 94 db 0a 	call	0x15b6	; 0x15b6 <read16>
    16c8:	7c 01       	movw	r14, r24
		Drive_values->BytesPerSec = read16(0x000B, array);
    16ca:	6e 85       	ldd	r22, Y+14	; 0x0e
    16cc:	7f 85       	ldd	r23, Y+15	; 0x0f
    16ce:	8b e0       	ldi	r24, 0x0B	; 11
    16d0:	90 e0       	ldi	r25, 0x00	; 0
    16d2:	0e 94 db 0a 	call	0x15b6	; 0x15b6 <read16>
    16d6:	bc 01       	movw	r22, r24
    16d8:	d8 01       	movw	r26, r16
    16da:	15 96       	adiw	r26, 0x05	; 5
    16dc:	9c 93       	st	X, r25
    16de:	8e 93       	st	-X, r24
    16e0:	14 97       	sbiw	r26, 0x04	; 4
		Drive_values->RootDirSecs = ((RootEntCnt * 32) + (Drive_values->BytesPerSec - 1)) / Drive_values->BytesPerSec;
    16e2:	c7 01       	movw	r24, r14
    16e4:	88 0f       	add	r24, r24
    16e6:	99 1f       	adc	r25, r25
    16e8:	82 95       	swap	r24
    16ea:	92 95       	swap	r25
    16ec:	90 7f       	andi	r25, 0xF0	; 240
    16ee:	98 27       	eor	r25, r24
    16f0:	80 7f       	andi	r24, 0xF0	; 240
    16f2:	98 27       	eor	r25, r24
    16f4:	86 0f       	add	r24, r22
    16f6:	97 1f       	adc	r25, r23
    16f8:	01 97       	sbiw	r24, 0x01	; 1
    16fa:	0e 94 95 12 	call	0x252a	; 0x252a <__udivmodhi4>
    16fe:	2b 01       	movw	r4, r22
    1700:	61 2c       	mov	r6, r1
    1702:	71 2c       	mov	r7, r1
    1704:	f8 01       	movw	r30, r16
    1706:	42 8a       	std	Z+18, r4	; 0x12
    1708:	53 8a       	std	Z+19, r5	; 0x13
    170a:	64 8a       	std	Z+20, r6	; 0x14
    170c:	75 8a       	std	Z+21, r7	; 0x15
		
		//DataSec = TotSec  (BPB_ResvdSecCnt + (BPB_NumFATSs * FATSz) + RootDirSectors)
		TotSec16 = read16(0x13, array);
    170e:	6e 85       	ldd	r22, Y+14	; 0x0e
    1710:	7f 85       	ldd	r23, Y+15	; 0x0f
    1712:	83 e1       	ldi	r24, 0x13	; 19
    1714:	90 e0       	ldi	r25, 0x00	; 0
    1716:	0e 94 db 0a 	call	0x15b6	; 0x15b6 <read16>
    171a:	5c 01       	movw	r10, r24
		TotSec32 = read32(0x20, array);
    171c:	6e 85       	ldd	r22, Y+14	; 0x0e
    171e:	7f 85       	ldd	r23, Y+15	; 0x0f
    1720:	80 e2       	ldi	r24, 0x20	; 32
    1722:	90 e0       	ldi	r25, 0x00	; 0
    1724:	0e 94 ef 0a 	call	0x15de	; 0x15de <read32>
    1728:	69 83       	std	Y+1, r22	; 0x01
    172a:	7a 83       	std	Y+2, r23	; 0x02
    172c:	8b 83       	std	Y+3, r24	; 0x03
    172e:	9c 83       	std	Y+4, r25	; 0x04
		RsvdSecCnt = read16(0x000E, array);
    1730:	6e 85       	ldd	r22, Y+14	; 0x0e
    1732:	7f 85       	ldd	r23, Y+15	; 0x0f
    1734:	8e e0       	ldi	r24, 0x0E	; 14
    1736:	90 e0       	ldi	r25, 0x00	; 0
    1738:	0e 94 db 0a 	call	0x15b6	; 0x15b6 <read16>
    173c:	1c 01       	movw	r2, r24
		NumFATs = read8(0x0010, array);
    173e:	6e 85       	ldd	r22, Y+14	; 0x0e
    1740:	7f 85       	ldd	r23, Y+15	; 0x0f
    1742:	80 e1       	ldi	r24, 0x10	; 16
    1744:	90 e0       	ldi	r25, 0x00	; 0
    1746:	0e 94 a1 08 	call	0x1142	; 0x1142 <read8>
    174a:	8d 83       	std	Y+5, r24	; 0x05
		FATSz32 = read32(0x0024, array);
    174c:	6e 85       	ldd	r22, Y+14	; 0x0e
    174e:	7f 85       	ldd	r23, Y+15	; 0x0f
    1750:	84 e2       	ldi	r24, 0x24	; 36
    1752:	90 e0       	ldi	r25, 0x00	; 0
    1754:	0e 94 ef 0a 	call	0x15de	; 0x15de <read32>
    1758:	6b 01       	movw	r12, r22
    175a:	7c 01       	movw	r14, r24
		
		if(FATSz32 == 0){
    175c:	61 15       	cp	r22, r1
    175e:	71 05       	cpc	r23, r1
    1760:	81 05       	cpc	r24, r1
    1762:	91 05       	cpc	r25, r1
    1764:	09 f4       	brne	.+2      	; 0x1768 <mount_drive+0x148>
    1766:	b1 c0       	rjmp	.+354    	; 0x18ca <mount_drive+0x2aa>
			return Disk_Error;
		}
		
		if(TotSec16 != 0){
    1768:	a1 14       	cp	r10, r1
    176a:	b1 04       	cpc	r11, r1
    176c:	c9 f0       	breq	.+50     	; 0x17a0 <mount_drive+0x180>
			DataSec = TotSec16 - (RsvdSecCnt + (NumFATs * FATSz32) + Drive_values->RootDirSecs);
    176e:	45 01       	movw	r8, r10
    1770:	a1 2c       	mov	r10, r1
    1772:	b1 2c       	mov	r11, r1
    1774:	fd 81       	ldd	r31, Y+5	; 0x05
    1776:	af 2f       	mov	r26, r31
    1778:	b0 e0       	ldi	r27, 0x00	; 0
    177a:	9b 01       	movw	r18, r22
    177c:	ac 01       	movw	r20, r24
    177e:	0e 94 cb 12 	call	0x2596	; 0x2596 <__muluhisi3>
    1782:	dc 01       	movw	r26, r24
    1784:	cb 01       	movw	r24, r22
    1786:	82 0d       	add	r24, r2
    1788:	93 1d       	adc	r25, r3
    178a:	a1 1d       	adc	r26, r1
    178c:	b1 1d       	adc	r27, r1
    178e:	84 0d       	add	r24, r4
    1790:	95 1d       	adc	r25, r5
    1792:	a6 1d       	adc	r26, r6
    1794:	b7 1d       	adc	r27, r7
    1796:	88 1a       	sub	r8, r24
    1798:	99 0a       	sbc	r9, r25
    179a:	aa 0a       	sbc	r10, r26
    179c:	bb 0a       	sbc	r11, r27
    179e:	19 c0       	rjmp	.+50     	; 0x17d2 <mount_drive+0x1b2>
		}
		else{
			DataSec = TotSec32 - (RsvdSecCnt + (NumFATs * FATSz32) + Drive_values->RootDirSecs);
    17a0:	2d 81       	ldd	r18, Y+5	; 0x05
    17a2:	a2 2f       	mov	r26, r18
    17a4:	b0 e0       	ldi	r27, 0x00	; 0
    17a6:	9b 01       	movw	r18, r22
    17a8:	ac 01       	movw	r20, r24
    17aa:	0e 94 cb 12 	call	0x2596	; 0x2596 <__muluhisi3>
    17ae:	dc 01       	movw	r26, r24
    17b0:	cb 01       	movw	r24, r22
    17b2:	82 0d       	add	r24, r2
    17b4:	93 1d       	adc	r25, r3
    17b6:	a1 1d       	adc	r26, r1
    17b8:	b1 1d       	adc	r27, r1
    17ba:	84 0d       	add	r24, r4
    17bc:	95 1d       	adc	r25, r5
    17be:	a6 1d       	adc	r26, r6
    17c0:	b7 1d       	adc	r27, r7
    17c2:	89 80       	ldd	r8, Y+1	; 0x01
    17c4:	9a 80       	ldd	r9, Y+2	; 0x02
    17c6:	ab 80       	ldd	r10, Y+3	; 0x03
    17c8:	bc 80       	ldd	r11, Y+4	; 0x04
    17ca:	88 1a       	sub	r8, r24
    17cc:	99 0a       	sbc	r9, r25
    17ce:	aa 0a       	sbc	r10, r26
    17d0:	bb 0a       	sbc	r11, r27
		}
		
		// CountOfClusters = DataSec / SecPerClus
		Drive_values->SecPerClus = read8(0x0D, array);
    17d2:	6e 85       	ldd	r22, Y+14	; 0x0e
    17d4:	7f 85       	ldd	r23, Y+15	; 0x0f
    17d6:	8d e0       	ldi	r24, 0x0D	; 13
    17d8:	90 e0       	ldi	r25, 0x00	; 0
    17da:	0e 94 a1 08 	call	0x1142	; 0x1142 <read8>
    17de:	d8 01       	movw	r26, r16
    17e0:	8c 93       	st	X, r24
		CountOfClusters = DataSec / Drive_values->SecPerClus;
    17e2:	28 2f       	mov	r18, r24
    17e4:	30 e0       	ldi	r19, 0x00	; 0
    17e6:	40 e0       	ldi	r20, 0x00	; 0
    17e8:	50 e0       	ldi	r21, 0x00	; 0
    17ea:	29 83       	std	Y+1, r18	; 0x01
    17ec:	3a 83       	std	Y+2, r19	; 0x02
    17ee:	4b 83       	std	Y+3, r20	; 0x03
    17f0:	5c 83       	std	Y+4, r21	; 0x04
    17f2:	c5 01       	movw	r24, r10
    17f4:	b4 01       	movw	r22, r8
    17f6:	0e 94 a9 12 	call	0x2552	; 0x2552 <__udivmodsi4>
    17fa:	2a 87       	std	Y+10, r18	; 0x0a
    17fc:	3b 87       	std	Y+11, r19	; 0x0b
    17fe:	4c 87       	std	Y+12, r20	; 0x0c
    1800:	5d 87       	std	Y+13, r21	; 0x0d
		
		HiddSec = read32(0x001C, array);
    1802:	6e 85       	ldd	r22, Y+14	; 0x0e
    1804:	7f 85       	ldd	r23, Y+15	; 0x0f
    1806:	8c e1       	ldi	r24, 0x1C	; 28
    1808:	90 e0       	ldi	r25, 0x00	; 0
    180a:	0e 94 ef 0a 	call	0x15de	; 0x15de <read32>
    180e:	6e 83       	std	Y+6, r22	; 0x06
    1810:	7f 83       	std	Y+7, r23	; 0x07
    1812:	88 87       	std	Y+8, r24	; 0x08
    1814:	99 87       	std	Y+9, r25	; 0x09
		
		// FirstDataSector = BPB_ResvdSecCnt + (BPB_NumFATs * FATSz) + RootDirSectors + MBR_RelativeSectors
		Drive_values->FirstDataSec = RsvdSecCnt + (NumFATs * FATSz32) + Drive_values->RootDirSecs + HiddSec;
    1816:	41 01       	movw	r8, r2
    1818:	a1 2c       	mov	r10, r1
    181a:	b1 2c       	mov	r11, r1
    181c:	3d 81       	ldd	r19, Y+5	; 0x05
    181e:	a3 2f       	mov	r26, r19
    1820:	b0 e0       	ldi	r27, 0x00	; 0
    1822:	a7 01       	movw	r20, r14
    1824:	96 01       	movw	r18, r12
    1826:	0e 94 cb 12 	call	0x2596	; 0x2596 <__muluhisi3>
    182a:	75 01       	movw	r14, r10
    182c:	64 01       	movw	r12, r8
    182e:	c6 0e       	add	r12, r22
    1830:	d7 1e       	adc	r13, r23
    1832:	e8 1e       	adc	r14, r24
    1834:	f9 1e       	adc	r15, r25
    1836:	c4 0c       	add	r12, r4
    1838:	d5 1c       	adc	r13, r5
    183a:	e6 1c       	adc	r14, r6
    183c:	f7 1c       	adc	r15, r7
    183e:	8e 81       	ldd	r24, Y+6	; 0x06
    1840:	9f 81       	ldd	r25, Y+7	; 0x07
    1842:	a8 85       	ldd	r26, Y+8	; 0x08
    1844:	b9 85       	ldd	r27, Y+9	; 0x09
    1846:	c8 0e       	add	r12, r24
    1848:	d9 1e       	adc	r13, r25
    184a:	ea 1e       	adc	r14, r26
    184c:	fb 1e       	adc	r15, r27
    184e:	d8 01       	movw	r26, r16
    1850:	1a 96       	adiw	r26, 0x0a	; 10
    1852:	cd 92       	st	X+, r12
    1854:	dd 92       	st	X+, r13
    1856:	ed 92       	st	X+, r14
    1858:	fc 92       	st	X, r15
    185a:	1d 97       	sbiw	r26, 0x0d	; 13
		
		// StartOfFAT = BPB_ResvdSecCnt + MBR_RelativeSectors
		Drive_values->StartofFAT = RsvdSecCnt + HiddSec;
    185c:	2e 81       	ldd	r18, Y+6	; 0x06
    185e:	3f 81       	ldd	r19, Y+7	; 0x07
    1860:	48 85       	ldd	r20, Y+8	; 0x08
    1862:	59 85       	ldd	r21, Y+9	; 0x09
    1864:	82 0e       	add	r8, r18
    1866:	93 1e       	adc	r9, r19
    1868:	a4 1e       	adc	r10, r20
    186a:	b5 1e       	adc	r11, r21
    186c:	1e 96       	adiw	r26, 0x0e	; 14
    186e:	8d 92       	st	X+, r8
    1870:	9d 92       	st	X+, r9
    1872:	ad 92       	st	X+, r10
    1874:	bc 92       	st	X, r11
    1876:	51 97       	sbiw	r26, 0x11	; 17
		
		RootClus = read32(0x2C, array);
    1878:	6e 85       	ldd	r22, Y+14	; 0x0e
    187a:	7f 85       	ldd	r23, Y+15	; 0x0f
    187c:	8c e2       	ldi	r24, 0x2C	; 44
    187e:	90 e0       	ldi	r25, 0x00	; 0
    1880:	0e 94 ef 0a 	call	0x15de	; 0x15de <read32>
		
		// FirstRootDirSecNum = ((BPB_RootClus - 2) * BPB_SecPerClus) + FirstDataSector
		Drive_values->FirstRootDirSec = ((RootClus - 2) * Drive_values->SecPerClus) + Drive_values->FirstDataSec;
    1884:	62 50       	subi	r22, 0x02	; 2
    1886:	71 09       	sbc	r23, r1
    1888:	81 09       	sbc	r24, r1
    188a:	91 09       	sbc	r25, r1
    188c:	29 81       	ldd	r18, Y+1	; 0x01
    188e:	3a 81       	ldd	r19, Y+2	; 0x02
    1890:	4b 81       	ldd	r20, Y+3	; 0x03
    1892:	5c 81       	ldd	r21, Y+4	; 0x04
    1894:	0e 94 85 12 	call	0x250a	; 0x250a <__mulsi3>
    1898:	c6 0e       	add	r12, r22
    189a:	d7 1e       	adc	r13, r23
    189c:	e8 1e       	adc	r14, r24
    189e:	f9 1e       	adc	r15, r25
    18a0:	f8 01       	movw	r30, r16
    18a2:	c6 82       	std	Z+6, r12	; 0x06
    18a4:	d7 82       	std	Z+7, r13	; 0x07
    18a6:	e0 86       	std	Z+8, r14	; 0x08
    18a8:	f1 86       	std	Z+9, r15	; 0x09
		
		// Fat Type
		if(CountOfClusters < 65525){
    18aa:	2a 85       	ldd	r18, Y+10	; 0x0a
    18ac:	3b 85       	ldd	r19, Y+11	; 0x0b
    18ae:	4c 85       	ldd	r20, Y+12	; 0x0c
    18b0:	5d 85       	ldd	r21, Y+13	; 0x0d
    18b2:	25 3f       	cpi	r18, 0xF5	; 245
    18b4:	3f 4f       	sbci	r19, 0xFF	; 255
    18b6:	41 05       	cpc	r20, r1
    18b8:	51 05       	cpc	r21, r1
    18ba:	48 f0       	brcs	.+18     	; 0x18ce <mount_drive+0x2ae>
			return Disk_Error;
		}
		else{
			Drive_values->FATtype = 32;
    18bc:	80 e2       	ldi	r24, 0x20	; 32
    18be:	81 83       	std	Z+1, r24	; 0x01
			return no_errors;
    18c0:	80 e0       	ldi	r24, 0x00	; 0
    18c2:	06 c0       	rjmp	.+12     	; 0x18d0 <mount_drive+0x2b0>
		}		
	}
}
    18c4:	05 c0       	rjmp	.+10     	; 0x18d0 <mount_drive+0x2b0>
		bpb_addr = read32(0x01C6, array);
		
		error_flag = Send_Command(17, bpb_addr);
		error_flag = Read_Block(512, array);
		if((array[0] != 0xEB) && (array[0] != 0xE9)){
			return Disk_Error;
    18c6:	80 ef       	ldi	r24, 0xF0	; 240
    18c8:	03 c0       	rjmp	.+6      	; 0x18d0 <mount_drive+0x2b0>
		RsvdSecCnt = read16(0x000E, array);
		NumFATs = read8(0x0010, array);
		FATSz32 = read32(0x0024, array);
		
		if(FATSz32 == 0){
			return Disk_Error;
    18ca:	80 ef       	ldi	r24, 0xF0	; 240
    18cc:	01 c0       	rjmp	.+2      	; 0x18d0 <mount_drive+0x2b0>
		// FirstRootDirSecNum = ((BPB_RootClus - 2) * BPB_SecPerClus) + FirstDataSector
		Drive_values->FirstRootDirSec = ((RootClus - 2) * Drive_values->SecPerClus) + Drive_values->FirstDataSec;
		
		// Fat Type
		if(CountOfClusters < 65525){
			return Disk_Error;
    18ce:	80 ef       	ldi	r24, 0xF0	; 240
		else{
			Drive_values->FATtype = 32;
			return no_errors;
		}		
	}
}
    18d0:	2f 96       	adiw	r28, 0x0f	; 15
    18d2:	0f b6       	in	r0, 0x3f	; 63
    18d4:	f8 94       	cli
    18d6:	de bf       	out	0x3e, r29	; 62
    18d8:	0f be       	out	0x3f, r0	; 63
    18da:	cd bf       	out	0x3d, r28	; 61
    18dc:	df 91       	pop	r29
    18de:	cf 91       	pop	r28
    18e0:	1f 91       	pop	r17
    18e2:	0f 91       	pop	r16
    18e4:	ff 90       	pop	r15
    18e6:	ef 90       	pop	r14
    18e8:	df 90       	pop	r13
    18ea:	cf 90       	pop	r12
    18ec:	bf 90       	pop	r11
    18ee:	af 90       	pop	r10
    18f0:	9f 90       	pop	r9
    18f2:	8f 90       	pop	r8
    18f4:	7f 90       	pop	r7
    18f6:	6f 90       	pop	r6
    18f8:	5f 90       	pop	r5
    18fa:	4f 90       	pop	r4
    18fc:	3f 90       	pop	r3
    18fe:	2f 90       	pop	r2
    1900:	08 95       	ret

00001902 <First_Sector>:

uint32_t First_Sector(uint32_t Cluster_Num){
    1902:	cf 92       	push	r12
    1904:	df 92       	push	r13
    1906:	ef 92       	push	r14
    1908:	ff 92       	push	r15
    190a:	6b 01       	movw	r12, r22
    190c:	7c 01       	movw	r14, r24
	FS_values_t * Drive_values = Export_Drive_values();
    190e:	0e 94 6d 08 	call	0x10da	; 0x10da <Export_Drive_values>
    1912:	fc 01       	movw	r30, r24
	uint32_t FirstSectorOfCluster;
	if(Cluster_Num == 0 || Cluster_Num == 0x10000000){ //first cluster or dir ".." was selected
    1914:	c1 14       	cp	r12, r1
    1916:	d1 04       	cpc	r13, r1
    1918:	e1 04       	cpc	r14, r1
    191a:	f1 04       	cpc	r15, r1
    191c:	31 f0       	breq	.+12     	; 0x192a <First_Sector+0x28>
    191e:	c1 14       	cp	r12, r1
    1920:	d1 04       	cpc	r13, r1
    1922:	e1 04       	cpc	r14, r1
    1924:	80 e1       	ldi	r24, 0x10	; 16
    1926:	f8 06       	cpc	r15, r24
    1928:	29 f4       	brne	.+10     	; 0x1934 <First_Sector+0x32>
		return Drive_values->FirstRootDirSec;
    192a:	66 81       	ldd	r22, Z+6	; 0x06
    192c:	77 81       	ldd	r23, Z+7	; 0x07
    192e:	80 85       	ldd	r24, Z+8	; 0x08
    1930:	91 85       	ldd	r25, Z+9	; 0x09
    1932:	12 c0       	rjmp	.+36     	; 0x1958 <First_Sector+0x56>
	}
	else{
		// FirstSectorofCluster = ((N  2) * BPB_SecPerClus) + FirstDataSector;
		FirstSectorOfCluster = ((Cluster_Num - 2) * Drive_values->SecPerClus) + Drive_values->FirstDataSec;
    1934:	a7 01       	movw	r20, r14
    1936:	96 01       	movw	r18, r12
    1938:	22 50       	subi	r18, 0x02	; 2
    193a:	31 09       	sbc	r19, r1
    193c:	41 09       	sbc	r20, r1
    193e:	51 09       	sbc	r21, r1
    1940:	a0 81       	ld	r26, Z
    1942:	b0 e0       	ldi	r27, 0x00	; 0
    1944:	0e 94 cb 12 	call	0x2596	; 0x2596 <__muluhisi3>
    1948:	c2 84       	ldd	r12, Z+10	; 0x0a
    194a:	d3 84       	ldd	r13, Z+11	; 0x0b
    194c:	e4 84       	ldd	r14, Z+12	; 0x0c
    194e:	f5 84       	ldd	r15, Z+13	; 0x0d
		return FirstSectorOfCluster;
    1950:	6c 0d       	add	r22, r12
    1952:	7d 1d       	adc	r23, r13
    1954:	8e 1d       	adc	r24, r14
    1956:	9f 1d       	adc	r25, r15
	}
}
    1958:	ff 90       	pop	r15
    195a:	ef 90       	pop	r14
    195c:	df 90       	pop	r13
    195e:	cf 90       	pop	r12
    1960:	08 95       	ret

00001962 <GPIO_Output_Init>:
#include "GPIO_Outputs.h"

void GPIO_Output_Init(volatile GPIO_t * port_addr, uint8_t pin_mask)
{
	//Set Port Pin to be an output with initial value '1'
	(port_addr->GPIO_DDR)|=(pin_mask);    // Set DDRx to make port pin an output
    1962:	fc 01       	movw	r30, r24
    1964:	21 81       	ldd	r18, Z+1	; 0x01
    1966:	62 2b       	or	r22, r18
    1968:	61 83       	std	Z+1, r22	; 0x01
    196a:	08 95       	ret

0000196c <GPIO_Output_Set>:


void GPIO_Output_Set(volatile GPIO_t * port_addr, uint8_t pin_mask)
{
	//control = 0, LED off; control = 1, LED on 
		(port_addr->GPIO_PORT)|=(pin_mask);    // Set PORTx PORTx pin to value of '1'
    196c:	fc 01       	movw	r30, r24
    196e:	22 81       	ldd	r18, Z+2	; 0x02
    1970:	62 2b       	or	r22, r18
    1972:	62 83       	std	Z+2, r22	; 0x02
    1974:	08 95       	ret

00001976 <GPIO_Output_Clear>:
}

void GPIO_Output_Clear(volatile GPIO_t * port_addr, uint8_t pin_mask)
{
    1976:	fc 01       	movw	r30, r24
	//control = 0, LED off; control = 1, LED on
		(port_addr->GPIO_PORT)&=~(pin_mask);    // Clear PORTx pin to value of '0'
    1978:	92 81       	ldd	r25, Z+2	; 0x02
    197a:	60 95       	com	r22
    197c:	69 23       	and	r22, r25
    197e:	62 83       	std	Z+2, r22	; 0x02
    1980:	08 95       	ret

00001982 <Read_Pin>:
}

uint8_t Read_Pin(volatile GPIO_t * port_addr, uint8_t pin_mask){
	uint8_t temp8;
	temp8 = (port_addr->GPIO_PIN);
    1982:	fc 01       	movw	r30, r24
    1984:	80 81       	ld	r24, Z
	if((temp8&pin_mask)==0) temp8 = 0; // return 0 if pin==0
    1986:	68 23       	and	r22, r24
    1988:	11 f4       	brne	.+4      	; 0x198e <Read_Pin+0xc>
    198a:	80 e0       	ldi	r24, 0x00	; 0
    198c:	08 95       	ret
	else temp8 = 1;                    // return 1 if pin==1
    198e:	81 e0       	ldi	r24, 0x01	; 1
	return temp8;
    1990:	08 95       	ret

00001992 <Long_Serial_Input>:
RETURNS: unsigned long
CAUTION: UART must be initialized first
************************************************************************/

uint32_t Long_Serial_Input(volatile UART_t * UART_addr)
{
    1992:	8f 92       	push	r8
    1994:	9f 92       	push	r9
    1996:	af 92       	push	r10
    1998:	bf 92       	push	r11
    199a:	ef 92       	push	r14
    199c:	ff 92       	push	r15
    199e:	0f 93       	push	r16
    19a0:	1f 93       	push	r17
    19a2:	cf 93       	push	r28
    19a4:	df 93       	push	r29
    19a6:	cd b7       	in	r28, 0x3d	; 61
    19a8:	de b7       	in	r29, 0x3e	; 62
    19aa:	2b 97       	sbiw	r28, 0x0b	; 11
    19ac:	0f b6       	in	r0, 0x3f	; 63
    19ae:	f8 94       	cli
    19b0:	de bf       	out	0x3e, r29	; 62
    19b2:	0f be       	out	0x3f, r0	; 63
    19b4:	cd bf       	out	0x3d, r28	; 61
    19b6:	7c 01       	movw	r14, r24
   uint8_t index,input;
   char input_values[11];   
   uint32_t output_value;
      for(index=0;index<11;index++)
    19b8:	80 e0       	ldi	r24, 0x00	; 0
    19ba:	08 c0       	rjmp	.+16     	; 0x19cc <Long_Serial_Input+0x3a>
      {
        input_values[index]=0;
    19bc:	e1 e0       	ldi	r30, 0x01	; 1
    19be:	f0 e0       	ldi	r31, 0x00	; 0
    19c0:	ec 0f       	add	r30, r28
    19c2:	fd 1f       	adc	r31, r29
    19c4:	e8 0f       	add	r30, r24
    19c6:	f1 1d       	adc	r31, r1
    19c8:	10 82       	st	Z, r1
uint32_t Long_Serial_Input(volatile UART_t * UART_addr)
{
   uint8_t index,input;
   char input_values[11];   
   uint32_t output_value;
      for(index=0;index<11;index++)
    19ca:	8f 5f       	subi	r24, 0xFF	; 255
    19cc:	8b 30       	cpi	r24, 0x0B	; 11
    19ce:	b0 f3       	brcs	.-20     	; 0x19bc <Long_Serial_Input+0x2a>
    19d0:	88 24       	eor	r8, r8
    19d2:	8a 94       	dec	r8
    19d4:	98 2c       	mov	r9, r8
    19d6:	54 01       	movw	r10, r8
    19d8:	00 e0       	ldi	r16, 0x00	; 0
      }
      output_value=0xffffffff;
      index=0;
      do
      {
         input=UART_Receive(UART_addr);
    19da:	c7 01       	movw	r24, r14
    19dc:	0e 94 4b 12 	call	0x2496	; 0x2496 <UART_Receive>
    19e0:	18 2f       	mov	r17, r24
         if((input>=0x30)&&(input<=0x39))
    19e2:	80 ed       	ldi	r24, 0xD0	; 208
    19e4:	81 0f       	add	r24, r17
    19e6:	8a 30       	cpi	r24, 0x0A	; 10
    19e8:	68 f4       	brcc	.+26     	; 0x1a04 <Long_Serial_Input+0x72>
         {
           UART_Transmit(UART_addr,input);    // echo valid inputs only
    19ea:	61 2f       	mov	r22, r17
    19ec:	c7 01       	movw	r24, r14
    19ee:	0e 94 44 12 	call	0x2488	; 0x2488 <UART_Transmit>
		   input_values[index]=input;
    19f2:	e1 e0       	ldi	r30, 0x01	; 1
    19f4:	f0 e0       	ldi	r31, 0x00	; 0
    19f6:	ec 0f       	add	r30, r28
    19f8:	fd 1f       	adc	r31, r29
    19fa:	e0 0f       	add	r30, r16
    19fc:	f1 1d       	adc	r31, r1
    19fe:	10 83       	st	Z, r17
           index++;
    1a00:	0f 5f       	subi	r16, 0xFF	; 255
    1a02:	2d c0       	rjmp	.+90     	; 0x1a5e <Long_Serial_Input+0xcc>
         }
         else if ((input==BS)||(input==DEL))  // Putty uses DEL (127) or BS (0x08) for backspace
    1a04:	18 30       	cpi	r17, 0x08	; 8
    1a06:	11 f0       	breq	.+4      	; 0x1a0c <Long_Serial_Input+0x7a>
    1a08:	1f 37       	cpi	r17, 0x7F	; 127
    1a0a:	a9 f4       	brne	.+42     	; 0x1a36 <Long_Serial_Input+0xa4>
         {
           index--;
    1a0c:	01 50       	subi	r16, 0x01	; 1
           input_values[index]=0;
    1a0e:	e1 e0       	ldi	r30, 0x01	; 1
    1a10:	f0 e0       	ldi	r31, 0x00	; 0
    1a12:	ec 0f       	add	r30, r28
    1a14:	fd 1f       	adc	r31, r29
    1a16:	e0 0f       	add	r30, r16
    1a18:	f1 1d       	adc	r31, r1
    1a1a:	10 82       	st	Z, r1
		   UART_Transmit(UART_addr,BS);
    1a1c:	68 e0       	ldi	r22, 0x08	; 8
    1a1e:	c7 01       	movw	r24, r14
    1a20:	0e 94 44 12 	call	0x2488	; 0x2488 <UART_Transmit>
           UART_Transmit(UART_addr,space);
    1a24:	60 e2       	ldi	r22, 0x20	; 32
    1a26:	c7 01       	movw	r24, r14
    1a28:	0e 94 44 12 	call	0x2488	; 0x2488 <UART_Transmit>
           UART_Transmit(UART_addr,BS);
    1a2c:	68 e0       	ldi	r22, 0x08	; 8
    1a2e:	c7 01       	movw	r24, r14
    1a30:	0e 94 44 12 	call	0x2488	; 0x2488 <UART_Transmit>
    1a34:	14 c0       	rjmp	.+40     	; 0x1a5e <Long_Serial_Input+0xcc>
         }
		 //*** Added '.' as a replacement for ENTER since CR or LF does not work for Atmel Studio Data Visualizer ****//
         else if ((input==CR)||(input==LF)||(input=='.'))
    1a36:	1d 30       	cpi	r17, 0x0D	; 13
    1a38:	21 f0       	breq	.+8      	; 0x1a42 <Long_Serial_Input+0xb0>
    1a3a:	1a 30       	cpi	r17, 0x0A	; 10
    1a3c:	11 f0       	breq	.+4      	; 0x1a42 <Long_Serial_Input+0xb0>
    1a3e:	1e 32       	cpi	r17, 0x2E	; 46
    1a40:	71 f4       	brne	.+28     	; 0x1a5e <Long_Serial_Input+0xcc>
         {
            output_value=atol(input_values);
    1a42:	ce 01       	movw	r24, r28
    1a44:	01 96       	adiw	r24, 0x01	; 1
    1a46:	0e 94 e5 12 	call	0x25ca	; 0x25ca <atol>
    1a4a:	4b 01       	movw	r8, r22
    1a4c:	5c 01       	movw	r10, r24
            UART_Transmit(UART_addr,CR);
    1a4e:	6d e0       	ldi	r22, 0x0D	; 13
    1a50:	c7 01       	movw	r24, r14
    1a52:	0e 94 44 12 	call	0x2488	; 0x2488 <UART_Transmit>
			UART_Transmit(UART_addr,LF);
    1a56:	6a e0       	ldi	r22, 0x0A	; 10
    1a58:	c7 01       	movw	r24, r14
    1a5a:	0e 94 44 12 	call	0x2488	; 0x2488 <UART_Transmit>
         }
         if(index==10)
    1a5e:	0a 30       	cpi	r16, 0x0A	; 10
    1a60:	71 f4       	brne	.+28     	; 0x1a7e <Long_Serial_Input+0xec>
         {
            output_value=atol(input_values);
    1a62:	ce 01       	movw	r24, r28
    1a64:	01 96       	adiw	r24, 0x01	; 1
    1a66:	0e 94 e5 12 	call	0x25ca	; 0x25ca <atol>
    1a6a:	4b 01       	movw	r8, r22
    1a6c:	5c 01       	movw	r10, r24
            UART_Transmit(UART_addr,CR);
    1a6e:	6d e0       	ldi	r22, 0x0D	; 13
    1a70:	c7 01       	movw	r24, r14
    1a72:	0e 94 44 12 	call	0x2488	; 0x2488 <UART_Transmit>
			UART_Transmit(UART_addr,LF);
    1a76:	6a e0       	ldi	r22, 0x0A	; 10
    1a78:	c7 01       	movw	r24, r14
    1a7a:	0e 94 44 12 	call	0x2488	; 0x2488 <UART_Transmit>
         }
      }while(output_value==0xffffffff);
    1a7e:	8f ef       	ldi	r24, 0xFF	; 255
    1a80:	88 16       	cp	r8, r24
    1a82:	98 06       	cpc	r9, r24
    1a84:	a8 06       	cpc	r10, r24
    1a86:	b8 06       	cpc	r11, r24
    1a88:	09 f4       	brne	.+2      	; 0x1a8c <Long_Serial_Input+0xfa>
    1a8a:	a7 cf       	rjmp	.-178    	; 0x19da <Long_Serial_Input+0x48>

return output_value;
}
    1a8c:	c5 01       	movw	r24, r10
    1a8e:	b4 01       	movw	r22, r8
    1a90:	2b 96       	adiw	r28, 0x0b	; 11
    1a92:	0f b6       	in	r0, 0x3f	; 63
    1a94:	f8 94       	cli
    1a96:	de bf       	out	0x3e, r29	; 62
    1a98:	0f be       	out	0x3f, r0	; 63
    1a9a:	cd bf       	out	0x3d, r28	; 61
    1a9c:	df 91       	pop	r29
    1a9e:	cf 91       	pop	r28
    1aa0:	1f 91       	pop	r17
    1aa2:	0f 91       	pop	r16
    1aa4:	ff 90       	pop	r15
    1aa6:	ef 90       	pop	r14
    1aa8:	bf 90       	pop	r11
    1aaa:	af 90       	pop	r10
    1aac:	9f 90       	pop	r9
    1aae:	8f 90       	pop	r8
    1ab0:	08 95       	ret

00001ab2 <main>:
#include "TWI.h"
#include "STA013.h"
#include "Directory_Functions_struct.h"

int main(void)
{
    1ab2:	cf 93       	push	r28
    1ab4:	df 93       	push	r29
    1ab6:	cd b7       	in	r28, 0x3d	; 61
    1ab8:	de b7       	in	r29, 0x3e	; 62
    1aba:	d6 50       	subi	r29, 0x06	; 6
    1abc:	0f b6       	in	r0, 0x3f	; 63
    1abe:	f8 94       	cli
    1ac0:	de bf       	out	0x3e, r29	; 62
    1ac2:	0f be       	out	0x3f, r0	; 63
    1ac4:	cd bf       	out	0x3d, r28	; 61
	char string_in_SRAM [63] = "This is a string in SRAM - Garrett Mason & Harrison Heselbarth";
	// Local variables
	char * p_buffer;
	p_buffer = Export_print_buffer();
    1ac6:	0e 94 51 12 	call	0x24a2	; 0x24a2 <Export_print_buffer>
    1aca:	08 2f       	mov	r16, r24
    1acc:	19 2f       	mov	r17, r25
	uint8_t error_flag;
	uint8_t array[512];
	
	// Initializations
	UART_Init(UART1,9600);
    1ace:	60 e8       	ldi	r22, 0x80	; 128
    1ad0:	75 e2       	ldi	r23, 0x25	; 37
    1ad2:	88 ec       	ldi	r24, 0xC8	; 200
    1ad4:	90 e0       	ldi	r25, 0x00	; 0
    1ad6:	0e 94 1a 12 	call	0x2434	; 0x2434 <UART_Init>
	uint8_t SPI_error = SPI_Master_Init(SPI0_base, 400000UL);
    1ada:	40 e8       	ldi	r20, 0x80	; 128
    1adc:	5a e1       	ldi	r21, 0x1A	; 26
    1ade:	66 e0       	ldi	r22, 0x06	; 6
    1ae0:	70 e0       	ldi	r23, 0x00	; 0
    1ae2:	8c e4       	ldi	r24, 0x4C	; 76
    1ae4:	90 e0       	ldi	r25, 0x00	; 0
    1ae6:	0e 94 5b 10 	call	0x20b6	; 0x20b6 <SPI_Master_Init>
	uint8_t SD_error = SD_Card_Init();
    1aea:	0e 94 62 0f 	call	0x1ec4	; 0x1ec4 <SD_Card_Init>
	uint8_t SPI_error2 = SPI_Master_Init(SPI0_base, 25000000UL);
    1aee:	40 e4       	ldi	r20, 0x40	; 64
    1af0:	58 e7       	ldi	r21, 0x78	; 120
    1af2:	6d e7       	ldi	r22, 0x7D	; 125
    1af4:	71 e0       	ldi	r23, 0x01	; 1
    1af6:	8c e4       	ldi	r24, 0x4C	; 76
    1af8:	90 e0       	ldi	r25, 0x00	; 0
    1afa:	0e 94 5b 10 	call	0x20b6	; 0x20b6 <SPI_Master_Init>
	uint8_t TWI_error = TWI_Master_Init(TWI1_Base, 2500UL);
    1afe:	44 ec       	ldi	r20, 0xC4	; 196
    1b00:	59 e0       	ldi	r21, 0x09	; 9
    1b02:	60 e0       	ldi	r22, 0x00	; 0
    1b04:	70 e0       	ldi	r23, 0x00	; 0
    1b06:	88 ed       	ldi	r24, 0xD8	; 216
    1b08:	90 e0       	ldi	r25, 0x00	; 0
    1b0a:	0e 94 7f 11 	call	0x22fe	; 0x22fe <TWI_Master_Init>
	SD_CS_active(SD_CS_port, SD_CS_pin);
    1b0e:	60 e1       	ldi	r22, 0x10	; 16
    1b10:	83 e2       	ldi	r24, 0x23	; 35
    1b12:	90 e0       	ldi	r25, 0x00	; 0
    1b14:	0e 94 8b 0e 	call	0x1d16	; 0x1d16 <SD_CS_active>
	uint8_t Mount_error = mount_drive(array);
    1b18:	ce 01       	movw	r24, r28
    1b1a:	01 96       	adiw	r24, 0x01	; 1
    1b1c:	0e 94 10 0b 	call	0x1620	; 0x1620 <mount_drive>
	sprintf(p_buffer, "\n\rMount Error: 0x%X\n\r", Mount_error);
    1b20:	1f 92       	push	r1
    1b22:	8f 93       	push	r24
    1b24:	8d e6       	ldi	r24, 0x6D	; 109
    1b26:	91 e0       	ldi	r25, 0x01	; 1
    1b28:	9f 93       	push	r25
    1b2a:	8f 93       	push	r24
    1b2c:	1f 93       	push	r17
    1b2e:	0f 93       	push	r16
    1b30:	0e 94 21 13 	call	0x2642	; 0x2642 <sprintf>
	UART_Transmit_String(UART1, 0, p_buffer);
    1b34:	40 2f       	mov	r20, r16
    1b36:	51 2f       	mov	r21, r17
    1b38:	60 e0       	ldi	r22, 0x00	; 0
    1b3a:	88 ec       	ldi	r24, 0xC8	; 200
    1b3c:	90 e0       	ldi	r25, 0x00	; 0
    1b3e:	0e 94 54 12 	call	0x24a8	; 0x24a8 <UART_Transmit_String>
	uint32_t current_dir = First_Sector(0);
    1b42:	60 e0       	ldi	r22, 0x00	; 0
    1b44:	70 e0       	ldi	r23, 0x00	; 0
    1b46:	cb 01       	movw	r24, r22
    1b48:	0e 94 81 0c 	call	0x1902	; 0x1902 <First_Sector>
    1b4c:	66 2e       	mov	r6, r22
    1b4e:	57 2e       	mov	r5, r23
    1b50:	48 2e       	mov	r4, r24
    1b52:	39 2e       	mov	r3, r25
	sprintf(p_buffer, "\n\rcurrent_dir 0x%X\n\r", current_dir);
    1b54:	9f 93       	push	r25
    1b56:	8f 93       	push	r24
    1b58:	7f 93       	push	r23
    1b5a:	6f 93       	push	r22
    1b5c:	83 e8       	ldi	r24, 0x83	; 131
    1b5e:	91 e0       	ldi	r25, 0x01	; 1
    1b60:	9f 93       	push	r25
    1b62:	8f 93       	push	r24
    1b64:	1f 93       	push	r17
    1b66:	0f 93       	push	r16
    1b68:	0e 94 21 13 	call	0x2642	; 0x2642 <sprintf>
	UART_Transmit_String(UART1, 0, p_buffer);
    1b6c:	40 2f       	mov	r20, r16
    1b6e:	51 2f       	mov	r21, r17
    1b70:	60 e0       	ldi	r22, 0x00	; 0
    1b72:	88 ec       	ldi	r24, 0xC8	; 200
    1b74:	90 e0       	ldi	r25, 0x00	; 0
    1b76:	0e 94 54 12 	call	0x24a8	; 0x24a8 <UART_Transmit_String>
	uint32_t entry_num, clus_num;

	// Experiment 5 Initializations
	// Set up DATA_REQ input
	GPIO_Output_Set(PC,(DATA_REQ));  //#define DATA_REQ (1<<6) Pull_Up_Enable
    1b7a:	60 e4       	ldi	r22, 0x40	; 64
    1b7c:	86 e2       	ldi	r24, 0x26	; 38
    1b7e:	90 e0       	ldi	r25, 0x00	; 0
    1b80:	0e 94 b6 0c 	call	0x196c	; 0x196c <GPIO_Output_Set>
	GPIO_Output_Set(PC,(DATA_REQ));
    1b84:	60 e4       	ldi	r22, 0x40	; 64
    1b86:	86 e2       	ldi	r24, 0x26	; 38
    1b88:	90 e0       	ldi	r25, 0x00	; 0
    1b8a:	0e 94 b6 0c 	call	0x196c	; 0x196c <GPIO_Output_Set>
	// Start_Cluster is passed to this function
	uint32_t sector = First_Sector(0); // 0 is Start_Cluster //replace with curr_dir later
    1b8e:	60 e0       	ldi	r22, 0x00	; 0
    1b90:	70 e0       	ldi	r23, 0x00	; 0
    1b92:	cb 01       	movw	r24, r22
    1b94:	0e 94 81 0c 	call	0x1902	; 0x1902 <First_Sector>
    1b98:	6b 01       	movw	r12, r22
    1b9a:	7c 01       	movw	r14, r24
	uint8_t buf_flag1=1;
	uint8_t buf_flag2=0;
	// Fill both buffers
	uint16_t index1=0;
	uint8_t buffer1[512];
	Read_Sector(sector+sector_offset, 512, buffer1);
    1b9c:	9e 01       	movw	r18, r28
    1b9e:	2f 5f       	subi	r18, 0xFF	; 255
    1ba0:	3d 4f       	sbci	r19, 0xFD	; 253
    1ba2:	40 e0       	ldi	r20, 0x00	; 0
    1ba4:	52 e0       	ldi	r21, 0x02	; 2
    1ba6:	0e 94 70 08 	call	0x10e0	; 0x10e0 <Read_Sector>
	sector_offset++;
	uint16_t index2=0;
	uint8_t buffer2[512];
	Read_Sector(sector+sector_offset, 512, buffer2);
    1baa:	c7 01       	movw	r24, r14
    1bac:	b6 01       	movw	r22, r12
    1bae:	6f 5f       	subi	r22, 0xFF	; 255
    1bb0:	7f 4f       	sbci	r23, 0xFF	; 255
    1bb2:	8f 4f       	sbci	r24, 0xFF	; 255
    1bb4:	9f 4f       	sbci	r25, 0xFF	; 255
    1bb6:	9e 01       	movw	r18, r28
    1bb8:	2f 5f       	subi	r18, 0xFF	; 255
    1bba:	3b 4f       	sbci	r19, 0xFB	; 251
    1bbc:	40 e0       	ldi	r20, 0x00	; 0
    1bbe:	52 e0       	ldi	r21, 0x02	; 2
    1bc0:	0e 94 70 08 	call	0x10e0	; 0x10e0 <Read_Sector>
	sector_offset++;
	uint8_t temp8;
	
	/*uint8_t array[3];*/
	STA013_Master_Init(p_buffer, array);
    1bc4:	be 01       	movw	r22, r28
    1bc6:	6f 5f       	subi	r22, 0xFF	; 255
    1bc8:	7f 4f       	sbci	r23, 0xFF	; 255
    1bca:	80 2f       	mov	r24, r16
    1bcc:	91 2f       	mov	r25, r17
    1bce:	0e 94 e9 10 	call	0x21d2	; 0x21d2 <STA013_Master_Init>
    1bd2:	0f b6       	in	r0, 0x3f	; 63
    1bd4:	f8 94       	cli
    1bd6:	de bf       	out	0x3e, r29	; 62
    1bd8:	0f be       	out	0x3f, r0	; 63
    1bda:	cd bf       	out	0x3d, r28	; 61
	uint32_t sector_offset=0;
	// Flags used to indicate the active buffer
	uint8_t buf_flag1=1;
	uint8_t buf_flag2=0;
	// Fill both buffers
	uint16_t index1=0;
    1bdc:	a1 2c       	mov	r10, r1
    1bde:	b1 2c       	mov	r11, r1
	// Start_Cluster is passed to this function
	uint32_t sector = First_Sector(0); // 0 is Start_Cluster //replace with curr_dir later
	// Used to keep track Sectors in a Cluster
	uint32_t sector_offset=0;
	// Flags used to indicate the active buffer
	uint8_t buf_flag1=1;
    1be0:	77 24       	eor	r7, r7
    1be2:	73 94       	inc	r7
	/*uint8_t array[3];*/
	STA013_Master_Init(p_buffer, array);
	
	while(1){
		// Get number of entries
		uint16_t num_of_entries = Print_Directory(current_dir, array);
    1be4:	ae 01       	movw	r20, r28
    1be6:	4f 5f       	subi	r20, 0xFF	; 255
    1be8:	5f 4f       	sbci	r21, 0xFF	; 255
    1bea:	66 2d       	mov	r22, r6
    1bec:	75 2d       	mov	r23, r5
    1bee:	84 2d       	mov	r24, r4
    1bf0:	93 2d       	mov	r25, r3
    1bf2:	0e 94 a6 08 	call	0x114c	; 0x114c <Print_Directory>
    1bf6:	4c 01       	movw	r8, r24
		sprintf(p_buffer, "\n\rnum_of_entries:0x%X\n\r", num_of_entries);
    1bf8:	9f 92       	push	r9
    1bfa:	8f 93       	push	r24
    1bfc:	88 e9       	ldi	r24, 0x98	; 152
    1bfe:	91 e0       	ldi	r25, 0x01	; 1
    1c00:	9f 93       	push	r25
    1c02:	8f 93       	push	r24
    1c04:	1f 93       	push	r17
    1c06:	0f 93       	push	r16
    1c08:	0e 94 21 13 	call	0x2642	; 0x2642 <sprintf>
		UART_Transmit_String(UART1, 0, p_buffer);
    1c0c:	40 2f       	mov	r20, r16
    1c0e:	51 2f       	mov	r21, r17
    1c10:	60 e0       	ldi	r22, 0x00	; 0
    1c12:	88 ec       	ldi	r24, 0xC8	; 200
    1c14:	90 e0       	ldi	r25, 0x00	; 0
    1c16:	0e 94 54 12 	call	0x24a8	; 0x24a8 <UART_Transmit_String>
    1c1a:	0f 90       	pop	r0
    1c1c:	0f 90       	pop	r0
    1c1e:	0f 90       	pop	r0
    1c20:	0f 90       	pop	r0
    1c22:	0f 90       	pop	r0
    1c24:	0f 90       	pop	r0
		
		// Prompt user for entry number
		do{
			sprintf(p_buffer, "\n\rEnter an entry number:\n\r");
    1c26:	8b e1       	ldi	r24, 0x1B	; 27
    1c28:	e0 eb       	ldi	r30, 0xB0	; 176
    1c2a:	f1 e0       	ldi	r31, 0x01	; 1
    1c2c:	a0 2f       	mov	r26, r16
    1c2e:	b1 2f       	mov	r27, r17
    1c30:	01 90       	ld	r0, Z+
    1c32:	0d 92       	st	X+, r0
    1c34:	8a 95       	dec	r24
    1c36:	e1 f7       	brne	.-8      	; 0x1c30 <main+0x17e>
			UART_Transmit_String(UART1, 0, p_buffer);
    1c38:	40 2f       	mov	r20, r16
    1c3a:	51 2f       	mov	r21, r17
    1c3c:	60 e0       	ldi	r22, 0x00	; 0
    1c3e:	88 ec       	ldi	r24, 0xC8	; 200
    1c40:	90 e0       	ldi	r25, 0x00	; 0
    1c42:	0e 94 54 12 	call	0x24a8	; 0x24a8 <UART_Transmit_String>
			entry_num = Long_Serial_Input(UART1);
    1c46:	88 ec       	ldi	r24, 0xC8	; 200
    1c48:	90 e0       	ldi	r25, 0x00	; 0
    1c4a:	0e 94 c9 0c 	call	0x1992	; 0x1992 <Long_Serial_Input>
    1c4e:	6b 01       	movw	r12, r22
    1c50:	7c 01       	movw	r14, r24
			sprintf(p_buffer, "\n\rThe entry number you entered: 0x%X\n\r", entry_num);
    1c52:	ff 92       	push	r15
    1c54:	ef 92       	push	r14
    1c56:	df 92       	push	r13
    1c58:	6f 93       	push	r22
    1c5a:	8b ec       	ldi	r24, 0xCB	; 203
    1c5c:	91 e0       	ldi	r25, 0x01	; 1
    1c5e:	9f 93       	push	r25
    1c60:	8f 93       	push	r24
    1c62:	1f 93       	push	r17
    1c64:	0f 93       	push	r16
    1c66:	0e 94 21 13 	call	0x2642	; 0x2642 <sprintf>
			UART_Transmit_String(UART1, 0, p_buffer);
    1c6a:	40 2f       	mov	r20, r16
    1c6c:	51 2f       	mov	r21, r17
    1c6e:	60 e0       	ldi	r22, 0x00	; 0
    1c70:	88 ec       	ldi	r24, 0xC8	; 200
    1c72:	90 e0       	ldi	r25, 0x00	; 0
    1c74:	0e 94 54 12 	call	0x24a8	; 0x24a8 <UART_Transmit_String>
		}while(entry_num > num_of_entries);
    1c78:	c4 01       	movw	r24, r8
    1c7a:	a0 e0       	ldi	r26, 0x00	; 0
    1c7c:	b0 e0       	ldi	r27, 0x00	; 0
    1c7e:	0f b6       	in	r0, 0x3f	; 63
    1c80:	f8 94       	cli
    1c82:	de bf       	out	0x3e, r29	; 62
    1c84:	0f be       	out	0x3f, r0	; 63
    1c86:	cd bf       	out	0x3d, r28	; 61
    1c88:	8c 15       	cp	r24, r12
    1c8a:	9d 05       	cpc	r25, r13
    1c8c:	ae 05       	cpc	r26, r14
    1c8e:	bf 05       	cpc	r27, r15
    1c90:	50 f2       	brcs	.-108    	; 0x1c26 <main+0x174>
		
		clus_num = Read_Dir_Entry(current_dir, entry_num, array); // Bit 28: 1 for dir 0 for file // Bit 31: 1 for err
    1c92:	9e 01       	movw	r18, r28
    1c94:	2f 5f       	subi	r18, 0xFF	; 255
    1c96:	3f 4f       	sbci	r19, 0xFF	; 255
    1c98:	a6 01       	movw	r20, r12
    1c9a:	66 2d       	mov	r22, r6
    1c9c:	75 2d       	mov	r23, r5
    1c9e:	84 2d       	mov	r24, r4
    1ca0:	93 2d       	mov	r25, r3
    1ca2:	0e 94 cf 09 	call	0x139e	; 0x139e <Read_Dir_Entry>
		
		// If dir
		if((clus_num & 0x10000000) == 0x10000000){
    1ca6:	94 ff       	sbrs	r25, 4
    1ca8:	07 c0       	rjmp	.+14     	; 0x1cb8 <main+0x206>
			current_dir = First_Sector(clus_num);
    1caa:	0e 94 81 0c 	call	0x1902	; 0x1902 <First_Sector>
    1cae:	66 2e       	mov	r6, r22
    1cb0:	57 2e       	mov	r5, r23
    1cb2:	48 2e       	mov	r4, r24
    1cb4:	39 2e       	mov	r3, r25
    1cb6:	96 cf       	rjmp	.-212    	; 0x1be4 <main+0x132>
		// If file
		else{
			//Print_File(clus_num, array);
			
			do{
				temp8=Read_Pin(PC,(DATA_REQ));
    1cb8:	60 e4       	ldi	r22, 0x40	; 64
    1cba:	86 e2       	ldi	r24, 0x26	; 38
    1cbc:	90 e0       	ldi	r25, 0x00	; 0
    1cbe:	0e 94 c1 0c 	call	0x1982	; 0x1982 <Read_Pin>
				if(temp8==0)
    1cc2:	81 11       	cpse	r24, r1
    1cc4:	24 c0       	rjmp	.+72     	; 0x1d0e <main+0x25c>
				{
					GPIO_Output_Set(PD,(BIT_EN));   //#define BIT_EN (1<<6)
    1cc6:	60 e4       	ldi	r22, 0x40	; 64
    1cc8:	89 e2       	ldi	r24, 0x29	; 41
    1cca:	90 e0       	ldi	r25, 0x00	; 0
    1ccc:	0e 94 b6 0c 	call	0x196c	; 0x196c <GPIO_Output_Set>
					SPI_Transfer(SPI0_base,buffer1[index1]);
    1cd0:	e1 e0       	ldi	r30, 0x01	; 1
    1cd2:	f2 e0       	ldi	r31, 0x02	; 2
    1cd4:	ec 0f       	add	r30, r28
    1cd6:	fd 1f       	adc	r31, r29
    1cd8:	ea 0d       	add	r30, r10
    1cda:	fb 1d       	adc	r31, r11
    1cdc:	60 81       	ld	r22, Z
    1cde:	8c e4       	ldi	r24, 0x4C	; 76
    1ce0:	90 e0       	ldi	r25, 0x00	; 0
    1ce2:	0e 94 e2 10 	call	0x21c4	; 0x21c4 <SPI_Transfer>
					GPIO_Output_Clear(PD,(BIT_EN));
    1ce6:	60 e4       	ldi	r22, 0x40	; 64
    1ce8:	89 e2       	ldi	r24, 0x29	; 41
    1cea:	90 e0       	ldi	r25, 0x00	; 0
    1cec:	0e 94 bb 0c 	call	0x1976	; 0x1976 <GPIO_Output_Clear>
					index1++;
    1cf0:	3f ef       	ldi	r19, 0xFF	; 255
    1cf2:	a3 1a       	sub	r10, r19
    1cf4:	b3 0a       	sbc	r11, r19
					if(index1>511)
    1cf6:	a1 14       	cp	r10, r1
    1cf8:	82 e0       	ldi	r24, 0x02	; 2
    1cfa:	b8 06       	cpc	r11, r24
    1cfc:	28 f4       	brcc	.+10     	; 0x1d08 <main+0x256>
							Read_Sector(sector+sector_offset, 512, buffer2);
							sector_offset++;
						}
						else
						{
							if(index1>511)
    1cfe:	a1 14       	cp	r10, r1
    1d00:	92 e0       	ldi	r25, 0x02	; 2
    1d02:	b9 06       	cpc	r11, r25
    1d04:	18 f4       	brcc	.+6      	; 0x1d0c <main+0x25a>
    1d06:	03 c0       	rjmp	.+6      	; 0x1d0e <main+0x25c>
						{
							index2=0;
							Read_Sector(sector+sector_offset, 512, buffer2);
							sector_offset++;
						}
						buf_flag1=0;
    1d08:	71 2c       	mov	r7, r1
    1d0a:	01 c0       	rjmp	.+2      	; 0x1d0e <main+0x25c>
						}
						else
						{
							if(index1>511)
							{
								buf_flag1=0;
    1d0c:	71 2c       	mov	r7, r1
								buf_flag2=1;
							}
						}
					}
				}
			}while(buf_flag1==1);
    1d0e:	21 e0       	ldi	r18, 0x01	; 1
    1d10:	72 16       	cp	r7, r18
    1d12:	91 f2       	breq	.-92     	; 0x1cb8 <main+0x206>
    1d14:	67 cf       	rjmp	.-306    	; 0x1be4 <main+0x132>

00001d16 <SD_CS_active>:
#define Standard_Capacity (9)

static uint8_t SD_Card_Type_g;

void SD_CS_active (volatile GPIO_t *port, uint8_t pin){
	GPIO_Output_Clear(port, pin);
    1d16:	70 e0       	ldi	r23, 0x00	; 0
    1d18:	0e 94 bb 0c 	call	0x1976	; 0x1976 <GPIO_Output_Clear>
    1d1c:	08 95       	ret

00001d1e <SD_CS_inactive>:
}

void SD_CS_inactive (volatile GPIO_t *port, uint8_t pin){
	GPIO_Output_Set(port, pin);
    1d1e:	70 e0       	ldi	r23, 0x00	; 0
    1d20:	0e 94 b6 0c 	call	0x196c	; 0x196c <GPIO_Output_Set>
    1d24:	08 95       	ret

00001d26 <Read_Block>:
		}
	}
	return error_status;
}

uint8_t Read_Block (uint16_t number_of_bytes, uint8_t * array){
    1d26:	ef 92       	push	r14
    1d28:	ff 92       	push	r15
    1d2a:	0f 93       	push	r16
    1d2c:	1f 93       	push	r17
    1d2e:	cf 93       	push	r28
    1d30:	df 93       	push	r29
    1d32:	8c 01       	movw	r16, r24
    1d34:	7b 01       	movw	r14, r22
	uint8_t rcvd_value;
	uint16_t timeout = 0;
    1d36:	c0 e0       	ldi	r28, 0x00	; 0
    1d38:	d0 e0       	ldi	r29, 0x00	; 0
	uint8_t error_flag;
	do{
		rcvd_value = SPI_Transfer(SPI0_base, 0xFF);
    1d3a:	6f ef       	ldi	r22, 0xFF	; 255
    1d3c:	8c e4       	ldi	r24, 0x4C	; 76
    1d3e:	90 e0       	ldi	r25, 0x00	; 0
    1d40:	0e 94 e2 10 	call	0x21c4	; 0x21c4 <SPI_Transfer>
		timeout++;
    1d44:	21 96       	adiw	r28, 0x01	; 1
	}while(rcvd_value == 0xFF && timeout != 0);
    1d46:	8f 3f       	cpi	r24, 0xFF	; 255
    1d48:	11 f4       	brne	.+4      	; 0x1d4e <Read_Block+0x28>
    1d4a:	20 97       	sbiw	r28, 0x00	; 0
    1d4c:	b1 f7       	brne	.-20     	; 0x1d3a <Read_Block+0x14>
	
	if(rcvd_value == 0x00){
    1d4e:	81 11       	cpse	r24, r1
    1d50:	2b c0       	rjmp	.+86     	; 0x1da8 <Read_Block+0x82>
		do{
			rcvd_value = SPI_Transfer(SPI0_base, 0xFF);
    1d52:	6f ef       	ldi	r22, 0xFF	; 255
    1d54:	8c e4       	ldi	r24, 0x4C	; 76
    1d56:	90 e0       	ldi	r25, 0x00	; 0
    1d58:	0e 94 e2 10 	call	0x21c4	; 0x21c4 <SPI_Transfer>
		}while(rcvd_value == 0xFF);
    1d5c:	8f 3f       	cpi	r24, 0xFF	; 255
    1d5e:	c9 f3       	breq	.-14     	; 0x1d52 <Read_Block+0x2c>
		
		if(rcvd_value == 0xFE){
    1d60:	8e 3f       	cpi	r24, 0xFE	; 254
    1d62:	01 f5       	brne	.+64     	; 0x1da4 <Read_Block+0x7e>
    1d64:	0b c0       	rjmp	.+22     	; 0x1d7c <Read_Block+0x56>
			for(uint16_t index = 0; index < number_of_bytes; index++){
				rcvd_value = SPI_Transfer(SPI0_base, 0xFF);
    1d66:	6f ef       	ldi	r22, 0xFF	; 255
    1d68:	8c e4       	ldi	r24, 0x4C	; 76
    1d6a:	90 e0       	ldi	r25, 0x00	; 0
    1d6c:	0e 94 e2 10 	call	0x21c4	; 0x21c4 <SPI_Transfer>
				array[index] = rcvd_value;
    1d70:	f7 01       	movw	r30, r14
    1d72:	ec 0f       	add	r30, r28
    1d74:	fd 1f       	adc	r31, r29
    1d76:	80 83       	st	Z, r24
		do{
			rcvd_value = SPI_Transfer(SPI0_base, 0xFF);
		}while(rcvd_value == 0xFF);
		
		if(rcvd_value == 0xFE){
			for(uint16_t index = 0; index < number_of_bytes; index++){
    1d78:	21 96       	adiw	r28, 0x01	; 1
    1d7a:	02 c0       	rjmp	.+4      	; 0x1d80 <Read_Block+0x5a>
    1d7c:	c0 e0       	ldi	r28, 0x00	; 0
    1d7e:	d0 e0       	ldi	r29, 0x00	; 0
    1d80:	c0 17       	cp	r28, r16
    1d82:	d1 07       	cpc	r29, r17
    1d84:	80 f3       	brcs	.-32     	; 0x1d66 <Read_Block+0x40>
				rcvd_value = SPI_Transfer(SPI0_base, 0xFF);
				array[index] = rcvd_value;
			}
			
			// Read and discard
			rcvd_value = SPI_Transfer(SPI0_base, 0xFF);
    1d86:	6f ef       	ldi	r22, 0xFF	; 255
    1d88:	8c e4       	ldi	r24, 0x4C	; 76
    1d8a:	90 e0       	ldi	r25, 0x00	; 0
    1d8c:	0e 94 e2 10 	call	0x21c4	; 0x21c4 <SPI_Transfer>
			rcvd_value = SPI_Transfer(SPI0_base, 0xFF);
    1d90:	6f ef       	ldi	r22, 0xFF	; 255
    1d92:	8c e4       	ldi	r24, 0x4C	; 76
    1d94:	90 e0       	ldi	r25, 0x00	; 0
    1d96:	0e 94 e2 10 	call	0x21c4	; 0x21c4 <SPI_Transfer>
			rcvd_value = SPI_Transfer(SPI0_base, 0xFF);
    1d9a:	6f ef       	ldi	r22, 0xFF	; 255
    1d9c:	8c e4       	ldi	r24, 0x4C	; 76
    1d9e:	90 e0       	ldi	r25, 0x00	; 0
    1da0:	0e 94 e2 10 	call	0x21c4	; 0x21c4 <SPI_Transfer>
		}
		return 0;
    1da4:	80 e0       	ldi	r24, 0x00	; 0
    1da6:	00 c0       	rjmp	.+0      	; 0x1da8 <Read_Block+0x82>
	}
}
    1da8:	df 91       	pop	r29
    1daa:	cf 91       	pop	r28
    1dac:	1f 91       	pop	r17
    1dae:	0f 91       	pop	r16
    1db0:	ff 90       	pop	r15
    1db2:	ef 90       	pop	r14
    1db4:	08 95       	ret

00001db6 <Send_Command>:

uint8_t Send_Command (uint8_t command, uint32_t argument){
    1db6:	cf 92       	push	r12
    1db8:	df 92       	push	r13
    1dba:	ef 92       	push	r14
    1dbc:	ff 92       	push	r15
    1dbe:	cf 93       	push	r28
    1dc0:	df 93       	push	r29
	uint8_t return_value = 0x00;
	uint8_t illegal_command = 0xFF;
	uint8_t send_value;
	
	if(command < 64){
    1dc2:	80 34       	cpi	r24, 0x40	; 64
    1dc4:	a0 f5       	brcc	.+104    	; 0x1e2e <Send_Command+0x78>
    1dc6:	6a 01       	movw	r12, r20
    1dc8:	7b 01       	movw	r14, r22
    1dca:	d8 2f       	mov	r29, r24
	else{
		return_value = illegal_command;
		return return_value;
	}
	
	send_value = 0x40 | command;
    1dcc:	68 2f       	mov	r22, r24
    1dce:	60 64       	ori	r22, 0x40	; 64
	SPI_Transfer(SD_SPI_port, send_value);
    1dd0:	8c e4       	ldi	r24, 0x4C	; 76
    1dd2:	90 e0       	ldi	r25, 0x00	; 0
    1dd4:	0e 94 e2 10 	call	0x21c4	; 0x21c4 <SPI_Transfer>
	for(uint8_t index = 0; index < 4; index++){
    1dd8:	c0 e0       	ldi	r28, 0x00	; 0
    1dda:	18 c0       	rjmp	.+48     	; 0x1e0c <Send_Command+0x56>
		send_value = (uint8_t)(argument >> (24 - (index * 8)));
    1ddc:	23 e0       	ldi	r18, 0x03	; 3
    1dde:	30 e0       	ldi	r19, 0x00	; 0
    1de0:	2c 1b       	sub	r18, r28
    1de2:	31 09       	sbc	r19, r1
    1de4:	22 0f       	add	r18, r18
    1de6:	33 1f       	adc	r19, r19
    1de8:	22 0f       	add	r18, r18
    1dea:	33 1f       	adc	r19, r19
    1dec:	22 0f       	add	r18, r18
    1dee:	33 1f       	adc	r19, r19
    1df0:	c7 01       	movw	r24, r14
    1df2:	b6 01       	movw	r22, r12
    1df4:	04 c0       	rjmp	.+8      	; 0x1dfe <Send_Command+0x48>
    1df6:	96 95       	lsr	r25
    1df8:	87 95       	ror	r24
    1dfa:	77 95       	ror	r23
    1dfc:	67 95       	ror	r22
    1dfe:	2a 95       	dec	r18
    1e00:	d2 f7       	brpl	.-12     	; 0x1df6 <Send_Command+0x40>
		SPI_Transfer(SD_SPI_port, send_value);
    1e02:	8c e4       	ldi	r24, 0x4C	; 76
    1e04:	90 e0       	ldi	r25, 0x00	; 0
    1e06:	0e 94 e2 10 	call	0x21c4	; 0x21c4 <SPI_Transfer>
		return return_value;
	}
	
	send_value = 0x40 | command;
	SPI_Transfer(SD_SPI_port, send_value);
	for(uint8_t index = 0; index < 4; index++){
    1e0a:	cf 5f       	subi	r28, 0xFF	; 255
    1e0c:	c4 30       	cpi	r28, 0x04	; 4
    1e0e:	30 f3       	brcs	.-52     	; 0x1ddc <Send_Command+0x26>
		send_value = (uint8_t)(argument >> (24 - (index * 8)));
		SPI_Transfer(SD_SPI_port, send_value);
	}
	
	if(command == 0){
    1e10:	dd 23       	and	r29, r29
    1e12:	21 f0       	breq	.+8      	; 0x1e1c <Send_Command+0x66>
		send_value = 0x95;
	}
	else if (command == 8){
    1e14:	d8 30       	cpi	r29, 0x08	; 8
    1e16:	21 f4       	brne	.+8      	; 0x1e20 <Send_Command+0x6a>
		send_value = 0x87;
    1e18:	67 e8       	ldi	r22, 0x87	; 135
    1e1a:	03 c0       	rjmp	.+6      	; 0x1e22 <Send_Command+0x6c>
		send_value = (uint8_t)(argument >> (24 - (index * 8)));
		SPI_Transfer(SD_SPI_port, send_value);
	}
	
	if(command == 0){
		send_value = 0x95;
    1e1c:	65 e9       	ldi	r22, 0x95	; 149
    1e1e:	01 c0       	rjmp	.+2      	; 0x1e22 <Send_Command+0x6c>
	}
	else if (command == 8){
		send_value = 0x87;
	}
	else{
		send_value = 0x01;
    1e20:	61 e0       	ldi	r22, 0x01	; 1
	}
	
	SPI_Transfer(SD_SPI_port, send_value);
    1e22:	8c e4       	ldi	r24, 0x4C	; 76
    1e24:	90 e0       	ldi	r25, 0x00	; 0
    1e26:	0e 94 e2 10 	call	0x21c4	; 0x21c4 <SPI_Transfer>
	return return_value;
    1e2a:	80 e0       	ldi	r24, 0x00	; 0
    1e2c:	01 c0       	rjmp	.+2      	; 0x1e30 <Send_Command+0x7a>
	if(command < 64){
		return_value = no_errors;
	}
	else{
		return_value = illegal_command;
		return return_value;
    1e2e:	8f ef       	ldi	r24, 0xFF	; 255
		send_value = 0x01;
	}
	
	SPI_Transfer(SD_SPI_port, send_value);
	return return_value;
}
    1e30:	df 91       	pop	r29
    1e32:	cf 91       	pop	r28
    1e34:	ff 90       	pop	r15
    1e36:	ef 90       	pop	r14
    1e38:	df 90       	pop	r13
    1e3a:	cf 90       	pop	r12
    1e3c:	08 95       	ret

00001e3e <Receive_Response>:

uint8_t Receive_Response (uint8_t number_of_bytes, uint8_t * array_name) {
    1e3e:	ff 92       	push	r15
    1e40:	0f 93       	push	r16
    1e42:	1f 93       	push	r17
    1e44:	cf 93       	push	r28
    1e46:	df 93       	push	r29
    1e48:	f8 2e       	mov	r15, r24
    1e4a:	8b 01       	movw	r16, r22
	uint8_t return_value = no_errors;
	uint8_t SPI_timeout_error = 0xFA;
	uint8_t SD_comm_error = 0xFE;
	uint8_t timeout = 0;
    1e4c:	c0 e0       	ldi	r28, 0x00	; 0
	uint8_t rcvd_value;
	
	do{
		rcvd_value = SPI_Transfer(SD_SPI_port, 0xFF);
    1e4e:	6f ef       	ldi	r22, 0xFF	; 255
    1e50:	8c e4       	ldi	r24, 0x4C	; 76
    1e52:	90 e0       	ldi	r25, 0x00	; 0
    1e54:	0e 94 e2 10 	call	0x21c4	; 0x21c4 <SPI_Transfer>
		timeout++;
    1e58:	cf 5f       	subi	r28, 0xFF	; 255
	}while((rcvd_value == 0xFF) && (timeout != 0));
    1e5a:	8f 3f       	cpi	r24, 0xFF	; 255
    1e5c:	11 f4       	brne	.+4      	; 0x1e62 <Receive_Response+0x24>
    1e5e:	c1 11       	cpse	r28, r1
    1e60:	f6 cf       	rjmp	.-20     	; 0x1e4e <Receive_Response+0x10>
	
	if(timeout == 0){
    1e62:	cc 23       	and	r28, r28
    1e64:	11 f1       	breq	.+68     	; 0x1eaa <Receive_Response+0x6c>
		return_value = SPI_timeout_error;
	}
	else if ((rcvd_value & 0xFE) != 0x00){
    1e66:	98 2f       	mov	r25, r24
    1e68:	9e 7f       	andi	r25, 0xFE	; 254
    1e6a:	21 f0       	breq	.+8      	; 0x1e74 <Receive_Response+0x36>
		*array_name = rcvd_value;
    1e6c:	f8 01       	movw	r30, r16
    1e6e:	80 83       	st	Z, r24
		return_value = SD_comm_error;
    1e70:	ce ef       	ldi	r28, 0xFE	; 254
    1e72:	1c c0       	rjmp	.+56     	; 0x1eac <Receive_Response+0x6e>
	}
	else{
		*array_name = rcvd_value;
    1e74:	f8 01       	movw	r30, r16
    1e76:	80 83       	st	Z, r24
		if(number_of_bytes > 1){
    1e78:	f1 e0       	ldi	r31, 0x01	; 1
    1e7a:	ff 15       	cp	r31, r15
    1e7c:	68 f0       	brcs	.+26     	; 0x1e98 <Receive_Response+0x5a>
	SPI_Transfer(SD_SPI_port, send_value);
	return return_value;
}

uint8_t Receive_Response (uint8_t number_of_bytes, uint8_t * array_name) {
	uint8_t return_value = no_errors;
    1e7e:	c0 e0       	ldi	r28, 0x00	; 0
    1e80:	15 c0       	rjmp	.+42     	; 0x1eac <Receive_Response+0x6e>
	}
	else{
		*array_name = rcvd_value;
		if(number_of_bytes > 1){
			for(uint16_t index = 1; index < number_of_bytes; index++){
				rcvd_value = SPI_Transfer(SD_SPI_port, 0xFF);
    1e82:	6f ef       	ldi	r22, 0xFF	; 255
    1e84:	8c e4       	ldi	r24, 0x4C	; 76
    1e86:	90 e0       	ldi	r25, 0x00	; 0
    1e88:	0e 94 e2 10 	call	0x21c4	; 0x21c4 <SPI_Transfer>
				*(array_name + index) = rcvd_value;
    1e8c:	f8 01       	movw	r30, r16
    1e8e:	ec 0f       	add	r30, r28
    1e90:	fd 1f       	adc	r31, r29
    1e92:	80 83       	st	Z, r24
		return_value = SD_comm_error;
	}
	else{
		*array_name = rcvd_value;
		if(number_of_bytes > 1){
			for(uint16_t index = 1; index < number_of_bytes; index++){
    1e94:	21 96       	adiw	r28, 0x01	; 1
    1e96:	02 c0       	rjmp	.+4      	; 0x1e9c <Receive_Response+0x5e>
    1e98:	c1 e0       	ldi	r28, 0x01	; 1
    1e9a:	d0 e0       	ldi	r29, 0x00	; 0
    1e9c:	8f 2d       	mov	r24, r15
    1e9e:	90 e0       	ldi	r25, 0x00	; 0
    1ea0:	c8 17       	cp	r28, r24
    1ea2:	d9 07       	cpc	r29, r25
    1ea4:	70 f3       	brcs	.-36     	; 0x1e82 <Receive_Response+0x44>
	SPI_Transfer(SD_SPI_port, send_value);
	return return_value;
}

uint8_t Receive_Response (uint8_t number_of_bytes, uint8_t * array_name) {
	uint8_t return_value = no_errors;
    1ea6:	c0 e0       	ldi	r28, 0x00	; 0
    1ea8:	01 c0       	rjmp	.+2      	; 0x1eac <Receive_Response+0x6e>
		rcvd_value = SPI_Transfer(SD_SPI_port, 0xFF);
		timeout++;
	}while((rcvd_value == 0xFF) && (timeout != 0));
	
	if(timeout == 0){
		return_value = SPI_timeout_error;
    1eaa:	ca ef       	ldi	r28, 0xFA	; 250
				rcvd_value = SPI_Transfer(SD_SPI_port, 0xFF);
				*(array_name + index) = rcvd_value;
			}
		}
	}
	rcvd_value = SPI_Transfer(SD_SPI_port, 0xFF);
    1eac:	6f ef       	ldi	r22, 0xFF	; 255
    1eae:	8c e4       	ldi	r24, 0x4C	; 76
    1eb0:	90 e0       	ldi	r25, 0x00	; 0
    1eb2:	0e 94 e2 10 	call	0x21c4	; 0x21c4 <SPI_Transfer>
	return return_value;
    1eb6:	8c 2f       	mov	r24, r28
    1eb8:	df 91       	pop	r29
    1eba:	cf 91       	pop	r28
    1ebc:	1f 91       	pop	r17
    1ebe:	0f 91       	pop	r16
    1ec0:	ff 90       	pop	r15
    1ec2:	08 95       	ret

00001ec4 <SD_Card_Init>:

void SD_CS_inactive (volatile GPIO_t *port, uint8_t pin){
	GPIO_Output_Set(port, pin);
}

uint8_t SD_Card_Init (void){
    1ec4:	ff 92       	push	r15
    1ec6:	0f 93       	push	r16
    1ec8:	1f 93       	push	r17
    1eca:	cf 93       	push	r28
    1ecc:	df 93       	push	r29
    1ece:	00 d0       	rcall	.+0      	; 0x1ed0 <SD_Card_Init+0xc>
    1ed0:	00 d0       	rcall	.+0      	; 0x1ed2 <SD_Card_Init+0xe>
    1ed2:	1f 92       	push	r1
    1ed4:	cd b7       	in	r28, 0x3d	; 61
    1ed6:	de b7       	in	r29, 0x3e	; 62
	uint8_t error_flag = no_errors;
	uint8_t rec_array[5];
	uint8_t ACMD41_arg;
	uint8_t timeout = 0;
	
	GPIO_Output_Init(SD_CS_port, SD_CS_pin);
    1ed8:	60 e1       	ldi	r22, 0x10	; 16
    1eda:	70 e0       	ldi	r23, 0x00	; 0
    1edc:	83 e2       	ldi	r24, 0x23	; 35
    1ede:	90 e0       	ldi	r25, 0x00	; 0
    1ee0:	0e 94 b1 0c 	call	0x1962	; 0x1962 <GPIO_Output_Init>
	
	if(error_status == no_errors){ //
		SD_CS_inactive(SD_CS_port, SD_CS_pin);
    1ee4:	60 e1       	ldi	r22, 0x10	; 16
    1ee6:	83 e2       	ldi	r24, 0x23	; 35
    1ee8:	90 e0       	ldi	r25, 0x00	; 0
    1eea:	0e 94 8f 0e 	call	0x1d1e	; 0x1d1e <SD_CS_inactive>
	
		SPI_Master_Init(SD_SPI_port, 400000UL);
    1eee:	40 e8       	ldi	r20, 0x80	; 128
    1ef0:	5a e1       	ldi	r21, 0x1A	; 26
    1ef2:	66 e0       	ldi	r22, 0x06	; 6
    1ef4:	70 e0       	ldi	r23, 0x00	; 0
    1ef6:	8c e4       	ldi	r24, 0x4C	; 76
    1ef8:	90 e0       	ldi	r25, 0x00	; 0
    1efa:	0e 94 5b 10 	call	0x20b6	; 0x20b6 <SPI_Master_Init>
		// Send at least 74 SCK pulses
		for(uint8_t i = 0; i < 10; i++){
    1efe:	10 e0       	ldi	r17, 0x00	; 0
    1f00:	06 c0       	rjmp	.+12     	; 0x1f0e <SD_Card_Init+0x4a>
			SPI_Transfer(SPI0_base, 0xFF);
    1f02:	6f ef       	ldi	r22, 0xFF	; 255
    1f04:	8c e4       	ldi	r24, 0x4C	; 76
    1f06:	90 e0       	ldi	r25, 0x00	; 0
    1f08:	0e 94 e2 10 	call	0x21c4	; 0x21c4 <SPI_Transfer>
	if(error_status == no_errors){ //
		SD_CS_inactive(SD_CS_port, SD_CS_pin);
	
		SPI_Master_Init(SD_SPI_port, 400000UL);
		// Send at least 74 SCK pulses
		for(uint8_t i = 0; i < 10; i++){
    1f0c:	1f 5f       	subi	r17, 0xFF	; 255
    1f0e:	1a 30       	cpi	r17, 0x0A	; 10
    1f10:	c0 f3       	brcs	.-16     	; 0x1f02 <SD_Card_Init+0x3e>
		}
	}
	
	// CMD0
	if(error_status == no_errors){
		SD_CS_active(SD_CS_port, SD_CS_pin);
    1f12:	60 e1       	ldi	r22, 0x10	; 16
    1f14:	83 e2       	ldi	r24, 0x23	; 35
    1f16:	90 e0       	ldi	r25, 0x00	; 0
    1f18:	0e 94 8b 0e 	call	0x1d16	; 0x1d16 <SD_CS_active>
		error_flag = Send_Command(0, 0x00000000);
    1f1c:	40 e0       	ldi	r20, 0x00	; 0
    1f1e:	50 e0       	ldi	r21, 0x00	; 0
    1f20:	ba 01       	movw	r22, r20
    1f22:	80 e0       	ldi	r24, 0x00	; 0
    1f24:	0e 94 db 0e 	call	0x1db6	; 0x1db6 <Send_Command>
    1f28:	18 2f       	mov	r17, r24
		error_status = error_flag;	
		if(error_flag != 0x01){
    1f2a:	81 30       	cpi	r24, 0x01	; 1
    1f2c:	39 f0       	breq	.+14     	; 0x1f3c <SD_Card_Init+0x78>
			error_flag = Receive_Response(1, rec_array); //5 after c8 C58
    1f2e:	be 01       	movw	r22, r28
    1f30:	6f 5f       	subi	r22, 0xFF	; 255
    1f32:	7f 4f       	sbci	r23, 0xFF	; 255
    1f34:	81 e0       	ldi	r24, 0x01	; 1
    1f36:	0e 94 1f 0f 	call	0x1e3e	; 0x1e3e <Receive_Response>
    1f3a:	18 2f       	mov	r17, r24
		}
		SD_CS_inactive(SD_CS_port, SD_CS_pin);
    1f3c:	60 e1       	ldi	r22, 0x10	; 16
    1f3e:	83 e2       	ldi	r24, 0x23	; 35
    1f40:	90 e0       	ldi	r25, 0x00	; 0
    1f42:	0e 94 8f 0e 	call	0x1d1e	; 0x1d1e <SD_CS_inactive>
		error_status = error_flag;
	}
	
	// CMD8
	if(error_status == no_errors){
    1f46:	11 11       	cpse	r17, r1
    1f48:	2e c0       	rjmp	.+92     	; 0x1fa6 <SD_Card_Init+0xe2>
		SD_CS_active(SD_CS_port, SD_CS_pin);
    1f4a:	60 e1       	ldi	r22, 0x10	; 16
    1f4c:	83 e2       	ldi	r24, 0x23	; 35
    1f4e:	90 e0       	ldi	r25, 0x00	; 0
    1f50:	0e 94 8b 0e 	call	0x1d16	; 0x1d16 <SD_CS_active>
		error_flag = Send_Command(8, 0x000001AA);
    1f54:	4a ea       	ldi	r20, 0xAA	; 170
    1f56:	51 e0       	ldi	r21, 0x01	; 1
    1f58:	60 e0       	ldi	r22, 0x00	; 0
    1f5a:	70 e0       	ldi	r23, 0x00	; 0
    1f5c:	88 e0       	ldi	r24, 0x08	; 8
    1f5e:	0e 94 db 0e 	call	0x1db6	; 0x1db6 <Send_Command>
    1f62:	08 2f       	mov	r16, r24
		if(error_flag == no_errors){ //Check if R1 is not 0x01 (error)
    1f64:	81 11       	cpse	r24, r1
    1f66:	07 c0       	rjmp	.+14     	; 0x1f76 <SD_Card_Init+0xb2>
			error_flag = Receive_Response(5, rec_array);
    1f68:	be 01       	movw	r22, r28
    1f6a:	6f 5f       	subi	r22, 0xFF	; 255
    1f6c:	7f 4f       	sbci	r23, 0xFF	; 255
    1f6e:	85 e0       	ldi	r24, 0x05	; 5
    1f70:	0e 94 1f 0f 	call	0x1e3e	; 0x1e3e <Receive_Response>
    1f74:	08 2f       	mov	r16, r24
		}
		SD_CS_inactive(SD_CS_port, SD_CS_pin);
    1f76:	60 e1       	ldi	r22, 0x10	; 16
    1f78:	83 e2       	ldi	r24, 0x23	; 35
    1f7a:	90 e0       	ldi	r25, 0x00	; 0
    1f7c:	0e 94 8f 0e 	call	0x1d1e	; 0x1d1e <SD_CS_inactive>
		if((error_flag == no_errors) && (rec_array[0] == 0x01)){ //Is 0x00 when we want it to be 0x01
    1f80:	01 11       	cpse	r16, r1
    1f82:	0b c0       	rjmp	.+22     	; 0x1f9a <SD_Card_Init+0xd6>
    1f84:	89 81       	ldd	r24, Y+1	; 0x01
    1f86:	81 30       	cpi	r24, 0x01	; 1
    1f88:	41 f4       	brne	.+16     	; 0x1f9a <SD_Card_Init+0xd6>
			if((rec_array[3] == 0x01) && (rec_array[4] == 0xAA)){ //Not entering if when should be!
    1f8a:	8c 81       	ldd	r24, Y+4	; 0x04
    1f8c:	81 30       	cpi	r24, 0x01	; 1
    1f8e:	51 f4       	brne	.+20     	; 0x1fa4 <SD_Card_Init+0xe0>
    1f90:	8d 81       	ldd	r24, Y+5	; 0x05
    1f92:	8a 3a       	cpi	r24, 0xAA	; 170
    1f94:	41 f0       	breq	.+16     	; 0x1fa6 <SD_Card_Init+0xe2>
				ACMD41_arg = 0x40000000; // High-Capacity Support
				SD_Card_Type_g = High_Capacity;
			}
			else{
				error_status = incompatible_voltage;
    1f96:	1d ef       	ldi	r17, 0xFD	; 253
    1f98:	06 c0       	rjmp	.+12     	; 0x1fa6 <SD_Card_Init+0xe2>
			}
		}
		else if(rec_array[0] == 0x05){
    1f9a:	89 81       	ldd	r24, Y+1	; 0x01
    1f9c:	85 30       	cpi	r24, 0x05	; 5
    1f9e:	19 f0       	breq	.+6      	; 0x1fa6 <SD_Card_Init+0xe2>
			error_status = no_errors;
			ACMD41_arg = 0x00000000;
			SD_Card_Type_g = Standard_Capacity;
		}
		else{
			error_status = error_flag;
    1fa0:	10 2f       	mov	r17, r16
    1fa2:	01 c0       	rjmp	.+2      	; 0x1fa6 <SD_Card_Init+0xe2>
			if((rec_array[3] == 0x01) && (rec_array[4] == 0xAA)){ //Not entering if when should be!
				ACMD41_arg = 0x40000000; // High-Capacity Support
				SD_Card_Type_g = High_Capacity;
			}
			else{
				error_status = incompatible_voltage;
    1fa4:	1d ef       	ldi	r17, 0xFD	; 253
			error_status = error_flag;
		}
	}
	
	// CMD58
	if(error_status == no_errors){
    1fa6:	11 11       	cpse	r17, r1
    1fa8:	18 c0       	rjmp	.+48     	; 0x1fda <SD_Card_Init+0x116>
		SD_CS_active(SD_CS_port, SD_CS_pin);
    1faa:	60 e1       	ldi	r22, 0x10	; 16
    1fac:	83 e2       	ldi	r24, 0x23	; 35
    1fae:	90 e0       	ldi	r25, 0x00	; 0
    1fb0:	0e 94 8b 0e 	call	0x1d16	; 0x1d16 <SD_CS_active>
		error_flag = Send_Command(58, 0x00000000);
    1fb4:	40 e0       	ldi	r20, 0x00	; 0
    1fb6:	50 e0       	ldi	r21, 0x00	; 0
    1fb8:	ba 01       	movw	r22, r20
    1fba:	8a e3       	ldi	r24, 0x3A	; 58
    1fbc:	0e 94 db 0e 	call	0x1db6	; 0x1db6 <Send_Command>
		if(error_flag == no_errors){ //Check if R1 is not 0x01 (error)
    1fc0:	81 11       	cpse	r24, r1
    1fc2:	06 c0       	rjmp	.+12     	; 0x1fd0 <SD_Card_Init+0x10c>
			error_flag = Receive_Response(5, rec_array);
    1fc4:	be 01       	movw	r22, r28
    1fc6:	6f 5f       	subi	r22, 0xFF	; 255
    1fc8:	7f 4f       	sbci	r23, 0xFF	; 255
    1fca:	85 e0       	ldi	r24, 0x05	; 5
    1fcc:	0e 94 1f 0f 	call	0x1e3e	; 0x1e3e <Receive_Response>
		}
		SD_CS_inactive(SD_CS_port, SD_CS_pin);
    1fd0:	60 e1       	ldi	r22, 0x10	; 16
    1fd2:	83 e2       	ldi	r24, 0x23	; 35
    1fd4:	90 e0       	ldi	r25, 0x00	; 0
    1fd6:	0e 94 8f 0e 	call	0x1d1e	; 0x1d1e <SD_CS_inactive>
			}
		}
	}
	
	// ACMD41 -------------Issue should be 69 40 not 69 00 on second round, first row
	if(error_status == no_errors){
    1fda:	11 11       	cpse	r17, r1
    1fdc:	3c c0       	rjmp	.+120    	; 0x2056 <SD_Card_Init+0x192>
		SD_CS_active(SD_CS_port, SD_CS_pin);
    1fde:	60 e1       	ldi	r22, 0x10	; 16
    1fe0:	83 e2       	ldi	r24, 0x23	; 35
    1fe2:	90 e0       	ldi	r25, 0x00	; 0
    1fe4:	0e 94 8b 0e 	call	0x1d16	; 0x1d16 <SD_CS_active>
    1fe8:	f1 2e       	mov	r15, r17
uint8_t SD_Card_Init (void){
	uint8_t error_status = no_errors;
	uint8_t error_flag = no_errors;
	uint8_t rec_array[5];
	uint8_t ACMD41_arg;
	uint8_t timeout = 0;
    1fea:	00 e0       	ldi	r16, 0x00	; 0
	// ACMD41 -------------Issue should be 69 40 not 69 00 on second round, first row
	if(error_status == no_errors){
		SD_CS_active(SD_CS_port, SD_CS_pin);
		
		do{
			error_flag = Send_Command(55, 0x00000000);
    1fec:	40 e0       	ldi	r20, 0x00	; 0
    1fee:	50 e0       	ldi	r21, 0x00	; 0
    1ff0:	ba 01       	movw	r22, r20
    1ff2:	87 e3       	ldi	r24, 0x37	; 55
    1ff4:	0e 94 db 0e 	call	0x1db6	; 0x1db6 <Send_Command>
			if(error_flag == no_errors){ //Check if R1 is not 0x01 (error)
    1ff8:	81 11       	cpse	r24, r1
    1ffa:	06 c0       	rjmp	.+12     	; 0x2008 <SD_Card_Init+0x144>
				error_flag = Receive_Response(1, rec_array);
    1ffc:	be 01       	movw	r22, r28
    1ffe:	6f 5f       	subi	r22, 0xFF	; 255
    2000:	7f 4f       	sbci	r23, 0xFF	; 255
    2002:	81 e0       	ldi	r24, 0x01	; 1
    2004:	0e 94 1f 0f 	call	0x1e3e	; 0x1e3e <Receive_Response>
			}
		
			if((error_flag == no_errors) && (rec_array[0] == 0x01)){
    2008:	81 11       	cpse	r24, r1
    200a:	15 c0       	rjmp	.+42     	; 0x2036 <SD_Card_Init+0x172>
    200c:	89 81       	ldd	r24, Y+1	; 0x01
    200e:	81 30       	cpi	r24, 0x01	; 1
    2010:	91 f4       	brne	.+36     	; 0x2036 <SD_Card_Init+0x172>
				error_status = no_errors;
				error_flag = Send_Command(41, 0x40000000); // 2nd arg was ACMD41_arg
    2012:	40 e0       	ldi	r20, 0x00	; 0
    2014:	50 e0       	ldi	r21, 0x00	; 0
    2016:	60 e0       	ldi	r22, 0x00	; 0
    2018:	70 e4       	ldi	r23, 0x40	; 64
    201a:	89 e2       	ldi	r24, 0x29	; 41
    201c:	0e 94 db 0e 	call	0x1db6	; 0x1db6 <Send_Command>
				error_flag = Receive_Response(1, rec_array);
    2020:	be 01       	movw	r22, r28
    2022:	6f 5f       	subi	r22, 0xFF	; 255
    2024:	7f 4f       	sbci	r23, 0xFF	; 255
    2026:	81 e0       	ldi	r24, 0x01	; 1
    2028:	0e 94 1f 0f 	call	0x1e3e	; 0x1e3e <Receive_Response>
				if(rec_array[0] != 0x00 && rec_array[0] != 0x01){
    202c:	89 81       	ldd	r24, Y+1	; 0x01
    202e:	82 30       	cpi	r24, 0x02	; 2
    2030:	40 f4       	brcc	.+16     	; 0x2042 <SD_Card_Init+0x17e>
					error_status = 0xFE;
					break;
				}
				
				timeout++;
    2032:	0f 5f       	subi	r16, 0xFF	; 255
			if(error_flag == no_errors){ //Check if R1 is not 0x01 (error)
				error_flag = Receive_Response(1, rec_array);
			}
		
			if((error_flag == no_errors) && (rec_array[0] == 0x01)){
				error_status = no_errors;
    2034:	f1 2e       	mov	r15, r17
					break;
				}
				
				timeout++;
			}
		}while((rec_array[0] != 0x00) && (timeout != 0));	
    2036:	89 81       	ldd	r24, Y+1	; 0x01
    2038:	88 23       	and	r24, r24
    203a:	39 f0       	breq	.+14     	; 0x204a <SD_Card_Init+0x186>
    203c:	01 11       	cpse	r16, r1
    203e:	d6 cf       	rjmp	.-84     	; 0x1fec <SD_Card_Init+0x128>
    2040:	04 c0       	rjmp	.+8      	; 0x204a <SD_Card_Init+0x186>
			if((error_flag == no_errors) && (rec_array[0] == 0x01)){
				error_status = no_errors;
				error_flag = Send_Command(41, 0x40000000); // 2nd arg was ACMD41_arg
				error_flag = Receive_Response(1, rec_array);
				if(rec_array[0] != 0x00 && rec_array[0] != 0x01){
					error_status = 0xFE;
    2042:	0f 2e       	mov	r0, r31
    2044:	fe ef       	ldi	r31, 0xFE	; 254
    2046:	ff 2e       	mov	r15, r31
    2048:	f0 2d       	mov	r31, r0
				}
				
				timeout++;
			}
		}while((rec_array[0] != 0x00) && (timeout != 0));	
		SD_CS_inactive(SD_CS_port, SD_CS_pin);
    204a:	60 e1       	ldi	r22, 0x10	; 16
    204c:	83 e2       	ldi	r24, 0x23	; 35
    204e:	90 e0       	ldi	r25, 0x00	; 0
    2050:	0e 94 8f 0e 	call	0x1d1e	; 0x1d1e <SD_CS_inactive>
    2054:	1f 2d       	mov	r17, r15
	}
	
	// CMD58 (didn't quite match up, 00 and C0 instead of 01 and 00 at end of second row)
	if(error_status == no_errors){//&& ACMD41_arg == 0x40000000){
    2056:	11 11       	cpse	r17, r1
    2058:	22 c0       	rjmp	.+68     	; 0x209e <SD_Card_Init+0x1da>
		SD_CS_active(SD_CS_port, SD_CS_pin);
    205a:	60 e1       	ldi	r22, 0x10	; 16
    205c:	83 e2       	ldi	r24, 0x23	; 35
    205e:	90 e0       	ldi	r25, 0x00	; 0
    2060:	0e 94 8b 0e 	call	0x1d16	; 0x1d16 <SD_CS_active>
		error_flag = Send_Command(58, 0x00000000);
    2064:	40 e0       	ldi	r20, 0x00	; 0
    2066:	50 e0       	ldi	r21, 0x00	; 0
    2068:	ba 01       	movw	r22, r20
    206a:	8a e3       	ldi	r24, 0x3A	; 58
    206c:	0e 94 db 0e 	call	0x1db6	; 0x1db6 <Send_Command>
    2070:	08 2f       	mov	r16, r24
		if(error_flag == no_errors){ //Check if R1 is not 0x01 (error)
    2072:	81 11       	cpse	r24, r1
    2074:	07 c0       	rjmp	.+14     	; 0x2084 <SD_Card_Init+0x1c0>
			error_flag = Receive_Response(5, rec_array);
    2076:	be 01       	movw	r22, r28
    2078:	6f 5f       	subi	r22, 0xFF	; 255
    207a:	7f 4f       	sbci	r23, 0xFF	; 255
    207c:	85 e0       	ldi	r24, 0x05	; 5
    207e:	0e 94 1f 0f 	call	0x1e3e	; 0x1e3e <Receive_Response>
    2082:	08 2f       	mov	r16, r24
		}
		SD_CS_inactive(SD_CS_port, SD_CS_pin);
    2084:	60 e1       	ldi	r22, 0x10	; 16
    2086:	83 e2       	ldi	r24, 0x23	; 35
    2088:	90 e0       	ldi	r25, 0x00	; 0
    208a:	0e 94 8f 0e 	call	0x1d1e	; 0x1d1e <SD_CS_inactive>
		if((error_flag == no_errors) && (rec_array[0] == 0x01)){
    208e:	01 11       	cpse	r16, r1
    2090:	06 c0       	rjmp	.+12     	; 0x209e <SD_Card_Init+0x1da>
    2092:	89 81       	ldd	r24, Y+1	; 0x01
    2094:	81 30       	cpi	r24, 0x01	; 1
    2096:	19 f4       	brne	.+6      	; 0x209e <SD_Card_Init+0x1da>
			if((rec_array[4] & 0b11000000 != 0b11000000)){
				SD_Card_Type_g = High_Capacity;
			}
			else if(rec_array[4] & 0b11000000 != 0b10000000){
    2098:	8d 81       	ldd	r24, Y+5	; 0x05
    209a:	80 ff       	sbrs	r24, 0
				SD_Card_Type_g = Standard_Capacity;
			}
			else{
				error_status = 0xFF;
    209c:	1f ef       	ldi	r17, 0xFF	; 255
			}
		}
	}
	return error_status;
}
    209e:	81 2f       	mov	r24, r17
    20a0:	0f 90       	pop	r0
    20a2:	0f 90       	pop	r0
    20a4:	0f 90       	pop	r0
    20a6:	0f 90       	pop	r0
    20a8:	0f 90       	pop	r0
    20aa:	df 91       	pop	r29
    20ac:	cf 91       	pop	r28
    20ae:	1f 91       	pop	r17
    20b0:	0f 91       	pop	r16
    20b2:	ff 90       	pop	r15
    20b4:	08 95       	ret

000020b6 <SPI_Master_Init>:
#include "SPI.h"
#include "board_struct.h"
#include "GPIO_Outputs.h"

uint8_t SPI_Master_Init(uint8_t volatile *SPI_addr, uint32_t clock_rate)
{
    20b6:	1f 93       	push	r17
    20b8:	cf 93       	push	r28
    20ba:	df 93       	push	r29
    20bc:	ec 01       	movw	r28, r24
    20be:	9a 01       	movw	r18, r20
    20c0:	ab 01       	movw	r20, r22
	uint8_t return_value = 0x00;
	uint32_t divider = (F_CPU / F_DIV) / (clock_rate);
    20c2:	60 e0       	ldi	r22, 0x00	; 0
    20c4:	74 e2       	ldi	r23, 0x24	; 36
    20c6:	84 ef       	ldi	r24, 0xF4	; 244
    20c8:	90 e0       	ldi	r25, 0x00	; 0
    20ca:	0e 94 a9 12 	call	0x2552	; 0x2552 <__udivmodsi4>
	
	if(divider < 2){
    20ce:	22 30       	cpi	r18, 0x02	; 2
    20d0:	31 05       	cpc	r19, r1
    20d2:	41 05       	cpc	r20, r1
    20d4:	51 05       	cpc	r21, r1
    20d6:	30 f4       	brcc	.+12     	; 0x20e4 <SPI_Master_Init+0x2e>
		*(SPI_addr + SPCR) = ((1<<SPE) | (1<<MSTR) | (CPOL_bit << CPOL) | (CPHA_bit<<CPHA) | 0<<0);
    20d8:	80 e5       	ldi	r24, 0x50	; 80
    20da:	88 83       	st	Y, r24
		*(SPI_addr+SPSR) = 1;
    20dc:	81 e0       	ldi	r24, 0x01	; 1
    20de:	89 83       	std	Y+1, r24	; 0x01
#include "board_struct.h"
#include "GPIO_Outputs.h"

uint8_t SPI_Master_Init(uint8_t volatile *SPI_addr, uint32_t clock_rate)
{
	uint8_t return_value = 0x00;
    20e0:	10 e0       	ldi	r17, 0x00	; 0
    20e2:	3f c0       	rjmp	.+126    	; 0x2162 <SPI_Master_Init+0xac>
	
	if(divider < 2){
		*(SPI_addr + SPCR) = ((1<<SPE) | (1<<MSTR) | (CPOL_bit << CPOL) | (CPHA_bit<<CPHA) | 0<<0);
		*(SPI_addr+SPSR) = 1;
	}
	else if(divider < 4){
    20e4:	24 30       	cpi	r18, 0x04	; 4
    20e6:	31 05       	cpc	r19, r1
    20e8:	41 05       	cpc	r20, r1
    20ea:	51 05       	cpc	r21, r1
    20ec:	28 f4       	brcc	.+10     	; 0x20f8 <SPI_Master_Init+0x42>
		*(SPI_addr + SPCR) = ((1<<SPE) | (1<<MSTR) | (CPOL_bit << CPOL) | (CPHA_bit<<CPHA) | 0<<0);
    20ee:	80 e5       	ldi	r24, 0x50	; 80
    20f0:	88 83       	st	Y, r24
		*(SPI_addr+SPSR) = 0;
    20f2:	19 82       	std	Y+1, r1	; 0x01
#include "board_struct.h"
#include "GPIO_Outputs.h"

uint8_t SPI_Master_Init(uint8_t volatile *SPI_addr, uint32_t clock_rate)
{
	uint8_t return_value = 0x00;
    20f4:	10 e0       	ldi	r17, 0x00	; 0
    20f6:	35 c0       	rjmp	.+106    	; 0x2162 <SPI_Master_Init+0xac>
	}
	else if(divider < 4){
		*(SPI_addr + SPCR) = ((1<<SPE) | (1<<MSTR) | (CPOL_bit << CPOL) | (CPHA_bit<<CPHA) | 0<<0);
		*(SPI_addr+SPSR) = 0;
	}
	else if(divider < 8){
    20f8:	28 30       	cpi	r18, 0x08	; 8
    20fa:	31 05       	cpc	r19, r1
    20fc:	41 05       	cpc	r20, r1
    20fe:	51 05       	cpc	r21, r1
    2100:	30 f4       	brcc	.+12     	; 0x210e <SPI_Master_Init+0x58>
		*(SPI_addr + SPCR) = ((1<<SPE) | (1<<MSTR) | (CPOL_bit << CPOL) | (CPHA_bit<<CPHA) | 1<<0);
    2102:	81 e5       	ldi	r24, 0x51	; 81
    2104:	88 83       	st	Y, r24
		*(SPI_addr+SPSR) = 1;
    2106:	81 e0       	ldi	r24, 0x01	; 1
    2108:	89 83       	std	Y+1, r24	; 0x01
#include "board_struct.h"
#include "GPIO_Outputs.h"

uint8_t SPI_Master_Init(uint8_t volatile *SPI_addr, uint32_t clock_rate)
{
	uint8_t return_value = 0x00;
    210a:	10 e0       	ldi	r17, 0x00	; 0
    210c:	2a c0       	rjmp	.+84     	; 0x2162 <SPI_Master_Init+0xac>
	}
	else if(divider < 8){
		*(SPI_addr + SPCR) = ((1<<SPE) | (1<<MSTR) | (CPOL_bit << CPOL) | (CPHA_bit<<CPHA) | 1<<0);
		*(SPI_addr+SPSR) = 1;
	}
	else if(divider < 16){
    210e:	20 31       	cpi	r18, 0x10	; 16
    2110:	31 05       	cpc	r19, r1
    2112:	41 05       	cpc	r20, r1
    2114:	51 05       	cpc	r21, r1
    2116:	28 f4       	brcc	.+10     	; 0x2122 <SPI_Master_Init+0x6c>
		*(SPI_addr + SPCR) = ((1<<SPE) | (1<<MSTR) | (CPOL_bit << CPOL) | (CPHA_bit<<CPHA) | 1<<0);
    2118:	81 e5       	ldi	r24, 0x51	; 81
    211a:	88 83       	st	Y, r24
		*(SPI_addr+SPSR) = 0;
    211c:	19 82       	std	Y+1, r1	; 0x01
#include "board_struct.h"
#include "GPIO_Outputs.h"

uint8_t SPI_Master_Init(uint8_t volatile *SPI_addr, uint32_t clock_rate)
{
	uint8_t return_value = 0x00;
    211e:	10 e0       	ldi	r17, 0x00	; 0
    2120:	20 c0       	rjmp	.+64     	; 0x2162 <SPI_Master_Init+0xac>
	}
	else if(divider < 16){
		*(SPI_addr + SPCR) = ((1<<SPE) | (1<<MSTR) | (CPOL_bit << CPOL) | (CPHA_bit<<CPHA) | 1<<0);
		*(SPI_addr+SPSR) = 0;
	}
	else if(divider < 32){
    2122:	20 32       	cpi	r18, 0x20	; 32
    2124:	31 05       	cpc	r19, r1
    2126:	41 05       	cpc	r20, r1
    2128:	51 05       	cpc	r21, r1
    212a:	30 f4       	brcc	.+12     	; 0x2138 <SPI_Master_Init+0x82>
		*(SPI_addr + SPCR) = ((1<<SPE) | (1<<MSTR) | (CPOL_bit << CPOL) | (CPHA_bit<<CPHA) | 2<<0);
    212c:	82 e5       	ldi	r24, 0x52	; 82
    212e:	88 83       	st	Y, r24
		*(SPI_addr+SPSR) = 1;
    2130:	81 e0       	ldi	r24, 0x01	; 1
    2132:	89 83       	std	Y+1, r24	; 0x01
#include "board_struct.h"
#include "GPIO_Outputs.h"

uint8_t SPI_Master_Init(uint8_t volatile *SPI_addr, uint32_t clock_rate)
{
	uint8_t return_value = 0x00;
    2134:	10 e0       	ldi	r17, 0x00	; 0
    2136:	15 c0       	rjmp	.+42     	; 0x2162 <SPI_Master_Init+0xac>
	}
	else if(divider < 32){
		*(SPI_addr + SPCR) = ((1<<SPE) | (1<<MSTR) | (CPOL_bit << CPOL) | (CPHA_bit<<CPHA) | 2<<0);
		*(SPI_addr+SPSR) = 1;
	}
	else if(divider < 64){
    2138:	20 34       	cpi	r18, 0x40	; 64
    213a:	31 05       	cpc	r19, r1
    213c:	41 05       	cpc	r20, r1
    213e:	51 05       	cpc	r21, r1
    2140:	28 f4       	brcc	.+10     	; 0x214c <SPI_Master_Init+0x96>
		*(SPI_addr + SPCR) = ((1<<SPE) | (1<<MSTR) | (CPOL_bit << CPOL) | (CPHA_bit<<CPHA) | 2<<0);//Roger Changed
    2142:	82 e5       	ldi	r24, 0x52	; 82
    2144:	88 83       	st	Y, r24
		*(SPI_addr+SPSR) = 0;
    2146:	19 82       	std	Y+1, r1	; 0x01
#include "board_struct.h"
#include "GPIO_Outputs.h"

uint8_t SPI_Master_Init(uint8_t volatile *SPI_addr, uint32_t clock_rate)
{
	uint8_t return_value = 0x00;
    2148:	10 e0       	ldi	r17, 0x00	; 0
    214a:	0b c0       	rjmp	.+22     	; 0x2162 <SPI_Master_Init+0xac>
	}
	else if(divider < 64){
		*(SPI_addr + SPCR) = ((1<<SPE) | (1<<MSTR) | (CPOL_bit << CPOL) | (CPHA_bit<<CPHA) | 2<<0);//Roger Changed
		*(SPI_addr+SPSR) = 0;
	}
	else if(divider < 128){
    214c:	20 38       	cpi	r18, 0x80	; 128
    214e:	31 05       	cpc	r19, r1
    2150:	41 05       	cpc	r20, r1
    2152:	51 05       	cpc	r21, r1
    2154:	28 f4       	brcc	.+10     	; 0x2160 <SPI_Master_Init+0xaa>
		*(SPI_addr + SPCR) = ((1<<SPE) | (1<<MSTR) | (CPOL_bit << CPOL) | (CPHA_bit<<CPHA) | 3<<0);
    2156:	83 e5       	ldi	r24, 0x53	; 83
    2158:	88 83       	st	Y, r24
		*(SPI_addr+SPSR) = 0;
    215a:	19 82       	std	Y+1, r1	; 0x01
#include "board_struct.h"
#include "GPIO_Outputs.h"

uint8_t SPI_Master_Init(uint8_t volatile *SPI_addr, uint32_t clock_rate)
{
	uint8_t return_value = 0x00;
    215c:	10 e0       	ldi	r17, 0x00	; 0
    215e:	01 c0       	rjmp	.+2      	; 0x2162 <SPI_Master_Init+0xac>
	else if(divider < 128){
		*(SPI_addr + SPCR) = ((1<<SPE) | (1<<MSTR) | (CPOL_bit << CPOL) | (CPHA_bit<<CPHA) | 3<<0);
		*(SPI_addr+SPSR) = 0;
	}
	else{
		return_value = clock_rate_error;
    2160:	1f ef       	ldi	r17, 0xFF	; 255
	}

	//Initializing MOSI and SCK
	if(SPI_addr == SPI0_base){
    2162:	cc 34       	cpi	r28, 0x4C	; 76
    2164:	d1 05       	cpc	r29, r1
    2166:	a9 f4       	brne	.+42     	; 0x2192 <SPI_Master_Init+0xdc>
		//Initializing MOSI
		GPIO_Output_Set(PB, (1<<5));
    2168:	60 e2       	ldi	r22, 0x20	; 32
    216a:	83 e2       	ldi	r24, 0x23	; 35
    216c:	90 e0       	ldi	r25, 0x00	; 0
    216e:	0e 94 b6 0c 	call	0x196c	; 0x196c <GPIO_Output_Set>
		GPIO_Output_Init(PB, (1<<5));
    2172:	60 e2       	ldi	r22, 0x20	; 32
    2174:	83 e2       	ldi	r24, 0x23	; 35
    2176:	90 e0       	ldi	r25, 0x00	; 0
    2178:	0e 94 b1 0c 	call	0x1962	; 0x1962 <GPIO_Output_Init>
		
		if(CPOL_bit == 0){
			//Setting SCK to idle state
			GPIO_Output_Clear(PB, (1<<7));
    217c:	60 e8       	ldi	r22, 0x80	; 128
    217e:	83 e2       	ldi	r24, 0x23	; 35
    2180:	90 e0       	ldi	r25, 0x00	; 0
    2182:	0e 94 bb 0c 	call	0x1976	; 0x1976 <GPIO_Output_Clear>
			GPIO_Output_Init(PB, (1<<7));
    2186:	60 e8       	ldi	r22, 0x80	; 128
    2188:	83 e2       	ldi	r24, 0x23	; 35
    218a:	90 e0       	ldi	r25, 0x00	; 0
    218c:	0e 94 b1 0c 	call	0x1962	; 0x1962 <GPIO_Output_Init>
    2190:	14 c0       	rjmp	.+40     	; 0x21ba <SPI_Master_Init+0x104>
			GPIO_Output_Init(PB, (0<<7));
		}
	}
	else{
		//Initializing MOSI
		GPIO_Output_Set(PE, (1<<3));
    2192:	68 e0       	ldi	r22, 0x08	; 8
    2194:	8c e2       	ldi	r24, 0x2C	; 44
    2196:	90 e0       	ldi	r25, 0x00	; 0
    2198:	0e 94 b6 0c 	call	0x196c	; 0x196c <GPIO_Output_Set>
		GPIO_Output_Init(PE, (1<<3));
    219c:	68 e0       	ldi	r22, 0x08	; 8
    219e:	8c e2       	ldi	r24, 0x2C	; 44
    21a0:	90 e0       	ldi	r25, 0x00	; 0
    21a2:	0e 94 b1 0c 	call	0x1962	; 0x1962 <GPIO_Output_Init>
		
		if(CPOL_bit == 0){
			//Setting SCK to idle state
			GPIO_Output_Clear(PD, (1<<7));
    21a6:	60 e8       	ldi	r22, 0x80	; 128
    21a8:	89 e2       	ldi	r24, 0x29	; 41
    21aa:	90 e0       	ldi	r25, 0x00	; 0
    21ac:	0e 94 bb 0c 	call	0x1976	; 0x1976 <GPIO_Output_Clear>
			GPIO_Output_Init(PD, (1<<7));
    21b0:	60 e8       	ldi	r22, 0x80	; 128
    21b2:	89 e2       	ldi	r24, 0x29	; 41
    21b4:	90 e0       	ldi	r25, 0x00	; 0
    21b6:	0e 94 b1 0c 	call	0x1962	; 0x1962 <GPIO_Output_Init>
			GPIO_Output_Init(PD, (0<<7));
		}
	}
	
	return return_value;
}
    21ba:	81 2f       	mov	r24, r17
    21bc:	df 91       	pop	r29
    21be:	cf 91       	pop	r28
    21c0:	1f 91       	pop	r17
    21c2:	08 95       	ret

000021c4 <SPI_Transfer>:

uint8_t SPI_Transfer(uint8_t volatile *SPI_addr, uint8_t send_value){
    21c4:	fc 01       	movw	r30, r24
	uint8_t status;
	
	*(SPI_addr + SPDR) = send_value;
    21c6:	62 83       	std	Z+2, r22	; 0x02
	
	do{
		status = *(SPI_addr + SPSR);
    21c8:	91 81       	ldd	r25, Z+1	; 0x01
	}while((status & 0x80) == 0);
    21ca:	99 23       	and	r25, r25
    21cc:	ec f7       	brge	.-6      	; 0x21c8 <SPI_Transfer+0x4>
	
	return *(SPI_addr + SPDR);
    21ce:	82 81       	ldd	r24, Z+2	; 0x02
}
    21d0:	08 95       	ret

000021d2 <STA013_Master_Init>:

extern const uint8_t CONFIG[];
extern const uint8_t CONFIG2[];


void STA013_Master_Init(char * prnt_bffr, uint8_t * array_name){	
    21d2:	cf 92       	push	r12
    21d4:	df 92       	push	r13
    21d6:	ef 92       	push	r14
    21d8:	ff 92       	push	r15
    21da:	0f 93       	push	r16
    21dc:	1f 93       	push	r17
    21de:	cf 93       	push	r28
    21e0:	6c 01       	movw	r12, r24
    21e2:	8b 01       	movw	r16, r22
	uint8_t i = 255; /*This value is the number of attempts*/
	uint8_t error = 0xFF;
	uint8_t no_errors = 0;
	
	// Pulsing low
	GPIO_Output_Init(PB, (1<<1));
    21e4:	62 e0       	ldi	r22, 0x02	; 2
    21e6:	83 e2       	ldi	r24, 0x23	; 35
    21e8:	90 e0       	ldi	r25, 0x00	; 0
    21ea:	0e 94 b1 0c 	call	0x1962	; 0x1962 <GPIO_Output_Init>
	for(uint8_t i = 0; i < 255; i++){
    21ee:	c0 e0       	ldi	r28, 0x00	; 0
    21f0:	06 c0       	rjmp	.+12     	; 0x21fe <STA013_Master_Init+0x2c>
		GPIO_Output_Clear(PB, (1<<1));
    21f2:	62 e0       	ldi	r22, 0x02	; 2
    21f4:	83 e2       	ldi	r24, 0x23	; 35
    21f6:	90 e0       	ldi	r25, 0x00	; 0
    21f8:	0e 94 bb 0c 	call	0x1976	; 0x1976 <GPIO_Output_Clear>
	uint8_t error = 0xFF;
	uint8_t no_errors = 0;
	
	// Pulsing low
	GPIO_Output_Init(PB, (1<<1));
	for(uint8_t i = 0; i < 255; i++){
    21fc:	cf 5f       	subi	r28, 0xFF	; 255
    21fe:	cf 3f       	cpi	r28, 0xFF	; 255
    2200:	c1 f7       	brne	.-16     	; 0x21f2 <STA013_Master_Init+0x20>
		GPIO_Output_Clear(PB, (1<<1));
	}
	GPIO_Output_Set(PB, (1<<1));	
    2202:	62 e0       	ldi	r22, 0x02	; 2
    2204:	83 e2       	ldi	r24, 0x23	; 35
    2206:	90 e0       	ldi	r25, 0x00	; 0
    2208:	0e 94 b6 0c 	call	0x196c	; 0x196c <GPIO_Output_Set>
// 	sprintf(prnt_bffr, "Received Value = %X\n\r", array_name[0]);
// 	UART_Transmit_String(UART1,0,prnt_bffr);

	uint8_t timeout;
	uint8_t status;
	uint16_t index=0;
    220c:	e1 2c       	mov	r14, r1
    220e:	f1 2c       	mov	r15, r1
	
	// CONFIG init
	do
	{
		array_name[0]=pgm_read_byte(&CONFIG[index]);  // internal reg. addr
    2210:	f7 01       	movw	r30, r14
    2212:	e2 50       	subi	r30, 0x02	; 2
    2214:	ff 4f       	sbci	r31, 0xFF	; 255
    2216:	e4 91       	lpm	r30, Z
    2218:	d8 01       	movw	r26, r16
    221a:	ec 93       	st	X, r30
		index++;
		array_name[1]=pgm_read_byte(&CONFIG[index]);  // value for the reg.
    221c:	f7 01       	movw	r30, r14
    221e:	e1 50       	subi	r30, 0x01	; 1
    2220:	ff 4f       	sbci	r31, 0xFF	; 255
    2222:	e4 91       	lpm	r30, Z
    2224:	11 96       	adiw	r26, 0x01	; 1
    2226:	ec 93       	st	X, r30
		index++;
    2228:	b2 e0       	ldi	r27, 0x02	; 2
    222a:	eb 0e       	add	r14, r27
    222c:	f1 1c       	adc	r15, r1
		timeout=50;
    222e:	c2 e3       	ldi	r28, 0x32	; 50
		do
		{
			status=TWI_Master_Transmit(TWI1_Base,0x43,2,array_name);
    2230:	98 01       	movw	r18, r16
    2232:	42 e0       	ldi	r20, 0x02	; 2
    2234:	50 e0       	ldi	r21, 0x00	; 0
    2236:	63 e4       	ldi	r22, 0x43	; 67
    2238:	88 ed       	ldi	r24, 0xD8	; 216
    223a:	90 e0       	ldi	r25, 0x00	; 0
    223c:	0e 94 d3 11 	call	0x23a6	; 0x23a6 <TWI_Master_Transmit>
			timeout--;
    2240:	c1 50       	subi	r28, 0x01	; 1
		}while((status!=no_errors)&&(timeout!=0));
    2242:	88 23       	and	r24, r24
    2244:	11 f0       	breq	.+4      	; 0x224a <STA013_Master_Init+0x78>
    2246:	c1 11       	cpse	r28, r1
    2248:	f3 cf       	rjmp	.-26     	; 0x2230 <STA013_Master_Init+0x5e>
	} while((array_name[0]!=0xFF)&&(timeout!=0));
    224a:	f8 01       	movw	r30, r16
    224c:	80 81       	ld	r24, Z
    224e:	8f 3f       	cpi	r24, 0xFF	; 255
    2250:	11 f0       	breq	.+4      	; 0x2256 <STA013_Master_Init+0x84>
    2252:	c1 11       	cpse	r28, r1
    2254:	dd cf       	rjmp	.-70     	; 0x2210 <STA013_Master_Init+0x3e>
	if(timeout!=0){
    2256:	cc 23       	and	r28, r28
    2258:	79 f0       	breq	.+30     	; 0x2278 <STA013_Master_Init+0xa6>
		sprintf(prnt_bffr,"Config sent...\n\r");
    225a:	81 e1       	ldi	r24, 0x11	; 17
    225c:	e2 ef       	ldi	r30, 0xF2	; 242
    225e:	f1 e0       	ldi	r31, 0x01	; 1
    2260:	d6 01       	movw	r26, r12
    2262:	01 90       	ld	r0, Z+
    2264:	0d 92       	st	X+, r0
    2266:	8a 95       	dec	r24
    2268:	e1 f7       	brne	.-8      	; 0x2262 <STA013_Master_Init+0x90>
		UART_Transmit_String(UART1,0,prnt_bffr);
    226a:	a6 01       	movw	r20, r12
    226c:	60 e0       	ldi	r22, 0x00	; 0
    226e:	70 e0       	ldi	r23, 0x00	; 0
    2270:	88 ec       	ldi	r24, 0xC8	; 200
    2272:	90 e0       	ldi	r25, 0x00	; 0
    2274:	0e 94 54 12 	call	0x24a8	; 0x24a8 <UART_Transmit_String>
	}
	
	
	//Delay
	timeout = 100;
    2278:	84 e6       	ldi	r24, 0x64	; 100
	while(timeout != 0){
    227a:	01 c0       	rjmp	.+2      	; 0x227e <STA013_Master_Init+0xac>
		timeout--;
    227c:	81 50       	subi	r24, 0x01	; 1
	}
	
	
	//Delay
	timeout = 100;
	while(timeout != 0){
    227e:	81 11       	cpse	r24, r1
    2280:	fd cf       	rjmp	.-6      	; 0x227c <STA013_Master_Init+0xaa>
    2282:	e1 2c       	mov	r14, r1
    2284:	f1 2c       	mov	r15, r1
	
	// CONFIG2 init
	index=0;
	do
	{
		array_name[0]=pgm_read_byte(&CONFIG2[index]);  // internal reg. addr
    2286:	f7 01       	movw	r30, r14
    2288:	e4 53       	subi	r30, 0x34	; 52
    228a:	ff 4f       	sbci	r31, 0xFF	; 255
    228c:	e4 91       	lpm	r30, Z
    228e:	d8 01       	movw	r26, r16
    2290:	ec 93       	st	X, r30
		index++;
		array_name[1]=pgm_read_byte(&CONFIG2[index]);  // value for the reg.
    2292:	f7 01       	movw	r30, r14
    2294:	e3 53       	subi	r30, 0x33	; 51
    2296:	ff 4f       	sbci	r31, 0xFF	; 255
    2298:	e4 91       	lpm	r30, Z
    229a:	11 96       	adiw	r26, 0x01	; 1
    229c:	ec 93       	st	X, r30
		index++;
    229e:	b2 e0       	ldi	r27, 0x02	; 2
    22a0:	eb 0e       	add	r14, r27
    22a2:	f1 1c       	adc	r15, r1
		timeout=50;
    22a4:	c2 e3       	ldi	r28, 0x32	; 50
		do
		{
			status=TWI_Master_Transmit(TWI1_Base,0x43,2,array_name);
    22a6:	98 01       	movw	r18, r16
    22a8:	42 e0       	ldi	r20, 0x02	; 2
    22aa:	50 e0       	ldi	r21, 0x00	; 0
    22ac:	63 e4       	ldi	r22, 0x43	; 67
    22ae:	88 ed       	ldi	r24, 0xD8	; 216
    22b0:	90 e0       	ldi	r25, 0x00	; 0
    22b2:	0e 94 d3 11 	call	0x23a6	; 0x23a6 <TWI_Master_Transmit>
			timeout--;
    22b6:	c1 50       	subi	r28, 0x01	; 1
		}while((status!=no_errors)&&(timeout!=0));
    22b8:	88 23       	and	r24, r24
    22ba:	11 f0       	breq	.+4      	; 0x22c0 <STA013_Master_Init+0xee>
    22bc:	c1 11       	cpse	r28, r1
    22be:	f3 cf       	rjmp	.-26     	; 0x22a6 <STA013_Master_Init+0xd4>
	} while((array_name[0]!=0xFF)&&(timeout!=0));
    22c0:	f8 01       	movw	r30, r16
    22c2:	80 81       	ld	r24, Z
    22c4:	8f 3f       	cpi	r24, 0xFF	; 255
    22c6:	11 f0       	breq	.+4      	; 0x22cc <STA013_Master_Init+0xfa>
    22c8:	c1 11       	cpse	r28, r1
    22ca:	dd cf       	rjmp	.-70     	; 0x2286 <STA013_Master_Init+0xb4>
	if(timeout!=0){
    22cc:	cc 23       	and	r28, r28
    22ce:	79 f0       	breq	.+30     	; 0x22ee <STA013_Master_Init+0x11c>
		sprintf(prnt_bffr,"Config2 sent...\n\r");
    22d0:	82 e1       	ldi	r24, 0x12	; 18
    22d2:	e3 e0       	ldi	r30, 0x03	; 3
    22d4:	f2 e0       	ldi	r31, 0x02	; 2
    22d6:	d6 01       	movw	r26, r12
    22d8:	01 90       	ld	r0, Z+
    22da:	0d 92       	st	X+, r0
    22dc:	8a 95       	dec	r24
    22de:	e1 f7       	brne	.-8      	; 0x22d8 <STA013_Master_Init+0x106>
		UART_Transmit_String(UART1,0,prnt_bffr);
    22e0:	a6 01       	movw	r20, r12
    22e2:	60 e0       	ldi	r22, 0x00	; 0
    22e4:	70 e0       	ldi	r23, 0x00	; 0
    22e6:	88 ec       	ldi	r24, 0xC8	; 200
    22e8:	90 e0       	ldi	r25, 0x00	; 0
    22ea:	0e 94 54 12 	call	0x24a8	; 0x24a8 <UART_Transmit_String>
	}
	
    22ee:	cf 91       	pop	r28
    22f0:	1f 91       	pop	r17
    22f2:	0f 91       	pop	r16
    22f4:	ff 90       	pop	r15
    22f6:	ef 90       	pop	r14
    22f8:	df 90       	pop	r13
    22fa:	cf 90       	pop	r12
    22fc:	08 95       	ret

000022fe <TWI_Master_Init>:
			}
			//else NACK
		
	}
	return return_value;
}
    22fe:	cf 92       	push	r12
    2300:	df 92       	push	r13
    2302:	ef 92       	push	r14
    2304:	ff 92       	push	r15
    2306:	cf 93       	push	r28
    2308:	df 93       	push	r29
    230a:	ec 01       	movw	r28, r24
    230c:	9a 01       	movw	r18, r20
    230e:	ab 01       	movw	r20, r22
    2310:	60 e0       	ldi	r22, 0x00	; 0
    2312:	74 e2       	ldi	r23, 0x24	; 36
    2314:	84 ef       	ldi	r24, 0xF4	; 244
    2316:	90 e0       	ldi	r25, 0x00	; 0
    2318:	0e 94 a9 12 	call	0x2552	; 0x2552 <__udivmodsi4>
    231c:	69 01       	movw	r12, r18
    231e:	7a 01       	movw	r14, r20
    2320:	80 e1       	ldi	r24, 0x10	; 16
    2322:	c8 1a       	sub	r12, r24
    2324:	d1 08       	sbc	r13, r1
    2326:	e1 08       	sbc	r14, r1
    2328:	f1 08       	sbc	r15, r1
    232a:	c7 01       	movw	r24, r14
    232c:	b6 01       	movw	r22, r12
    232e:	2e ef       	ldi	r18, 0xFE	; 254
    2330:	31 e0       	ldi	r19, 0x01	; 1
    2332:	40 e0       	ldi	r20, 0x00	; 0
    2334:	50 e0       	ldi	r21, 0x00	; 0
    2336:	0e 94 a9 12 	call	0x2552	; 0x2552 <__udivmodsi4>
    233a:	21 15       	cp	r18, r1
    233c:	31 05       	cpc	r19, r1
    233e:	21 f4       	brne	.+8      	; 0x2348 <TWI_Master_Init+0x4a>
    2340:	19 82       	std	Y+1, r1	; 0x01
    2342:	21 e0       	ldi	r18, 0x01	; 1
    2344:	30 e0       	ldi	r19, 0x00	; 0
    2346:	1a c0       	rjmp	.+52     	; 0x237c <TWI_Master_Init+0x7e>
    2348:	24 30       	cpi	r18, 0x04	; 4
    234a:	31 05       	cpc	r19, r1
    234c:	28 f4       	brcc	.+10     	; 0x2358 <TWI_Master_Init+0x5a>
    234e:	81 e0       	ldi	r24, 0x01	; 1
    2350:	89 83       	std	Y+1, r24	; 0x01
    2352:	24 e0       	ldi	r18, 0x04	; 4
    2354:	30 e0       	ldi	r19, 0x00	; 0
    2356:	12 c0       	rjmp	.+36     	; 0x237c <TWI_Master_Init+0x7e>
    2358:	20 31       	cpi	r18, 0x10	; 16
    235a:	31 05       	cpc	r19, r1
    235c:	28 f4       	brcc	.+10     	; 0x2368 <TWI_Master_Init+0x6a>
    235e:	82 e0       	ldi	r24, 0x02	; 2
    2360:	89 83       	std	Y+1, r24	; 0x01
    2362:	20 e1       	ldi	r18, 0x10	; 16
    2364:	30 e0       	ldi	r19, 0x00	; 0
    2366:	0a c0       	rjmp	.+20     	; 0x237c <TWI_Master_Init+0x7e>
    2368:	20 34       	cpi	r18, 0x40	; 64
    236a:	31 05       	cpc	r19, r1
    236c:	28 f4       	brcc	.+10     	; 0x2378 <TWI_Master_Init+0x7a>
    236e:	83 e0       	ldi	r24, 0x03	; 3
    2370:	89 83       	std	Y+1, r24	; 0x01
    2372:	20 e4       	ldi	r18, 0x40	; 64
    2374:	30 e0       	ldi	r19, 0x00	; 0
    2376:	02 c0       	rjmp	.+4      	; 0x237c <TWI_Master_Init+0x7e>
    2378:	8f ef       	ldi	r24, 0xFF	; 255
    237a:	0e c0       	rjmp	.+28     	; 0x2398 <TWI_Master_Init+0x9a>
    237c:	c9 01       	movw	r24, r18
    237e:	a0 e0       	ldi	r26, 0x00	; 0
    2380:	b0 e0       	ldi	r27, 0x00	; 0
    2382:	9c 01       	movw	r18, r24
    2384:	ad 01       	movw	r20, r26
    2386:	22 0f       	add	r18, r18
    2388:	33 1f       	adc	r19, r19
    238a:	44 1f       	adc	r20, r20
    238c:	55 1f       	adc	r21, r21
    238e:	c7 01       	movw	r24, r14
    2390:	b6 01       	movw	r22, r12
    2392:	0e 94 a9 12 	call	0x2552	; 0x2552 <__udivmodsi4>
    2396:	28 83       	st	Y, r18
    2398:	df 91       	pop	r29
    239a:	cf 91       	pop	r28
    239c:	ff 90       	pop	r15
    239e:	ef 90       	pop	r14
    23a0:	df 90       	pop	r13
    23a2:	cf 90       	pop	r12
    23a4:	08 95       	ret

000023a6 <TWI_Master_Transmit>:

uint8_t TWI_Master_Transmit(volatile TWI_t * TWI_addr, uint8_t device_addr,
uint16_t num_bytes, uint8_t * array_name){
    23a6:	cf 93       	push	r28
    23a8:	df 93       	push	r29
    23aa:	fc 01       	movw	r30, r24
    23ac:	e9 01       	movw	r28, r18
	uint8_t status;
	uint8_t temp8;
	uint8_t return_value = 0;
	uint8_t no_errors = 0;
	uint8_t NACK_error = 0xFE;
	uint8_t send_value= (device_addr<<1);  // lsb will be 0
    23ae:	66 0f       	add	r22, r22
	TWI_addr->TWCR =((1<<TWINT)|(1<<TWSTA)|(1<<TWEN));
    23b0:	84 ea       	ldi	r24, 0xA4	; 164
    23b2:	84 83       	std	Z+4, r24	; 0x04
	
	do
	{
		status= TWI_addr->TWCR;
    23b4:	84 81       	ldd	r24, Z+4	; 0x04
	}while((status&0x80)==0);
    23b6:	88 23       	and	r24, r24
    23b8:	ec f7       	brge	.-6      	; 0x23b4 <TWI_Master_Transmit+0xe>
	
	temp8=((TWI_addr->TWSR)&0xF8);
    23ba:	91 81       	ldd	r25, Z+1	; 0x01
    23bc:	98 7f       	andi	r25, 0xF8	; 248
	
	// If start was sent, then send SLA+W
	if(temp8==0x08)   // Start sent  // 0x10 is a repeated start
    23be:	98 30       	cpi	r25, 0x08	; 8
    23c0:	19 f4       	brne	.+6      	; 0x23c8 <TWI_Master_Transmit+0x22>
	{
		TWI_addr->TWDR = send_value;
    23c2:	63 83       	std	Z+3, r22	; 0x03
		TWI_addr->TWCR = ((1<<TWINT)|(1<<TWEN));
    23c4:	84 e8       	ldi	r24, 0x84	; 132
    23c6:	84 83       	std	Z+4, r24	; 0x04
			TWI_addr->TWCR=((1<<TWINT)|(1<<TWSTO)|(1<<TWEN));
			do
			{
				status=TWI_addr->TWCR;
			} while ((status&(1<<TWSTO))!=0); // Wait for the Stop=0
			return_value=NACK_error;
    23c8:	30 e0       	ldi	r19, 0x00	; 0
    23ca:	80 e0       	ldi	r24, 0x00	; 0
    23cc:	20 c0       	rjmp	.+64     	; 0x240e <TWI_Master_Transmit+0x68>
	}
	
	uint8_t index=0;
	while((num_bytes!=0)&&(return_value==no_errors))
	{
		send_value=array_name[index];
    23ce:	de 01       	movw	r26, r28
    23d0:	a3 0f       	add	r26, r19
    23d2:	b1 1d       	adc	r27, r1
    23d4:	6c 91       	ld	r22, X
		index++;
    23d6:	3f 5f       	subi	r19, 0xFF	; 255
		num_bytes--;
    23d8:	41 50       	subi	r20, 0x01	; 1
    23da:	51 09       	sbc	r21, r1
		// Wait until TWINT is set
		do
		{
			status=TWI_addr->TWCR;
    23dc:	94 81       	ldd	r25, Z+4	; 0x04
		}while((status&0x80)==0);
    23de:	99 23       	and	r25, r25
    23e0:	ec f7       	brge	.-6      	; 0x23dc <TWI_Master_Transmit+0x36>
		// Read the status value to determine what to do next
		temp8=((TWI_addr->TWSR)&0xF8);  // Clear lower three bits
    23e2:	91 81       	ldd	r25, Z+1	; 0x01
    23e4:	98 7f       	andi	r25, 0xF8	; 248
		
		if(temp8==0x18)   // SLA+W sent, ACK received
    23e6:	98 31       	cpi	r25, 0x18	; 24
    23e8:	21 f4       	brne	.+8      	; 0x23f2 <TWI_Master_Transmit+0x4c>
		{
			TWI_addr->TWDR = send_value;
    23ea:	63 83       	std	Z+3, r22	; 0x03
			TWI_addr->TWCR=((1<<TWINT)|(1<<TWEN));
    23ec:	24 e8       	ldi	r18, 0x84	; 132
    23ee:	24 83       	std	Z+4, r18	; 0x04
    23f0:	0e c0       	rjmp	.+28     	; 0x240e <TWI_Master_Transmit+0x68>
		}
		else if(temp8==0x28)  // Data sent, ACK received
    23f2:	98 32       	cpi	r25, 0x28	; 40
    23f4:	21 f4       	brne	.+8      	; 0x23fe <TWI_Master_Transmit+0x58>
		{
			TWI_addr->TWDR=send_value;
    23f6:	63 83       	std	Z+3, r22	; 0x03
			TWI_addr->TWCR=((1<<TWINT)|(1<<TWEN));
    23f8:	24 e8       	ldi	r18, 0x84	; 132
    23fa:	24 83       	std	Z+4, r18	; 0x04
    23fc:	08 c0       	rjmp	.+16     	; 0x240e <TWI_Master_Transmit+0x68>
		}
		else if(temp8==0x20)  // SLA+W sent, NACK received ------ Debugger says temp8 = 0x8, but it sets return to NACK_error
    23fe:	90 32       	cpi	r25, 0x20	; 32
    2400:	31 f4       	brne	.+12     	; 0x240e <TWI_Master_Transmit+0x68>
		{
			TWI_addr->TWCR=((1<<TWINT)|(1<<TWSTO)|(1<<TWEN));
    2402:	84 e9       	ldi	r24, 0x94	; 148
    2404:	84 83       	std	Z+4, r24	; 0x04
			do
			{
				status=TWI_addr->TWCR;
    2406:	84 81       	ldd	r24, Z+4	; 0x04
			} while ((status&(1<<TWSTO))!=0); // Wait for the Stop=0
    2408:	84 fd       	sbrc	r24, 4
    240a:	fd cf       	rjmp	.-6      	; 0x2406 <TWI_Master_Transmit+0x60>
			return_value=NACK_error;
    240c:	8e ef       	ldi	r24, 0xFE	; 254
		TWI_addr->TWDR = send_value;
		TWI_addr->TWCR = ((1<<TWINT)|(1<<TWEN));
	}
	
	uint8_t index=0;
	while((num_bytes!=0)&&(return_value==no_errors))
    240e:	41 15       	cp	r20, r1
    2410:	51 05       	cpc	r21, r1
    2412:	11 f0       	breq	.+4      	; 0x2418 <TWI_Master_Transmit+0x72>
    2414:	88 23       	and	r24, r24
    2416:	d9 f2       	breq	.-74     	; 0x23ce <TWI_Master_Transmit+0x28>
		}
	}
	
	do
	{
		status=TWI_addr->TWCR;
    2418:	24 81       	ldd	r18, Z+4	; 0x04
	}while((status&0x80)==0);
    241a:	22 23       	and	r18, r18
    241c:	ec f7       	brge	.-6      	; 0x2418 <TWI_Master_Transmit+0x72>
	// Read the status value to determine what to do next
	//temp8=((TWI_addr->TWSR)&0xF8);  // Clear lower three bits
	
	if(temp8==0x18)   // SLA+W sent, ACK received
    241e:	98 31       	cpi	r25, 0x18	; 24
    2420:	31 f4       	brne	.+12     	; 0x242e <TWI_Master_Transmit+0x88>
	{
		TWI_addr->TWDR=send_value;
    2422:	63 83       	std	Z+3, r22	; 0x03
		TWI_addr->TWCR=((1<<TWINT)|(1<<TWSTO)|(1<<TWEN));
    2424:	94 e9       	ldi	r25, 0x94	; 148
    2426:	94 83       	std	Z+4, r25	; 0x04
		do
		{
			status=TWI_addr->TWCR;
    2428:	94 81       	ldd	r25, Z+4	; 0x04
		} while ((status&(1<<TWSTO))!=0); // Wait for the Stop=0
    242a:	94 fd       	sbrc	r25, 4
    242c:	fd cf       	rjmp	.-6      	; 0x2428 <TWI_Master_Transmit+0x82>
	}
	
	return return_value;
}
    242e:	df 91       	pop	r29
    2430:	cf 91       	pop	r28
    2432:	08 95       	ret

00002434 <UART_Init>:




void UART_Init (volatile UART_t * UART_addr, uint16_t Baud_Rate)
{
    2434:	cf 93       	push	r28
    2436:	df 93       	push	r29
    2438:	ec 01       	movw	r28, r24
	uint16_t Baud_Rate_Reload;
	Baud_Rate_Reload = (uint16_t)(((F_CPU/F_DIV)/(8UL*(2-U2X_bit)*Baud_Rate))-1);
    243a:	cb 01       	movw	r24, r22
    243c:	a0 e0       	ldi	r26, 0x00	; 0
    243e:	b0 e0       	ldi	r27, 0x00	; 0
    2440:	88 0f       	add	r24, r24
    2442:	99 1f       	adc	r25, r25
    2444:	aa 1f       	adc	r26, r26
    2446:	bb 1f       	adc	r27, r27
    2448:	88 0f       	add	r24, r24
    244a:	99 1f       	adc	r25, r25
    244c:	aa 1f       	adc	r26, r26
    244e:	bb 1f       	adc	r27, r27
    2450:	9c 01       	movw	r18, r24
    2452:	ad 01       	movw	r20, r26
    2454:	22 0f       	add	r18, r18
    2456:	33 1f       	adc	r19, r19
    2458:	44 1f       	adc	r20, r20
    245a:	55 1f       	adc	r21, r21
    245c:	22 0f       	add	r18, r18
    245e:	33 1f       	adc	r19, r19
    2460:	44 1f       	adc	r20, r20
    2462:	55 1f       	adc	r21, r21
    2464:	60 e0       	ldi	r22, 0x00	; 0
    2466:	74 e2       	ldi	r23, 0x24	; 36
    2468:	84 ef       	ldi	r24, 0xF4	; 244
    246a:	90 e0       	ldi	r25, 0x00	; 0
    246c:	0e 94 a9 12 	call	0x2552	; 0x2552 <__udivmodsi4>
    2470:	21 50       	subi	r18, 0x01	; 1
    2472:	31 09       	sbc	r19, r1
	
	(UART_addr->UBBRH) = (Baud_Rate_Reload / 256);
    2474:	3d 83       	std	Y+5, r19	; 0x05
	(UART_addr->UBBRL) = (Baud_Rate_Reload % 256);
    2476:	2c 83       	std	Y+4, r18	; 0x04
		
	(UART_addr->UCSRA) = U2X_bit<<U2X_shift;
    2478:	18 82       	st	Y, r1
	(UART_addr->UCSRC) = Asynchronous|No_Parity|One_Stop_Bit|Eight_Data_Bits;
    247a:	86 e0       	ldi	r24, 0x06	; 6
    247c:	8a 83       	std	Y+2, r24	; 0x02
	(UART_addr->UCSRB) = RX_enable|TX_enable;
    247e:	88 e1       	ldi	r24, 0x18	; 24
    2480:	89 83       	std	Y+1, r24	; 0x01
}
    2482:	df 91       	pop	r29
    2484:	cf 91       	pop	r28
    2486:	08 95       	ret

00002488 <UART_Transmit>:

char UART_Transmit(volatile UART_t * UART_addr, char c)
{
    2488:	fc 01       	movw	r30, r24
	uint8_t status;
	do
	{
		status=(UART_addr->UCSRA);
    248a:	90 81       	ld	r25, Z
	} while ((status & (1 << UDRE))!=(1 << UDRE));
    248c:	95 ff       	sbrs	r25, 5
    248e:	fd cf       	rjmp	.-6      	; 0x248a <UART_Transmit+0x2>
	(UART_addr->UDR) = c;
    2490:	66 83       	std	Z+6, r22	; 0x06
	return 0;
}
    2492:	80 e0       	ldi	r24, 0x00	; 0
    2494:	08 95       	ret

00002496 <UART_Receive>:


char UART_Receive(volatile UART_t * UART_addr)
{
    2496:	fc 01       	movw	r30, r24
	uint8_t status;
	do 
	{
		status=(UART_addr->UCSRA);
    2498:	90 81       	ld	r25, Z
	} while ((status & (1 << RXC))!=(1 << RXC));
    249a:	99 23       	and	r25, r25
    249c:	ec f7       	brge	.-6      	; 0x2498 <UART_Receive+0x2>
	return (UART_addr->UDR);  // return the value in the receive buffer
    249e:	86 81       	ldd	r24, Z+6	; 0x06
}
    24a0:	08 95       	ret

000024a2 <Export_print_buffer>:
			buffer_p[index]=value;
		}
		index=num_bytes;
	}
	return index;
}
    24a2:	86 e1       	ldi	r24, 0x16	; 22
    24a4:	92 e0       	ldi	r25, 0x02	; 2
    24a6:	08 95       	ret

000024a8 <UART_Transmit_String>:

void UART_Transmit_String(volatile UART_t * UART_addr, uint8_t num_bytes, char * string_name)
{
    24a8:	ef 92       	push	r14
    24aa:	ff 92       	push	r15
    24ac:	0f 93       	push	r16
    24ae:	1f 93       	push	r17
    24b0:	cf 93       	push	r28
    24b2:	df 93       	push	r29
    24b4:	7c 01       	movw	r14, r24
    24b6:	06 2f       	mov	r16, r22
    24b8:	ea 01       	movw	r28, r20
	char temp8;
	int8_t index;
	if(num_bytes==0)
    24ba:	61 11       	cpse	r22, r1
    24bc:	15 c0       	rjmp	.+42     	; 0x24e8 <UART_Transmit_String+0x40>
	{
		temp8=*string_name;
    24be:	68 81       	ld	r22, Y
		while (temp8!=0)
    24c0:	05 c0       	rjmp	.+10     	; 0x24cc <UART_Transmit_String+0x24>
		{
			UART_Transmit(UART_addr, temp8);
    24c2:	c7 01       	movw	r24, r14
    24c4:	0e 94 44 12 	call	0x2488	; 0x2488 <UART_Transmit>
			string_name++;
    24c8:	21 96       	adiw	r28, 0x01	; 1
			temp8=*string_name;
    24ca:	68 81       	ld	r22, Y
	char temp8;
	int8_t index;
	if(num_bytes==0)
	{
		temp8=*string_name;
		while (temp8!=0)
    24cc:	61 11       	cpse	r22, r1
    24ce:	f9 cf       	rjmp	.-14     	; 0x24c2 <UART_Transmit_String+0x1a>
    24d0:	15 c0       	rjmp	.+42     	; 0x24fc <UART_Transmit_String+0x54>
	}
	else
	{
		for(index=0;index<num_bytes;index++)
		{
			UART_Transmit(UART_addr, string_name[index]);
    24d2:	fe 01       	movw	r30, r28
    24d4:	e1 0f       	add	r30, r17
    24d6:	f1 1d       	adc	r31, r1
    24d8:	17 fd       	sbrc	r17, 7
    24da:	fa 95       	dec	r31
    24dc:	60 81       	ld	r22, Z
    24de:	c7 01       	movw	r24, r14
    24e0:	0e 94 44 12 	call	0x2488	; 0x2488 <UART_Transmit>
			temp8=*string_name;
		}
	}
	else
	{
		for(index=0;index<num_bytes;index++)
    24e4:	1f 5f       	subi	r17, 0xFF	; 255
    24e6:	01 c0       	rjmp	.+2      	; 0x24ea <UART_Transmit_String+0x42>
    24e8:	10 e0       	ldi	r17, 0x00	; 0
    24ea:	20 2f       	mov	r18, r16
    24ec:	30 e0       	ldi	r19, 0x00	; 0
    24ee:	81 2f       	mov	r24, r17
    24f0:	01 2e       	mov	r0, r17
    24f2:	00 0c       	add	r0, r0
    24f4:	99 0b       	sbc	r25, r25
    24f6:	82 17       	cp	r24, r18
    24f8:	93 07       	cpc	r25, r19
    24fa:	5c f3       	brlt	.-42     	; 0x24d2 <UART_Transmit_String+0x2a>
		{
			UART_Transmit(UART_addr, string_name[index]);
		}
	}
}
    24fc:	df 91       	pop	r29
    24fe:	cf 91       	pop	r28
    2500:	1f 91       	pop	r17
    2502:	0f 91       	pop	r16
    2504:	ff 90       	pop	r15
    2506:	ef 90       	pop	r14
    2508:	08 95       	ret

0000250a <__mulsi3>:
    250a:	db 01       	movw	r26, r22
    250c:	8f 93       	push	r24
    250e:	9f 93       	push	r25
    2510:	0e 94 cb 12 	call	0x2596	; 0x2596 <__muluhisi3>
    2514:	bf 91       	pop	r27
    2516:	af 91       	pop	r26
    2518:	a2 9f       	mul	r26, r18
    251a:	80 0d       	add	r24, r0
    251c:	91 1d       	adc	r25, r1
    251e:	a3 9f       	mul	r26, r19
    2520:	90 0d       	add	r25, r0
    2522:	b2 9f       	mul	r27, r18
    2524:	90 0d       	add	r25, r0
    2526:	11 24       	eor	r1, r1
    2528:	08 95       	ret

0000252a <__udivmodhi4>:
    252a:	aa 1b       	sub	r26, r26
    252c:	bb 1b       	sub	r27, r27
    252e:	51 e1       	ldi	r21, 0x11	; 17
    2530:	07 c0       	rjmp	.+14     	; 0x2540 <__udivmodhi4_ep>

00002532 <__udivmodhi4_loop>:
    2532:	aa 1f       	adc	r26, r26
    2534:	bb 1f       	adc	r27, r27
    2536:	a6 17       	cp	r26, r22
    2538:	b7 07       	cpc	r27, r23
    253a:	10 f0       	brcs	.+4      	; 0x2540 <__udivmodhi4_ep>
    253c:	a6 1b       	sub	r26, r22
    253e:	b7 0b       	sbc	r27, r23

00002540 <__udivmodhi4_ep>:
    2540:	88 1f       	adc	r24, r24
    2542:	99 1f       	adc	r25, r25
    2544:	5a 95       	dec	r21
    2546:	a9 f7       	brne	.-22     	; 0x2532 <__udivmodhi4_loop>
    2548:	80 95       	com	r24
    254a:	90 95       	com	r25
    254c:	bc 01       	movw	r22, r24
    254e:	cd 01       	movw	r24, r26
    2550:	08 95       	ret

00002552 <__udivmodsi4>:
    2552:	a1 e2       	ldi	r26, 0x21	; 33
    2554:	1a 2e       	mov	r1, r26
    2556:	aa 1b       	sub	r26, r26
    2558:	bb 1b       	sub	r27, r27
    255a:	fd 01       	movw	r30, r26
    255c:	0d c0       	rjmp	.+26     	; 0x2578 <__udivmodsi4_ep>

0000255e <__udivmodsi4_loop>:
    255e:	aa 1f       	adc	r26, r26
    2560:	bb 1f       	adc	r27, r27
    2562:	ee 1f       	adc	r30, r30
    2564:	ff 1f       	adc	r31, r31
    2566:	a2 17       	cp	r26, r18
    2568:	b3 07       	cpc	r27, r19
    256a:	e4 07       	cpc	r30, r20
    256c:	f5 07       	cpc	r31, r21
    256e:	20 f0       	brcs	.+8      	; 0x2578 <__udivmodsi4_ep>
    2570:	a2 1b       	sub	r26, r18
    2572:	b3 0b       	sbc	r27, r19
    2574:	e4 0b       	sbc	r30, r20
    2576:	f5 0b       	sbc	r31, r21

00002578 <__udivmodsi4_ep>:
    2578:	66 1f       	adc	r22, r22
    257a:	77 1f       	adc	r23, r23
    257c:	88 1f       	adc	r24, r24
    257e:	99 1f       	adc	r25, r25
    2580:	1a 94       	dec	r1
    2582:	69 f7       	brne	.-38     	; 0x255e <__udivmodsi4_loop>
    2584:	60 95       	com	r22
    2586:	70 95       	com	r23
    2588:	80 95       	com	r24
    258a:	90 95       	com	r25
    258c:	9b 01       	movw	r18, r22
    258e:	ac 01       	movw	r20, r24
    2590:	bd 01       	movw	r22, r26
    2592:	cf 01       	movw	r24, r30
    2594:	08 95       	ret

00002596 <__muluhisi3>:
    2596:	0e 94 d6 12 	call	0x25ac	; 0x25ac <__umulhisi3>
    259a:	a5 9f       	mul	r26, r21
    259c:	90 0d       	add	r25, r0
    259e:	b4 9f       	mul	r27, r20
    25a0:	90 0d       	add	r25, r0
    25a2:	a4 9f       	mul	r26, r20
    25a4:	80 0d       	add	r24, r0
    25a6:	91 1d       	adc	r25, r1
    25a8:	11 24       	eor	r1, r1
    25aa:	08 95       	ret

000025ac <__umulhisi3>:
    25ac:	a2 9f       	mul	r26, r18
    25ae:	b0 01       	movw	r22, r0
    25b0:	b3 9f       	mul	r27, r19
    25b2:	c0 01       	movw	r24, r0
    25b4:	a3 9f       	mul	r26, r19
    25b6:	70 0d       	add	r23, r0
    25b8:	81 1d       	adc	r24, r1
    25ba:	11 24       	eor	r1, r1
    25bc:	91 1d       	adc	r25, r1
    25be:	b2 9f       	mul	r27, r18
    25c0:	70 0d       	add	r23, r0
    25c2:	81 1d       	adc	r24, r1
    25c4:	11 24       	eor	r1, r1
    25c6:	91 1d       	adc	r25, r1
    25c8:	08 95       	ret

000025ca <atol>:
    25ca:	1f 93       	push	r17
    25cc:	fc 01       	movw	r30, r24
    25ce:	99 27       	eor	r25, r25
    25d0:	88 27       	eor	r24, r24
    25d2:	bc 01       	movw	r22, r24
    25d4:	e8 94       	clt
    25d6:	11 91       	ld	r17, Z+
    25d8:	10 32       	cpi	r17, 0x20	; 32
    25da:	e9 f3       	breq	.-6      	; 0x25d6 <atol+0xc>
    25dc:	19 30       	cpi	r17, 0x09	; 9
    25de:	10 f0       	brcs	.+4      	; 0x25e4 <atol+0x1a>
    25e0:	1e 30       	cpi	r17, 0x0E	; 14
    25e2:	c8 f3       	brcs	.-14     	; 0x25d6 <atol+0xc>
    25e4:	1b 32       	cpi	r17, 0x2B	; 43
    25e6:	51 f0       	breq	.+20     	; 0x25fc <atol+0x32>
    25e8:	1d 32       	cpi	r17, 0x2D	; 45
    25ea:	49 f4       	brne	.+18     	; 0x25fe <atol+0x34>
    25ec:	68 94       	set
    25ee:	06 c0       	rjmp	.+12     	; 0x25fc <atol+0x32>
    25f0:	0e 94 0c 13 	call	0x2618	; 0x2618 <__mulsi_const_10>
    25f4:	61 0f       	add	r22, r17
    25f6:	71 1d       	adc	r23, r1
    25f8:	81 1d       	adc	r24, r1
    25fa:	91 1d       	adc	r25, r1
    25fc:	11 91       	ld	r17, Z+
    25fe:	10 53       	subi	r17, 0x30	; 48
    2600:	1a 30       	cpi	r17, 0x0A	; 10
    2602:	b0 f3       	brcs	.-20     	; 0x25f0 <atol+0x26>
    2604:	3e f4       	brtc	.+14     	; 0x2614 <atol+0x4a>
    2606:	90 95       	com	r25
    2608:	80 95       	com	r24
    260a:	70 95       	com	r23
    260c:	61 95       	neg	r22
    260e:	7f 4f       	sbci	r23, 0xFF	; 255
    2610:	8f 4f       	sbci	r24, 0xFF	; 255
    2612:	9f 4f       	sbci	r25, 0xFF	; 255
    2614:	1f 91       	pop	r17
    2616:	08 95       	ret

00002618 <__mulsi_const_10>:
    2618:	59 2f       	mov	r21, r25
    261a:	48 2f       	mov	r20, r24
    261c:	37 2f       	mov	r19, r23
    261e:	26 2f       	mov	r18, r22
    2620:	66 0f       	add	r22, r22
    2622:	77 1f       	adc	r23, r23
    2624:	88 1f       	adc	r24, r24
    2626:	99 1f       	adc	r25, r25
    2628:	66 0f       	add	r22, r22
    262a:	77 1f       	adc	r23, r23
    262c:	88 1f       	adc	r24, r24
    262e:	99 1f       	adc	r25, r25
    2630:	62 0f       	add	r22, r18
    2632:	73 1f       	adc	r23, r19
    2634:	84 1f       	adc	r24, r20
    2636:	95 1f       	adc	r25, r21
    2638:	66 0f       	add	r22, r22
    263a:	77 1f       	adc	r23, r23
    263c:	88 1f       	adc	r24, r24
    263e:	99 1f       	adc	r25, r25
    2640:	08 95       	ret

00002642 <sprintf>:
    2642:	ae e0       	ldi	r26, 0x0E	; 14
    2644:	b0 e0       	ldi	r27, 0x00	; 0
    2646:	e7 e2       	ldi	r30, 0x27	; 39
    2648:	f3 e1       	ldi	r31, 0x13	; 19
    264a:	0c 94 e2 15 	jmp	0x2bc4	; 0x2bc4 <__prologue_saves__+0x1c>
    264e:	0d 89       	ldd	r16, Y+21	; 0x15
    2650:	1e 89       	ldd	r17, Y+22	; 0x16
    2652:	86 e0       	ldi	r24, 0x06	; 6
    2654:	8c 83       	std	Y+4, r24	; 0x04
    2656:	1a 83       	std	Y+2, r17	; 0x02
    2658:	09 83       	std	Y+1, r16	; 0x01
    265a:	8f ef       	ldi	r24, 0xFF	; 255
    265c:	9f e7       	ldi	r25, 0x7F	; 127
    265e:	9e 83       	std	Y+6, r25	; 0x06
    2660:	8d 83       	std	Y+5, r24	; 0x05
    2662:	ae 01       	movw	r20, r28
    2664:	47 5e       	subi	r20, 0xE7	; 231
    2666:	5f 4f       	sbci	r21, 0xFF	; 255
    2668:	6f 89       	ldd	r22, Y+23	; 0x17
    266a:	78 8d       	ldd	r23, Y+24	; 0x18
    266c:	ce 01       	movw	r24, r28
    266e:	01 96       	adiw	r24, 0x01	; 1
    2670:	0e 94 43 13 	call	0x2686	; 0x2686 <vfprintf>
    2674:	ef 81       	ldd	r30, Y+7	; 0x07
    2676:	f8 85       	ldd	r31, Y+8	; 0x08
    2678:	e0 0f       	add	r30, r16
    267a:	f1 1f       	adc	r31, r17
    267c:	10 82       	st	Z, r1
    267e:	2e 96       	adiw	r28, 0x0e	; 14
    2680:	e4 e0       	ldi	r30, 0x04	; 4
    2682:	0c 94 fe 15 	jmp	0x2bfc	; 0x2bfc <__epilogue_restores__+0x1c>

00002686 <vfprintf>:
    2686:	ab e0       	ldi	r26, 0x0B	; 11
    2688:	b0 e0       	ldi	r27, 0x00	; 0
    268a:	e9 e4       	ldi	r30, 0x49	; 73
    268c:	f3 e1       	ldi	r31, 0x13	; 19
    268e:	0c 94 d4 15 	jmp	0x2ba8	; 0x2ba8 <__prologue_saves__>
    2692:	6c 01       	movw	r12, r24
    2694:	7b 01       	movw	r14, r22
    2696:	8a 01       	movw	r16, r20
    2698:	fc 01       	movw	r30, r24
    269a:	17 82       	std	Z+7, r1	; 0x07
    269c:	16 82       	std	Z+6, r1	; 0x06
    269e:	83 81       	ldd	r24, Z+3	; 0x03
    26a0:	81 ff       	sbrs	r24, 1
    26a2:	cc c1       	rjmp	.+920    	; 0x2a3c <vfprintf+0x3b6>
    26a4:	ce 01       	movw	r24, r28
    26a6:	01 96       	adiw	r24, 0x01	; 1
    26a8:	3c 01       	movw	r6, r24
    26aa:	f6 01       	movw	r30, r12
    26ac:	93 81       	ldd	r25, Z+3	; 0x03
    26ae:	f7 01       	movw	r30, r14
    26b0:	93 fd       	sbrc	r25, 3
    26b2:	85 91       	lpm	r24, Z+
    26b4:	93 ff       	sbrs	r25, 3
    26b6:	81 91       	ld	r24, Z+
    26b8:	7f 01       	movw	r14, r30
    26ba:	88 23       	and	r24, r24
    26bc:	09 f4       	brne	.+2      	; 0x26c0 <vfprintf+0x3a>
    26be:	ba c1       	rjmp	.+884    	; 0x2a34 <vfprintf+0x3ae>
    26c0:	85 32       	cpi	r24, 0x25	; 37
    26c2:	39 f4       	brne	.+14     	; 0x26d2 <vfprintf+0x4c>
    26c4:	93 fd       	sbrc	r25, 3
    26c6:	85 91       	lpm	r24, Z+
    26c8:	93 ff       	sbrs	r25, 3
    26ca:	81 91       	ld	r24, Z+
    26cc:	7f 01       	movw	r14, r30
    26ce:	85 32       	cpi	r24, 0x25	; 37
    26d0:	29 f4       	brne	.+10     	; 0x26dc <vfprintf+0x56>
    26d2:	b6 01       	movw	r22, r12
    26d4:	90 e0       	ldi	r25, 0x00	; 0
    26d6:	0e 94 3a 15 	call	0x2a74	; 0x2a74 <fputc>
    26da:	e7 cf       	rjmp	.-50     	; 0x26aa <vfprintf+0x24>
    26dc:	91 2c       	mov	r9, r1
    26de:	21 2c       	mov	r2, r1
    26e0:	31 2c       	mov	r3, r1
    26e2:	ff e1       	ldi	r31, 0x1F	; 31
    26e4:	f3 15       	cp	r31, r3
    26e6:	d8 f0       	brcs	.+54     	; 0x271e <vfprintf+0x98>
    26e8:	8b 32       	cpi	r24, 0x2B	; 43
    26ea:	79 f0       	breq	.+30     	; 0x270a <vfprintf+0x84>
    26ec:	38 f4       	brcc	.+14     	; 0x26fc <vfprintf+0x76>
    26ee:	80 32       	cpi	r24, 0x20	; 32
    26f0:	79 f0       	breq	.+30     	; 0x2710 <vfprintf+0x8a>
    26f2:	83 32       	cpi	r24, 0x23	; 35
    26f4:	a1 f4       	brne	.+40     	; 0x271e <vfprintf+0x98>
    26f6:	23 2d       	mov	r18, r3
    26f8:	20 61       	ori	r18, 0x10	; 16
    26fa:	1d c0       	rjmp	.+58     	; 0x2736 <vfprintf+0xb0>
    26fc:	8d 32       	cpi	r24, 0x2D	; 45
    26fe:	61 f0       	breq	.+24     	; 0x2718 <vfprintf+0x92>
    2700:	80 33       	cpi	r24, 0x30	; 48
    2702:	69 f4       	brne	.+26     	; 0x271e <vfprintf+0x98>
    2704:	23 2d       	mov	r18, r3
    2706:	21 60       	ori	r18, 0x01	; 1
    2708:	16 c0       	rjmp	.+44     	; 0x2736 <vfprintf+0xb0>
    270a:	83 2d       	mov	r24, r3
    270c:	82 60       	ori	r24, 0x02	; 2
    270e:	38 2e       	mov	r3, r24
    2710:	e3 2d       	mov	r30, r3
    2712:	e4 60       	ori	r30, 0x04	; 4
    2714:	3e 2e       	mov	r3, r30
    2716:	2a c0       	rjmp	.+84     	; 0x276c <vfprintf+0xe6>
    2718:	f3 2d       	mov	r31, r3
    271a:	f8 60       	ori	r31, 0x08	; 8
    271c:	1d c0       	rjmp	.+58     	; 0x2758 <vfprintf+0xd2>
    271e:	37 fc       	sbrc	r3, 7
    2720:	2d c0       	rjmp	.+90     	; 0x277c <vfprintf+0xf6>
    2722:	20 ed       	ldi	r18, 0xD0	; 208
    2724:	28 0f       	add	r18, r24
    2726:	2a 30       	cpi	r18, 0x0A	; 10
    2728:	40 f0       	brcs	.+16     	; 0x273a <vfprintf+0xb4>
    272a:	8e 32       	cpi	r24, 0x2E	; 46
    272c:	b9 f4       	brne	.+46     	; 0x275c <vfprintf+0xd6>
    272e:	36 fc       	sbrc	r3, 6
    2730:	81 c1       	rjmp	.+770    	; 0x2a34 <vfprintf+0x3ae>
    2732:	23 2d       	mov	r18, r3
    2734:	20 64       	ori	r18, 0x40	; 64
    2736:	32 2e       	mov	r3, r18
    2738:	19 c0       	rjmp	.+50     	; 0x276c <vfprintf+0xe6>
    273a:	36 fe       	sbrs	r3, 6
    273c:	06 c0       	rjmp	.+12     	; 0x274a <vfprintf+0xc4>
    273e:	8a e0       	ldi	r24, 0x0A	; 10
    2740:	98 9e       	mul	r9, r24
    2742:	20 0d       	add	r18, r0
    2744:	11 24       	eor	r1, r1
    2746:	92 2e       	mov	r9, r18
    2748:	11 c0       	rjmp	.+34     	; 0x276c <vfprintf+0xe6>
    274a:	ea e0       	ldi	r30, 0x0A	; 10
    274c:	2e 9e       	mul	r2, r30
    274e:	20 0d       	add	r18, r0
    2750:	11 24       	eor	r1, r1
    2752:	22 2e       	mov	r2, r18
    2754:	f3 2d       	mov	r31, r3
    2756:	f0 62       	ori	r31, 0x20	; 32
    2758:	3f 2e       	mov	r3, r31
    275a:	08 c0       	rjmp	.+16     	; 0x276c <vfprintf+0xe6>
    275c:	8c 36       	cpi	r24, 0x6C	; 108
    275e:	21 f4       	brne	.+8      	; 0x2768 <vfprintf+0xe2>
    2760:	83 2d       	mov	r24, r3
    2762:	80 68       	ori	r24, 0x80	; 128
    2764:	38 2e       	mov	r3, r24
    2766:	02 c0       	rjmp	.+4      	; 0x276c <vfprintf+0xe6>
    2768:	88 36       	cpi	r24, 0x68	; 104
    276a:	41 f4       	brne	.+16     	; 0x277c <vfprintf+0xf6>
    276c:	f7 01       	movw	r30, r14
    276e:	93 fd       	sbrc	r25, 3
    2770:	85 91       	lpm	r24, Z+
    2772:	93 ff       	sbrs	r25, 3
    2774:	81 91       	ld	r24, Z+
    2776:	7f 01       	movw	r14, r30
    2778:	81 11       	cpse	r24, r1
    277a:	b3 cf       	rjmp	.-154    	; 0x26e2 <vfprintf+0x5c>
    277c:	98 2f       	mov	r25, r24
    277e:	9f 7d       	andi	r25, 0xDF	; 223
    2780:	95 54       	subi	r25, 0x45	; 69
    2782:	93 30       	cpi	r25, 0x03	; 3
    2784:	28 f4       	brcc	.+10     	; 0x2790 <vfprintf+0x10a>
    2786:	0c 5f       	subi	r16, 0xFC	; 252
    2788:	1f 4f       	sbci	r17, 0xFF	; 255
    278a:	9f e3       	ldi	r25, 0x3F	; 63
    278c:	99 83       	std	Y+1, r25	; 0x01
    278e:	0d c0       	rjmp	.+26     	; 0x27aa <vfprintf+0x124>
    2790:	83 36       	cpi	r24, 0x63	; 99
    2792:	31 f0       	breq	.+12     	; 0x27a0 <vfprintf+0x11a>
    2794:	83 37       	cpi	r24, 0x73	; 115
    2796:	71 f0       	breq	.+28     	; 0x27b4 <vfprintf+0x12e>
    2798:	83 35       	cpi	r24, 0x53	; 83
    279a:	09 f0       	breq	.+2      	; 0x279e <vfprintf+0x118>
    279c:	59 c0       	rjmp	.+178    	; 0x2850 <vfprintf+0x1ca>
    279e:	21 c0       	rjmp	.+66     	; 0x27e2 <vfprintf+0x15c>
    27a0:	f8 01       	movw	r30, r16
    27a2:	80 81       	ld	r24, Z
    27a4:	89 83       	std	Y+1, r24	; 0x01
    27a6:	0e 5f       	subi	r16, 0xFE	; 254
    27a8:	1f 4f       	sbci	r17, 0xFF	; 255
    27aa:	88 24       	eor	r8, r8
    27ac:	83 94       	inc	r8
    27ae:	91 2c       	mov	r9, r1
    27b0:	53 01       	movw	r10, r6
    27b2:	13 c0       	rjmp	.+38     	; 0x27da <vfprintf+0x154>
    27b4:	28 01       	movw	r4, r16
    27b6:	f2 e0       	ldi	r31, 0x02	; 2
    27b8:	4f 0e       	add	r4, r31
    27ba:	51 1c       	adc	r5, r1
    27bc:	f8 01       	movw	r30, r16
    27be:	a0 80       	ld	r10, Z
    27c0:	b1 80       	ldd	r11, Z+1	; 0x01
    27c2:	36 fe       	sbrs	r3, 6
    27c4:	03 c0       	rjmp	.+6      	; 0x27cc <vfprintf+0x146>
    27c6:	69 2d       	mov	r22, r9
    27c8:	70 e0       	ldi	r23, 0x00	; 0
    27ca:	02 c0       	rjmp	.+4      	; 0x27d0 <vfprintf+0x14a>
    27cc:	6f ef       	ldi	r22, 0xFF	; 255
    27ce:	7f ef       	ldi	r23, 0xFF	; 255
    27d0:	c5 01       	movw	r24, r10
    27d2:	0e 94 2f 15 	call	0x2a5e	; 0x2a5e <strnlen>
    27d6:	4c 01       	movw	r8, r24
    27d8:	82 01       	movw	r16, r4
    27da:	f3 2d       	mov	r31, r3
    27dc:	ff 77       	andi	r31, 0x7F	; 127
    27de:	3f 2e       	mov	r3, r31
    27e0:	16 c0       	rjmp	.+44     	; 0x280e <vfprintf+0x188>
    27e2:	28 01       	movw	r4, r16
    27e4:	22 e0       	ldi	r18, 0x02	; 2
    27e6:	42 0e       	add	r4, r18
    27e8:	51 1c       	adc	r5, r1
    27ea:	f8 01       	movw	r30, r16
    27ec:	a0 80       	ld	r10, Z
    27ee:	b1 80       	ldd	r11, Z+1	; 0x01
    27f0:	36 fe       	sbrs	r3, 6
    27f2:	03 c0       	rjmp	.+6      	; 0x27fa <vfprintf+0x174>
    27f4:	69 2d       	mov	r22, r9
    27f6:	70 e0       	ldi	r23, 0x00	; 0
    27f8:	02 c0       	rjmp	.+4      	; 0x27fe <vfprintf+0x178>
    27fa:	6f ef       	ldi	r22, 0xFF	; 255
    27fc:	7f ef       	ldi	r23, 0xFF	; 255
    27fe:	c5 01       	movw	r24, r10
    2800:	0e 94 24 15 	call	0x2a48	; 0x2a48 <strnlen_P>
    2804:	4c 01       	movw	r8, r24
    2806:	f3 2d       	mov	r31, r3
    2808:	f0 68       	ori	r31, 0x80	; 128
    280a:	3f 2e       	mov	r3, r31
    280c:	82 01       	movw	r16, r4
    280e:	33 fc       	sbrc	r3, 3
    2810:	1b c0       	rjmp	.+54     	; 0x2848 <vfprintf+0x1c2>
    2812:	82 2d       	mov	r24, r2
    2814:	90 e0       	ldi	r25, 0x00	; 0
    2816:	88 16       	cp	r8, r24
    2818:	99 06       	cpc	r9, r25
    281a:	b0 f4       	brcc	.+44     	; 0x2848 <vfprintf+0x1c2>
    281c:	b6 01       	movw	r22, r12
    281e:	80 e2       	ldi	r24, 0x20	; 32
    2820:	90 e0       	ldi	r25, 0x00	; 0
    2822:	0e 94 3a 15 	call	0x2a74	; 0x2a74 <fputc>
    2826:	2a 94       	dec	r2
    2828:	f4 cf       	rjmp	.-24     	; 0x2812 <vfprintf+0x18c>
    282a:	f5 01       	movw	r30, r10
    282c:	37 fc       	sbrc	r3, 7
    282e:	85 91       	lpm	r24, Z+
    2830:	37 fe       	sbrs	r3, 7
    2832:	81 91       	ld	r24, Z+
    2834:	5f 01       	movw	r10, r30
    2836:	b6 01       	movw	r22, r12
    2838:	90 e0       	ldi	r25, 0x00	; 0
    283a:	0e 94 3a 15 	call	0x2a74	; 0x2a74 <fputc>
    283e:	21 10       	cpse	r2, r1
    2840:	2a 94       	dec	r2
    2842:	21 e0       	ldi	r18, 0x01	; 1
    2844:	82 1a       	sub	r8, r18
    2846:	91 08       	sbc	r9, r1
    2848:	81 14       	cp	r8, r1
    284a:	91 04       	cpc	r9, r1
    284c:	71 f7       	brne	.-36     	; 0x282a <vfprintf+0x1a4>
    284e:	e8 c0       	rjmp	.+464    	; 0x2a20 <vfprintf+0x39a>
    2850:	84 36       	cpi	r24, 0x64	; 100
    2852:	11 f0       	breq	.+4      	; 0x2858 <vfprintf+0x1d2>
    2854:	89 36       	cpi	r24, 0x69	; 105
    2856:	41 f5       	brne	.+80     	; 0x28a8 <vfprintf+0x222>
    2858:	f8 01       	movw	r30, r16
    285a:	37 fe       	sbrs	r3, 7
    285c:	07 c0       	rjmp	.+14     	; 0x286c <vfprintf+0x1e6>
    285e:	60 81       	ld	r22, Z
    2860:	71 81       	ldd	r23, Z+1	; 0x01
    2862:	82 81       	ldd	r24, Z+2	; 0x02
    2864:	93 81       	ldd	r25, Z+3	; 0x03
    2866:	0c 5f       	subi	r16, 0xFC	; 252
    2868:	1f 4f       	sbci	r17, 0xFF	; 255
    286a:	08 c0       	rjmp	.+16     	; 0x287c <vfprintf+0x1f6>
    286c:	60 81       	ld	r22, Z
    286e:	71 81       	ldd	r23, Z+1	; 0x01
    2870:	07 2e       	mov	r0, r23
    2872:	00 0c       	add	r0, r0
    2874:	88 0b       	sbc	r24, r24
    2876:	99 0b       	sbc	r25, r25
    2878:	0e 5f       	subi	r16, 0xFE	; 254
    287a:	1f 4f       	sbci	r17, 0xFF	; 255
    287c:	f3 2d       	mov	r31, r3
    287e:	ff 76       	andi	r31, 0x6F	; 111
    2880:	3f 2e       	mov	r3, r31
    2882:	97 ff       	sbrs	r25, 7
    2884:	09 c0       	rjmp	.+18     	; 0x2898 <vfprintf+0x212>
    2886:	90 95       	com	r25
    2888:	80 95       	com	r24
    288a:	70 95       	com	r23
    288c:	61 95       	neg	r22
    288e:	7f 4f       	sbci	r23, 0xFF	; 255
    2890:	8f 4f       	sbci	r24, 0xFF	; 255
    2892:	9f 4f       	sbci	r25, 0xFF	; 255
    2894:	f0 68       	ori	r31, 0x80	; 128
    2896:	3f 2e       	mov	r3, r31
    2898:	2a e0       	ldi	r18, 0x0A	; 10
    289a:	30 e0       	ldi	r19, 0x00	; 0
    289c:	a3 01       	movw	r20, r6
    289e:	0e 94 76 15 	call	0x2aec	; 0x2aec <__ultoa_invert>
    28a2:	88 2e       	mov	r8, r24
    28a4:	86 18       	sub	r8, r6
    28a6:	45 c0       	rjmp	.+138    	; 0x2932 <vfprintf+0x2ac>
    28a8:	85 37       	cpi	r24, 0x75	; 117
    28aa:	31 f4       	brne	.+12     	; 0x28b8 <vfprintf+0x232>
    28ac:	23 2d       	mov	r18, r3
    28ae:	2f 7e       	andi	r18, 0xEF	; 239
    28b0:	b2 2e       	mov	r11, r18
    28b2:	2a e0       	ldi	r18, 0x0A	; 10
    28b4:	30 e0       	ldi	r19, 0x00	; 0
    28b6:	25 c0       	rjmp	.+74     	; 0x2902 <vfprintf+0x27c>
    28b8:	93 2d       	mov	r25, r3
    28ba:	99 7f       	andi	r25, 0xF9	; 249
    28bc:	b9 2e       	mov	r11, r25
    28be:	8f 36       	cpi	r24, 0x6F	; 111
    28c0:	c1 f0       	breq	.+48     	; 0x28f2 <vfprintf+0x26c>
    28c2:	18 f4       	brcc	.+6      	; 0x28ca <vfprintf+0x244>
    28c4:	88 35       	cpi	r24, 0x58	; 88
    28c6:	79 f0       	breq	.+30     	; 0x28e6 <vfprintf+0x260>
    28c8:	b5 c0       	rjmp	.+362    	; 0x2a34 <vfprintf+0x3ae>
    28ca:	80 37       	cpi	r24, 0x70	; 112
    28cc:	19 f0       	breq	.+6      	; 0x28d4 <vfprintf+0x24e>
    28ce:	88 37       	cpi	r24, 0x78	; 120
    28d0:	21 f0       	breq	.+8      	; 0x28da <vfprintf+0x254>
    28d2:	b0 c0       	rjmp	.+352    	; 0x2a34 <vfprintf+0x3ae>
    28d4:	e9 2f       	mov	r30, r25
    28d6:	e0 61       	ori	r30, 0x10	; 16
    28d8:	be 2e       	mov	r11, r30
    28da:	b4 fe       	sbrs	r11, 4
    28dc:	0d c0       	rjmp	.+26     	; 0x28f8 <vfprintf+0x272>
    28de:	fb 2d       	mov	r31, r11
    28e0:	f4 60       	ori	r31, 0x04	; 4
    28e2:	bf 2e       	mov	r11, r31
    28e4:	09 c0       	rjmp	.+18     	; 0x28f8 <vfprintf+0x272>
    28e6:	34 fe       	sbrs	r3, 4
    28e8:	0a c0       	rjmp	.+20     	; 0x28fe <vfprintf+0x278>
    28ea:	29 2f       	mov	r18, r25
    28ec:	26 60       	ori	r18, 0x06	; 6
    28ee:	b2 2e       	mov	r11, r18
    28f0:	06 c0       	rjmp	.+12     	; 0x28fe <vfprintf+0x278>
    28f2:	28 e0       	ldi	r18, 0x08	; 8
    28f4:	30 e0       	ldi	r19, 0x00	; 0
    28f6:	05 c0       	rjmp	.+10     	; 0x2902 <vfprintf+0x27c>
    28f8:	20 e1       	ldi	r18, 0x10	; 16
    28fa:	30 e0       	ldi	r19, 0x00	; 0
    28fc:	02 c0       	rjmp	.+4      	; 0x2902 <vfprintf+0x27c>
    28fe:	20 e1       	ldi	r18, 0x10	; 16
    2900:	32 e0       	ldi	r19, 0x02	; 2
    2902:	f8 01       	movw	r30, r16
    2904:	b7 fe       	sbrs	r11, 7
    2906:	07 c0       	rjmp	.+14     	; 0x2916 <vfprintf+0x290>
    2908:	60 81       	ld	r22, Z
    290a:	71 81       	ldd	r23, Z+1	; 0x01
    290c:	82 81       	ldd	r24, Z+2	; 0x02
    290e:	93 81       	ldd	r25, Z+3	; 0x03
    2910:	0c 5f       	subi	r16, 0xFC	; 252
    2912:	1f 4f       	sbci	r17, 0xFF	; 255
    2914:	06 c0       	rjmp	.+12     	; 0x2922 <vfprintf+0x29c>
    2916:	60 81       	ld	r22, Z
    2918:	71 81       	ldd	r23, Z+1	; 0x01
    291a:	80 e0       	ldi	r24, 0x00	; 0
    291c:	90 e0       	ldi	r25, 0x00	; 0
    291e:	0e 5f       	subi	r16, 0xFE	; 254
    2920:	1f 4f       	sbci	r17, 0xFF	; 255
    2922:	a3 01       	movw	r20, r6
    2924:	0e 94 76 15 	call	0x2aec	; 0x2aec <__ultoa_invert>
    2928:	88 2e       	mov	r8, r24
    292a:	86 18       	sub	r8, r6
    292c:	fb 2d       	mov	r31, r11
    292e:	ff 77       	andi	r31, 0x7F	; 127
    2930:	3f 2e       	mov	r3, r31
    2932:	36 fe       	sbrs	r3, 6
    2934:	0d c0       	rjmp	.+26     	; 0x2950 <vfprintf+0x2ca>
    2936:	23 2d       	mov	r18, r3
    2938:	2e 7f       	andi	r18, 0xFE	; 254
    293a:	a2 2e       	mov	r10, r18
    293c:	89 14       	cp	r8, r9
    293e:	58 f4       	brcc	.+22     	; 0x2956 <vfprintf+0x2d0>
    2940:	34 fe       	sbrs	r3, 4
    2942:	0b c0       	rjmp	.+22     	; 0x295a <vfprintf+0x2d4>
    2944:	32 fc       	sbrc	r3, 2
    2946:	09 c0       	rjmp	.+18     	; 0x295a <vfprintf+0x2d4>
    2948:	83 2d       	mov	r24, r3
    294a:	8e 7e       	andi	r24, 0xEE	; 238
    294c:	a8 2e       	mov	r10, r24
    294e:	05 c0       	rjmp	.+10     	; 0x295a <vfprintf+0x2d4>
    2950:	b8 2c       	mov	r11, r8
    2952:	a3 2c       	mov	r10, r3
    2954:	03 c0       	rjmp	.+6      	; 0x295c <vfprintf+0x2d6>
    2956:	b8 2c       	mov	r11, r8
    2958:	01 c0       	rjmp	.+2      	; 0x295c <vfprintf+0x2d6>
    295a:	b9 2c       	mov	r11, r9
    295c:	a4 fe       	sbrs	r10, 4
    295e:	0f c0       	rjmp	.+30     	; 0x297e <vfprintf+0x2f8>
    2960:	fe 01       	movw	r30, r28
    2962:	e8 0d       	add	r30, r8
    2964:	f1 1d       	adc	r31, r1
    2966:	80 81       	ld	r24, Z
    2968:	80 33       	cpi	r24, 0x30	; 48
    296a:	21 f4       	brne	.+8      	; 0x2974 <vfprintf+0x2ee>
    296c:	9a 2d       	mov	r25, r10
    296e:	99 7e       	andi	r25, 0xE9	; 233
    2970:	a9 2e       	mov	r10, r25
    2972:	09 c0       	rjmp	.+18     	; 0x2986 <vfprintf+0x300>
    2974:	a2 fe       	sbrs	r10, 2
    2976:	06 c0       	rjmp	.+12     	; 0x2984 <vfprintf+0x2fe>
    2978:	b3 94       	inc	r11
    297a:	b3 94       	inc	r11
    297c:	04 c0       	rjmp	.+8      	; 0x2986 <vfprintf+0x300>
    297e:	8a 2d       	mov	r24, r10
    2980:	86 78       	andi	r24, 0x86	; 134
    2982:	09 f0       	breq	.+2      	; 0x2986 <vfprintf+0x300>
    2984:	b3 94       	inc	r11
    2986:	a3 fc       	sbrc	r10, 3
    2988:	11 c0       	rjmp	.+34     	; 0x29ac <vfprintf+0x326>
    298a:	a0 fe       	sbrs	r10, 0
    298c:	06 c0       	rjmp	.+12     	; 0x299a <vfprintf+0x314>
    298e:	b2 14       	cp	r11, r2
    2990:	88 f4       	brcc	.+34     	; 0x29b4 <vfprintf+0x32e>
    2992:	28 0c       	add	r2, r8
    2994:	92 2c       	mov	r9, r2
    2996:	9b 18       	sub	r9, r11
    2998:	0e c0       	rjmp	.+28     	; 0x29b6 <vfprintf+0x330>
    299a:	b2 14       	cp	r11, r2
    299c:	60 f4       	brcc	.+24     	; 0x29b6 <vfprintf+0x330>
    299e:	b6 01       	movw	r22, r12
    29a0:	80 e2       	ldi	r24, 0x20	; 32
    29a2:	90 e0       	ldi	r25, 0x00	; 0
    29a4:	0e 94 3a 15 	call	0x2a74	; 0x2a74 <fputc>
    29a8:	b3 94       	inc	r11
    29aa:	f7 cf       	rjmp	.-18     	; 0x299a <vfprintf+0x314>
    29ac:	b2 14       	cp	r11, r2
    29ae:	18 f4       	brcc	.+6      	; 0x29b6 <vfprintf+0x330>
    29b0:	2b 18       	sub	r2, r11
    29b2:	02 c0       	rjmp	.+4      	; 0x29b8 <vfprintf+0x332>
    29b4:	98 2c       	mov	r9, r8
    29b6:	21 2c       	mov	r2, r1
    29b8:	a4 fe       	sbrs	r10, 4
    29ba:	10 c0       	rjmp	.+32     	; 0x29dc <vfprintf+0x356>
    29bc:	b6 01       	movw	r22, r12
    29be:	80 e3       	ldi	r24, 0x30	; 48
    29c0:	90 e0       	ldi	r25, 0x00	; 0
    29c2:	0e 94 3a 15 	call	0x2a74	; 0x2a74 <fputc>
    29c6:	a2 fe       	sbrs	r10, 2
    29c8:	17 c0       	rjmp	.+46     	; 0x29f8 <vfprintf+0x372>
    29ca:	a1 fc       	sbrc	r10, 1
    29cc:	03 c0       	rjmp	.+6      	; 0x29d4 <vfprintf+0x34e>
    29ce:	88 e7       	ldi	r24, 0x78	; 120
    29d0:	90 e0       	ldi	r25, 0x00	; 0
    29d2:	02 c0       	rjmp	.+4      	; 0x29d8 <vfprintf+0x352>
    29d4:	88 e5       	ldi	r24, 0x58	; 88
    29d6:	90 e0       	ldi	r25, 0x00	; 0
    29d8:	b6 01       	movw	r22, r12
    29da:	0c c0       	rjmp	.+24     	; 0x29f4 <vfprintf+0x36e>
    29dc:	8a 2d       	mov	r24, r10
    29de:	86 78       	andi	r24, 0x86	; 134
    29e0:	59 f0       	breq	.+22     	; 0x29f8 <vfprintf+0x372>
    29e2:	a1 fe       	sbrs	r10, 1
    29e4:	02 c0       	rjmp	.+4      	; 0x29ea <vfprintf+0x364>
    29e6:	8b e2       	ldi	r24, 0x2B	; 43
    29e8:	01 c0       	rjmp	.+2      	; 0x29ec <vfprintf+0x366>
    29ea:	80 e2       	ldi	r24, 0x20	; 32
    29ec:	a7 fc       	sbrc	r10, 7
    29ee:	8d e2       	ldi	r24, 0x2D	; 45
    29f0:	b6 01       	movw	r22, r12
    29f2:	90 e0       	ldi	r25, 0x00	; 0
    29f4:	0e 94 3a 15 	call	0x2a74	; 0x2a74 <fputc>
    29f8:	89 14       	cp	r8, r9
    29fa:	38 f4       	brcc	.+14     	; 0x2a0a <vfprintf+0x384>
    29fc:	b6 01       	movw	r22, r12
    29fe:	80 e3       	ldi	r24, 0x30	; 48
    2a00:	90 e0       	ldi	r25, 0x00	; 0
    2a02:	0e 94 3a 15 	call	0x2a74	; 0x2a74 <fputc>
    2a06:	9a 94       	dec	r9
    2a08:	f7 cf       	rjmp	.-18     	; 0x29f8 <vfprintf+0x372>
    2a0a:	8a 94       	dec	r8
    2a0c:	f3 01       	movw	r30, r6
    2a0e:	e8 0d       	add	r30, r8
    2a10:	f1 1d       	adc	r31, r1
    2a12:	80 81       	ld	r24, Z
    2a14:	b6 01       	movw	r22, r12
    2a16:	90 e0       	ldi	r25, 0x00	; 0
    2a18:	0e 94 3a 15 	call	0x2a74	; 0x2a74 <fputc>
    2a1c:	81 10       	cpse	r8, r1
    2a1e:	f5 cf       	rjmp	.-22     	; 0x2a0a <vfprintf+0x384>
    2a20:	22 20       	and	r2, r2
    2a22:	09 f4       	brne	.+2      	; 0x2a26 <vfprintf+0x3a0>
    2a24:	42 ce       	rjmp	.-892    	; 0x26aa <vfprintf+0x24>
    2a26:	b6 01       	movw	r22, r12
    2a28:	80 e2       	ldi	r24, 0x20	; 32
    2a2a:	90 e0       	ldi	r25, 0x00	; 0
    2a2c:	0e 94 3a 15 	call	0x2a74	; 0x2a74 <fputc>
    2a30:	2a 94       	dec	r2
    2a32:	f6 cf       	rjmp	.-20     	; 0x2a20 <vfprintf+0x39a>
    2a34:	f6 01       	movw	r30, r12
    2a36:	86 81       	ldd	r24, Z+6	; 0x06
    2a38:	97 81       	ldd	r25, Z+7	; 0x07
    2a3a:	02 c0       	rjmp	.+4      	; 0x2a40 <vfprintf+0x3ba>
    2a3c:	8f ef       	ldi	r24, 0xFF	; 255
    2a3e:	9f ef       	ldi	r25, 0xFF	; 255
    2a40:	2b 96       	adiw	r28, 0x0b	; 11
    2a42:	e2 e1       	ldi	r30, 0x12	; 18
    2a44:	0c 94 f0 15 	jmp	0x2be0	; 0x2be0 <__epilogue_restores__>

00002a48 <strnlen_P>:
    2a48:	fc 01       	movw	r30, r24
    2a4a:	05 90       	lpm	r0, Z+
    2a4c:	61 50       	subi	r22, 0x01	; 1
    2a4e:	70 40       	sbci	r23, 0x00	; 0
    2a50:	01 10       	cpse	r0, r1
    2a52:	d8 f7       	brcc	.-10     	; 0x2a4a <strnlen_P+0x2>
    2a54:	80 95       	com	r24
    2a56:	90 95       	com	r25
    2a58:	8e 0f       	add	r24, r30
    2a5a:	9f 1f       	adc	r25, r31
    2a5c:	08 95       	ret

00002a5e <strnlen>:
    2a5e:	fc 01       	movw	r30, r24
    2a60:	61 50       	subi	r22, 0x01	; 1
    2a62:	70 40       	sbci	r23, 0x00	; 0
    2a64:	01 90       	ld	r0, Z+
    2a66:	01 10       	cpse	r0, r1
    2a68:	d8 f7       	brcc	.-10     	; 0x2a60 <strnlen+0x2>
    2a6a:	80 95       	com	r24
    2a6c:	90 95       	com	r25
    2a6e:	8e 0f       	add	r24, r30
    2a70:	9f 1f       	adc	r25, r31
    2a72:	08 95       	ret

00002a74 <fputc>:
    2a74:	0f 93       	push	r16
    2a76:	1f 93       	push	r17
    2a78:	cf 93       	push	r28
    2a7a:	df 93       	push	r29
    2a7c:	fb 01       	movw	r30, r22
    2a7e:	23 81       	ldd	r18, Z+3	; 0x03
    2a80:	21 fd       	sbrc	r18, 1
    2a82:	03 c0       	rjmp	.+6      	; 0x2a8a <fputc+0x16>
    2a84:	8f ef       	ldi	r24, 0xFF	; 255
    2a86:	9f ef       	ldi	r25, 0xFF	; 255
    2a88:	2c c0       	rjmp	.+88     	; 0x2ae2 <fputc+0x6e>
    2a8a:	22 ff       	sbrs	r18, 2
    2a8c:	16 c0       	rjmp	.+44     	; 0x2aba <fputc+0x46>
    2a8e:	46 81       	ldd	r20, Z+6	; 0x06
    2a90:	57 81       	ldd	r21, Z+7	; 0x07
    2a92:	24 81       	ldd	r18, Z+4	; 0x04
    2a94:	35 81       	ldd	r19, Z+5	; 0x05
    2a96:	42 17       	cp	r20, r18
    2a98:	53 07       	cpc	r21, r19
    2a9a:	44 f4       	brge	.+16     	; 0x2aac <fputc+0x38>
    2a9c:	a0 81       	ld	r26, Z
    2a9e:	b1 81       	ldd	r27, Z+1	; 0x01
    2aa0:	9d 01       	movw	r18, r26
    2aa2:	2f 5f       	subi	r18, 0xFF	; 255
    2aa4:	3f 4f       	sbci	r19, 0xFF	; 255
    2aa6:	31 83       	std	Z+1, r19	; 0x01
    2aa8:	20 83       	st	Z, r18
    2aaa:	8c 93       	st	X, r24
    2aac:	26 81       	ldd	r18, Z+6	; 0x06
    2aae:	37 81       	ldd	r19, Z+7	; 0x07
    2ab0:	2f 5f       	subi	r18, 0xFF	; 255
    2ab2:	3f 4f       	sbci	r19, 0xFF	; 255
    2ab4:	37 83       	std	Z+7, r19	; 0x07
    2ab6:	26 83       	std	Z+6, r18	; 0x06
    2ab8:	14 c0       	rjmp	.+40     	; 0x2ae2 <fputc+0x6e>
    2aba:	8b 01       	movw	r16, r22
    2abc:	ec 01       	movw	r28, r24
    2abe:	fb 01       	movw	r30, r22
    2ac0:	00 84       	ldd	r0, Z+8	; 0x08
    2ac2:	f1 85       	ldd	r31, Z+9	; 0x09
    2ac4:	e0 2d       	mov	r30, r0
    2ac6:	09 95       	icall
    2ac8:	89 2b       	or	r24, r25
    2aca:	e1 f6       	brne	.-72     	; 0x2a84 <fputc+0x10>
    2acc:	d8 01       	movw	r26, r16
    2ace:	16 96       	adiw	r26, 0x06	; 6
    2ad0:	8d 91       	ld	r24, X+
    2ad2:	9c 91       	ld	r25, X
    2ad4:	17 97       	sbiw	r26, 0x07	; 7
    2ad6:	01 96       	adiw	r24, 0x01	; 1
    2ad8:	17 96       	adiw	r26, 0x07	; 7
    2ada:	9c 93       	st	X, r25
    2adc:	8e 93       	st	-X, r24
    2ade:	16 97       	sbiw	r26, 0x06	; 6
    2ae0:	ce 01       	movw	r24, r28
    2ae2:	df 91       	pop	r29
    2ae4:	cf 91       	pop	r28
    2ae6:	1f 91       	pop	r17
    2ae8:	0f 91       	pop	r16
    2aea:	08 95       	ret

00002aec <__ultoa_invert>:
    2aec:	fa 01       	movw	r30, r20
    2aee:	aa 27       	eor	r26, r26
    2af0:	28 30       	cpi	r18, 0x08	; 8
    2af2:	51 f1       	breq	.+84     	; 0x2b48 <__ultoa_invert+0x5c>
    2af4:	20 31       	cpi	r18, 0x10	; 16
    2af6:	81 f1       	breq	.+96     	; 0x2b58 <__ultoa_invert+0x6c>
    2af8:	e8 94       	clt
    2afa:	6f 93       	push	r22
    2afc:	6e 7f       	andi	r22, 0xFE	; 254
    2afe:	6e 5f       	subi	r22, 0xFE	; 254
    2b00:	7f 4f       	sbci	r23, 0xFF	; 255
    2b02:	8f 4f       	sbci	r24, 0xFF	; 255
    2b04:	9f 4f       	sbci	r25, 0xFF	; 255
    2b06:	af 4f       	sbci	r26, 0xFF	; 255
    2b08:	b1 e0       	ldi	r27, 0x01	; 1
    2b0a:	3e d0       	rcall	.+124    	; 0x2b88 <__ultoa_invert+0x9c>
    2b0c:	b4 e0       	ldi	r27, 0x04	; 4
    2b0e:	3c d0       	rcall	.+120    	; 0x2b88 <__ultoa_invert+0x9c>
    2b10:	67 0f       	add	r22, r23
    2b12:	78 1f       	adc	r23, r24
    2b14:	89 1f       	adc	r24, r25
    2b16:	9a 1f       	adc	r25, r26
    2b18:	a1 1d       	adc	r26, r1
    2b1a:	68 0f       	add	r22, r24
    2b1c:	79 1f       	adc	r23, r25
    2b1e:	8a 1f       	adc	r24, r26
    2b20:	91 1d       	adc	r25, r1
    2b22:	a1 1d       	adc	r26, r1
    2b24:	6a 0f       	add	r22, r26
    2b26:	71 1d       	adc	r23, r1
    2b28:	81 1d       	adc	r24, r1
    2b2a:	91 1d       	adc	r25, r1
    2b2c:	a1 1d       	adc	r26, r1
    2b2e:	20 d0       	rcall	.+64     	; 0x2b70 <__ultoa_invert+0x84>
    2b30:	09 f4       	brne	.+2      	; 0x2b34 <__ultoa_invert+0x48>
    2b32:	68 94       	set
    2b34:	3f 91       	pop	r19
    2b36:	2a e0       	ldi	r18, 0x0A	; 10
    2b38:	26 9f       	mul	r18, r22
    2b3a:	11 24       	eor	r1, r1
    2b3c:	30 19       	sub	r19, r0
    2b3e:	30 5d       	subi	r19, 0xD0	; 208
    2b40:	31 93       	st	Z+, r19
    2b42:	de f6       	brtc	.-74     	; 0x2afa <__ultoa_invert+0xe>
    2b44:	cf 01       	movw	r24, r30
    2b46:	08 95       	ret
    2b48:	46 2f       	mov	r20, r22
    2b4a:	47 70       	andi	r20, 0x07	; 7
    2b4c:	40 5d       	subi	r20, 0xD0	; 208
    2b4e:	41 93       	st	Z+, r20
    2b50:	b3 e0       	ldi	r27, 0x03	; 3
    2b52:	0f d0       	rcall	.+30     	; 0x2b72 <__ultoa_invert+0x86>
    2b54:	c9 f7       	brne	.-14     	; 0x2b48 <__ultoa_invert+0x5c>
    2b56:	f6 cf       	rjmp	.-20     	; 0x2b44 <__ultoa_invert+0x58>
    2b58:	46 2f       	mov	r20, r22
    2b5a:	4f 70       	andi	r20, 0x0F	; 15
    2b5c:	40 5d       	subi	r20, 0xD0	; 208
    2b5e:	4a 33       	cpi	r20, 0x3A	; 58
    2b60:	18 f0       	brcs	.+6      	; 0x2b68 <__ultoa_invert+0x7c>
    2b62:	49 5d       	subi	r20, 0xD9	; 217
    2b64:	31 fd       	sbrc	r19, 1
    2b66:	40 52       	subi	r20, 0x20	; 32
    2b68:	41 93       	st	Z+, r20
    2b6a:	02 d0       	rcall	.+4      	; 0x2b70 <__ultoa_invert+0x84>
    2b6c:	a9 f7       	brne	.-22     	; 0x2b58 <__ultoa_invert+0x6c>
    2b6e:	ea cf       	rjmp	.-44     	; 0x2b44 <__ultoa_invert+0x58>
    2b70:	b4 e0       	ldi	r27, 0x04	; 4
    2b72:	a6 95       	lsr	r26
    2b74:	97 95       	ror	r25
    2b76:	87 95       	ror	r24
    2b78:	77 95       	ror	r23
    2b7a:	67 95       	ror	r22
    2b7c:	ba 95       	dec	r27
    2b7e:	c9 f7       	brne	.-14     	; 0x2b72 <__ultoa_invert+0x86>
    2b80:	00 97       	sbiw	r24, 0x00	; 0
    2b82:	61 05       	cpc	r22, r1
    2b84:	71 05       	cpc	r23, r1
    2b86:	08 95       	ret
    2b88:	9b 01       	movw	r18, r22
    2b8a:	ac 01       	movw	r20, r24
    2b8c:	0a 2e       	mov	r0, r26
    2b8e:	06 94       	lsr	r0
    2b90:	57 95       	ror	r21
    2b92:	47 95       	ror	r20
    2b94:	37 95       	ror	r19
    2b96:	27 95       	ror	r18
    2b98:	ba 95       	dec	r27
    2b9a:	c9 f7       	brne	.-14     	; 0x2b8e <__ultoa_invert+0xa2>
    2b9c:	62 0f       	add	r22, r18
    2b9e:	73 1f       	adc	r23, r19
    2ba0:	84 1f       	adc	r24, r20
    2ba2:	95 1f       	adc	r25, r21
    2ba4:	a0 1d       	adc	r26, r0
    2ba6:	08 95       	ret

00002ba8 <__prologue_saves__>:
    2ba8:	2f 92       	push	r2
    2baa:	3f 92       	push	r3
    2bac:	4f 92       	push	r4
    2bae:	5f 92       	push	r5
    2bb0:	6f 92       	push	r6
    2bb2:	7f 92       	push	r7
    2bb4:	8f 92       	push	r8
    2bb6:	9f 92       	push	r9
    2bb8:	af 92       	push	r10
    2bba:	bf 92       	push	r11
    2bbc:	cf 92       	push	r12
    2bbe:	df 92       	push	r13
    2bc0:	ef 92       	push	r14
    2bc2:	ff 92       	push	r15
    2bc4:	0f 93       	push	r16
    2bc6:	1f 93       	push	r17
    2bc8:	cf 93       	push	r28
    2bca:	df 93       	push	r29
    2bcc:	cd b7       	in	r28, 0x3d	; 61
    2bce:	de b7       	in	r29, 0x3e	; 62
    2bd0:	ca 1b       	sub	r28, r26
    2bd2:	db 0b       	sbc	r29, r27
    2bd4:	0f b6       	in	r0, 0x3f	; 63
    2bd6:	f8 94       	cli
    2bd8:	de bf       	out	0x3e, r29	; 62
    2bda:	0f be       	out	0x3f, r0	; 63
    2bdc:	cd bf       	out	0x3d, r28	; 61
    2bde:	09 94       	ijmp

00002be0 <__epilogue_restores__>:
    2be0:	2a 88       	ldd	r2, Y+18	; 0x12
    2be2:	39 88       	ldd	r3, Y+17	; 0x11
    2be4:	48 88       	ldd	r4, Y+16	; 0x10
    2be6:	5f 84       	ldd	r5, Y+15	; 0x0f
    2be8:	6e 84       	ldd	r6, Y+14	; 0x0e
    2bea:	7d 84       	ldd	r7, Y+13	; 0x0d
    2bec:	8c 84       	ldd	r8, Y+12	; 0x0c
    2bee:	9b 84       	ldd	r9, Y+11	; 0x0b
    2bf0:	aa 84       	ldd	r10, Y+10	; 0x0a
    2bf2:	b9 84       	ldd	r11, Y+9	; 0x09
    2bf4:	c8 84       	ldd	r12, Y+8	; 0x08
    2bf6:	df 80       	ldd	r13, Y+7	; 0x07
    2bf8:	ee 80       	ldd	r14, Y+6	; 0x06
    2bfa:	fd 80       	ldd	r15, Y+5	; 0x05
    2bfc:	0c 81       	ldd	r16, Y+4	; 0x04
    2bfe:	1b 81       	ldd	r17, Y+3	; 0x03
    2c00:	aa 81       	ldd	r26, Y+2	; 0x02
    2c02:	b9 81       	ldd	r27, Y+1	; 0x01
    2c04:	ce 0f       	add	r28, r30
    2c06:	d1 1d       	adc	r29, r1
    2c08:	0f b6       	in	r0, 0x3f	; 63
    2c0a:	f8 94       	cli
    2c0c:	de bf       	out	0x3e, r29	; 62
    2c0e:	0f be       	out	0x3f, r0	; 63
    2c10:	cd bf       	out	0x3d, r28	; 61
    2c12:	ed 01       	movw	r28, r26
    2c14:	08 95       	ret

00002c16 <_exit>:
    2c16:	f8 94       	cli

00002c18 <__stop_program>:
    2c18:	ff cf       	rjmp	.-2      	; 0x2c18 <__stop_program>
