
UART_solution_struct.elf:     file format elf32-avr

Sections:
Idx Name          Size      VMA       LMA       File off  Algn
  0 .data         000000dc  00800100  000015da  0000166e  2**0
                  CONTENTS, ALLOC, LOAD, DATA
  1 .text         000015da  00000000  00000000  00000094  2**1
                  CONTENTS, ALLOC, LOAD, READONLY, CODE
  2 .bss          00000066  008001dc  008001dc  0000174a  2**0
                  ALLOC
  3 .comment      0000005c  00000000  00000000  0000174a  2**0
                  CONTENTS, READONLY
  4 .note.gnu.avr.deviceinfo 00000040  00000000  00000000  000017a8  2**2
                  CONTENTS, READONLY
  5 .debug_aranges 000001f0  00000000  00000000  000017e8  2**0
                  CONTENTS, READONLY, DEBUGGING
  6 .debug_info   0000372e  00000000  00000000  000019d8  2**0
                  CONTENTS, READONLY, DEBUGGING
  7 .debug_abbrev 0000158f  00000000  00000000  00005106  2**0
                  CONTENTS, READONLY, DEBUGGING
  8 .debug_line   0000199c  00000000  00000000  00006695  2**0
                  CONTENTS, READONLY, DEBUGGING
  9 .debug_frame  00000604  00000000  00000000  00008034  2**2
                  CONTENTS, READONLY, DEBUGGING
 10 .debug_str    00000b41  00000000  00000000  00008638  2**0
                  CONTENTS, READONLY, DEBUGGING
 11 .debug_loc    0000258f  00000000  00000000  00009179  2**0
                  CONTENTS, READONLY, DEBUGGING
 12 .debug_ranges 00000188  00000000  00000000  0000b708  2**0
                  CONTENTS, READONLY, DEBUGGING

Disassembly of section .text:

00000000 <__vectors>:
       0:	0c 94 86 00 	jmp	0x10c	; 0x10c <__ctors_end>
       4:	0c 94 a3 00 	jmp	0x146	; 0x146 <__bad_interrupt>
       8:	0c 94 a3 00 	jmp	0x146	; 0x146 <__bad_interrupt>
       c:	0c 94 a3 00 	jmp	0x146	; 0x146 <__bad_interrupt>
      10:	0c 94 a3 00 	jmp	0x146	; 0x146 <__bad_interrupt>
      14:	0c 94 a3 00 	jmp	0x146	; 0x146 <__bad_interrupt>
      18:	0c 94 a3 00 	jmp	0x146	; 0x146 <__bad_interrupt>
      1c:	0c 94 a3 00 	jmp	0x146	; 0x146 <__bad_interrupt>
      20:	0c 94 a3 00 	jmp	0x146	; 0x146 <__bad_interrupt>
      24:	0c 94 a3 00 	jmp	0x146	; 0x146 <__bad_interrupt>
      28:	0c 94 a3 00 	jmp	0x146	; 0x146 <__bad_interrupt>
      2c:	0c 94 a3 00 	jmp	0x146	; 0x146 <__bad_interrupt>
      30:	0c 94 a3 00 	jmp	0x146	; 0x146 <__bad_interrupt>
      34:	0c 94 a3 00 	jmp	0x146	; 0x146 <__bad_interrupt>
      38:	0c 94 a3 00 	jmp	0x146	; 0x146 <__bad_interrupt>
      3c:	0c 94 a3 00 	jmp	0x146	; 0x146 <__bad_interrupt>
      40:	0c 94 a3 00 	jmp	0x146	; 0x146 <__bad_interrupt>
      44:	0c 94 a3 00 	jmp	0x146	; 0x146 <__bad_interrupt>
      48:	0c 94 a3 00 	jmp	0x146	; 0x146 <__bad_interrupt>
      4c:	0c 94 a3 00 	jmp	0x146	; 0x146 <__bad_interrupt>
      50:	0c 94 a3 00 	jmp	0x146	; 0x146 <__bad_interrupt>
      54:	0c 94 a3 00 	jmp	0x146	; 0x146 <__bad_interrupt>
      58:	0c 94 a3 00 	jmp	0x146	; 0x146 <__bad_interrupt>
      5c:	0c 94 a3 00 	jmp	0x146	; 0x146 <__bad_interrupt>
      60:	0c 94 a3 00 	jmp	0x146	; 0x146 <__bad_interrupt>
      64:	0c 94 a3 00 	jmp	0x146	; 0x146 <__bad_interrupt>
      68:	0c 94 a3 00 	jmp	0x146	; 0x146 <__bad_interrupt>
      6c:	0c 94 a3 00 	jmp	0x146	; 0x146 <__bad_interrupt>
      70:	0c 94 a3 00 	jmp	0x146	; 0x146 <__bad_interrupt>
      74:	0c 94 a3 00 	jmp	0x146	; 0x146 <__bad_interrupt>
      78:	0c 94 a3 00 	jmp	0x146	; 0x146 <__bad_interrupt>
      7c:	0c 94 a3 00 	jmp	0x146	; 0x146 <__bad_interrupt>
      80:	0c 94 a3 00 	jmp	0x146	; 0x146 <__bad_interrupt>
      84:	0c 94 a3 00 	jmp	0x146	; 0x146 <__bad_interrupt>
      88:	0c 94 a3 00 	jmp	0x146	; 0x146 <__bad_interrupt>
      8c:	0c 94 a3 00 	jmp	0x146	; 0x146 <__bad_interrupt>
      90:	0c 94 a3 00 	jmp	0x146	; 0x146 <__bad_interrupt>
      94:	0c 94 a3 00 	jmp	0x146	; 0x146 <__bad_interrupt>
      98:	0c 94 a3 00 	jmp	0x146	; 0x146 <__bad_interrupt>
      9c:	0c 94 a3 00 	jmp	0x146	; 0x146 <__bad_interrupt>
      a0:	0c 94 a3 00 	jmp	0x146	; 0x146 <__bad_interrupt>
      a4:	0c 94 a3 00 	jmp	0x146	; 0x146 <__bad_interrupt>
      a8:	0c 94 a3 00 	jmp	0x146	; 0x146 <__bad_interrupt>
      ac:	0c 94 a3 00 	jmp	0x146	; 0x146 <__bad_interrupt>
      b0:	0c 94 a3 00 	jmp	0x146	; 0x146 <__bad_interrupt>
      b4:	0c 94 a3 00 	jmp	0x146	; 0x146 <__bad_interrupt>
      b8:	0c 94 a3 00 	jmp	0x146	; 0x146 <__bad_interrupt>
      bc:	0c 94 a3 00 	jmp	0x146	; 0x146 <__bad_interrupt>
      c0:	0c 94 a3 00 	jmp	0x146	; 0x146 <__bad_interrupt>
      c4:	0c 94 a3 00 	jmp	0x146	; 0x146 <__bad_interrupt>
      c8:	0c 94 a3 00 	jmp	0x146	; 0x146 <__bad_interrupt>

000000cc <Prnt_bytes_prnt>:
      cc:	41 64 64 72 2e 20 4f 66 66 73 65 74 20 20 20 30     Addr. Offset   0
      dc:	20 20 31 20 20 32 20 20 33 20 20 34 20 20 35 20       1  2  3  4  5 
      ec:	20 36 20 20 37 20 20 38 20 20 39 20 20 41 20 20      6  7  8  9  A  
      fc:	42 20 20 43 20 20 44 20 20 45 20 20 46 0a 0d 00     B  C  D  E  F...

0000010c <__ctors_end>:
     10c:	11 24       	eor	r1, r1
     10e:	1f be       	out	0x3f, r1	; 63
     110:	cf ef       	ldi	r28, 0xFF	; 255
     112:	d8 e0       	ldi	r29, 0x08	; 8
     114:	de bf       	out	0x3e, r29	; 62
     116:	cd bf       	out	0x3d, r28	; 61

00000118 <__do_copy_data>:
     118:	11 e0       	ldi	r17, 0x01	; 1
     11a:	a0 e0       	ldi	r26, 0x00	; 0
     11c:	b1 e0       	ldi	r27, 0x01	; 1
     11e:	ea ed       	ldi	r30, 0xDA	; 218
     120:	f5 e1       	ldi	r31, 0x15	; 21
     122:	02 c0       	rjmp	.+4      	; 0x128 <__do_copy_data+0x10>
     124:	05 90       	lpm	r0, Z+
     126:	0d 92       	st	X+, r0
     128:	ac 3d       	cpi	r26, 0xDC	; 220
     12a:	b1 07       	cpc	r27, r17
     12c:	d9 f7       	brne	.-10     	; 0x124 <__do_copy_data+0xc>

0000012e <__do_clear_bss>:
     12e:	22 e0       	ldi	r18, 0x02	; 2
     130:	ac ed       	ldi	r26, 0xDC	; 220
     132:	b1 e0       	ldi	r27, 0x01	; 1
     134:	01 c0       	rjmp	.+2      	; 0x138 <.do_clear_bss_start>

00000136 <.do_clear_bss_loop>:
     136:	1d 92       	st	X+, r1

00000138 <.do_clear_bss_start>:
     138:	a2 34       	cpi	r26, 0x42	; 66
     13a:	b2 07       	cpc	r27, r18
     13c:	e1 f7       	brne	.-8      	; 0x136 <.do_clear_bss_loop>
     13e:	0e 94 0c 03 	call	0x618	; 0x618 <main>
     142:	0c 94 eb 0a 	jmp	0x15d6	; 0x15d6 <_exit>

00000146 <__bad_interrupt>:
     146:	0c 94 00 00 	jmp	0	; 0x0 <__vectors>

0000014a <Export_Drive_values>:
	{
	   return_clus=no_entry_found;
	}
	if(return_clus==0) return_clus=no_entry_found;
   return return_clus;
 }
     14a:	8c e2       	ldi	r24, 0x2C	; 44
     14c:	92 e0       	ldi	r25, 0x02	; 2
     14e:	08 95       	ret

00000150 <read8>:
	 return error_flag;
 }

uint8_t read8 (uint16_t offset, uint8_t * array_name){
	uint8_t temp;
	temp = *(array_name+offset);
     150:	86 0f       	add	r24, r22
     152:	97 1f       	adc	r25, r23
	return temp;
}
     154:	fc 01       	movw	r30, r24
     156:	80 81       	ld	r24, Z
     158:	08 95       	ret

0000015a <read16>:

uint16_t read16 (uint16_t offset, uint8_t * array_name){
     15a:	dc 01       	movw	r26, r24
	uint16_t return_val;
	uint8_t temp, i;
	return_val=0;
	for(i=0;i<2;i++)
     15c:	90 e0       	ldi	r25, 0x00	; 0
}

uint16_t read16 (uint16_t offset, uint8_t * array_name){
	uint16_t return_val;
	uint8_t temp, i;
	return_val=0;
     15e:	20 e0       	ldi	r18, 0x00	; 0
     160:	30 e0       	ldi	r19, 0x00	; 0
	for(i=0;i<2;i++)
     162:	0b c0       	rjmp	.+22     	; 0x17a <read16+0x20>
	{
		temp=*(array_name+offset+(1-i)); 
     164:	fd 01       	movw	r30, r26
     166:	e9 1b       	sub	r30, r25
     168:	f1 09       	sbc	r31, r1
     16a:	31 96       	adiw	r30, 0x01	; 1
     16c:	e6 0f       	add	r30, r22
     16e:	f7 1f       	adc	r31, r23
     170:	40 81       	ld	r20, Z
		return_val=return_val<<8;
     172:	32 2f       	mov	r19, r18
     174:	22 27       	eor	r18, r18
		return_val|=temp;
     176:	24 2b       	or	r18, r20

uint16_t read16 (uint16_t offset, uint8_t * array_name){
	uint16_t return_val;
	uint8_t temp, i;
	return_val=0;
	for(i=0;i<2;i++)
     178:	9f 5f       	subi	r25, 0xFF	; 255
     17a:	92 30       	cpi	r25, 0x02	; 2
     17c:	98 f3       	brcs	.-26     	; 0x164 <read16+0xa>
		temp=*(array_name+offset+(1-i)); 
		return_val=return_val<<8;
		return_val|=temp;
	}
	return return_val;
}
     17e:	c9 01       	movw	r24, r18
     180:	08 95       	ret

00000182 <read32>:

uint32_t read32 (uint16_t offset, uint8_t * array_name){
     182:	cf 92       	push	r12
     184:	df 92       	push	r13
     186:	ef 92       	push	r14
     188:	ff 92       	push	r15
     18a:	9c 01       	movw	r18, r24
     18c:	ab 01       	movw	r20, r22
	uint32_t return_val;
	uint8_t temp, i;
	return_val=0;
	for(i=0;i<4;i++)
     18e:	a0 e0       	ldi	r26, 0x00	; 0
}

uint32_t read32 (uint16_t offset, uint8_t * array_name){
	uint32_t return_val;
	uint8_t temp, i;
	return_val=0;
     190:	60 e0       	ldi	r22, 0x00	; 0
     192:	70 e0       	ldi	r23, 0x00	; 0
     194:	cb 01       	movw	r24, r22
	for(i=0;i<4;i++)
     196:	0f c0       	rjmp	.+30     	; 0x1b6 <read32+0x34>
	{
		temp=*(array_name+offset+(3-i));
     198:	f9 01       	movw	r30, r18
     19a:	ea 1b       	sub	r30, r26
     19c:	f1 09       	sbc	r31, r1
     19e:	33 96       	adiw	r30, 0x03	; 3
     1a0:	e4 0f       	add	r30, r20
     1a2:	f5 1f       	adc	r31, r21
     1a4:	e0 81       	ld	r30, Z
		return_val=return_val<<8;
     1a6:	cc 24       	eor	r12, r12
     1a8:	d6 2e       	mov	r13, r22
     1aa:	e7 2e       	mov	r14, r23
     1ac:	f8 2e       	mov	r15, r24
		return_val|=temp;
     1ae:	c7 01       	movw	r24, r14
     1b0:	b6 01       	movw	r22, r12
     1b2:	6e 2b       	or	r22, r30

uint32_t read32 (uint16_t offset, uint8_t * array_name){
	uint32_t return_val;
	uint8_t temp, i;
	return_val=0;
	for(i=0;i<4;i++)
     1b4:	af 5f       	subi	r26, 0xFF	; 255
     1b6:	a4 30       	cpi	r26, 0x04	; 4
     1b8:	78 f3       	brcs	.-34     	; 0x198 <read32+0x16>
		temp=*(array_name+offset+(3-i));
		return_val=return_val<<8;
		return_val|=temp;
	}
	return return_val;
}
     1ba:	ff 90       	pop	r15
     1bc:	ef 90       	pop	r14
     1be:	df 90       	pop	r13
     1c0:	cf 90       	pop	r12
     1c2:	08 95       	ret

000001c4 <mount_drive>:

uint8_t mount_drive(uint8_t * array){
     1c4:	2f 92       	push	r2
     1c6:	3f 92       	push	r3
     1c8:	4f 92       	push	r4
     1ca:	5f 92       	push	r5
     1cc:	6f 92       	push	r6
     1ce:	7f 92       	push	r7
     1d0:	8f 92       	push	r8
     1d2:	9f 92       	push	r9
     1d4:	af 92       	push	r10
     1d6:	bf 92       	push	r11
     1d8:	cf 92       	push	r12
     1da:	df 92       	push	r13
     1dc:	ef 92       	push	r14
     1de:	ff 92       	push	r15
     1e0:	0f 93       	push	r16
     1e2:	1f 93       	push	r17
     1e4:	cf 93       	push	r28
     1e6:	df 93       	push	r29
     1e8:	00 d0       	rcall	.+0      	; 0x1ea <mount_drive+0x26>
     1ea:	1f 92       	push	r1
     1ec:	cd b7       	in	r28, 0x3d	; 61
     1ee:	de b7       	in	r29, 0x3e	; 62
     1f0:	9b 83       	std	Y+3, r25	; 0x03
     1f2:	8a 83       	std	Y+2, r24	; 0x02
	FS_values_t * Drive_values = Export_Drive_values();
     1f4:	0e 94 a5 00 	call	0x14a	; 0x14a <Export_Drive_values>
     1f8:	8c 01       	movw	r16, r24
	char * p_buffer;
	p_buffer = Export_print_buffer();
     1fa:	0e 94 1b 07 	call	0xe36	; 0xe36 <Export_print_buffer>
     1fe:	28 2e       	mov	r2, r24
     200:	39 2e       	mov	r3, r25
	uint8_t error_flag, NumFATs;
	uint16_t RootEntCnt, TotSec16, RsvdSecCnt;
	uint32_t bpb_addr, TotSec32, DataSec, FATSz32, CountOfClusters;
	
	error_flag = Send_Command(17, 0);
     202:	40 e0       	ldi	r20, 0x00	; 0
     204:	50 e0       	ldi	r21, 0x00	; 0
     206:	ba 01       	movw	r22, r20
     208:	81 e1       	ldi	r24, 0x11	; 17
     20a:	0e 94 82 04 	call	0x904	; 0x904 <Send_Command>
	error_flag = Read_Block(512, array);
     20e:	6a 81       	ldd	r22, Y+2	; 0x02
     210:	7b 81       	ldd	r23, Y+3	; 0x03
     212:	80 e0       	ldi	r24, 0x00	; 0
     214:	92 e0       	ldi	r25, 0x02	; 2
     216:	0e 94 3c 04 	call	0x878	; 0x878 <Read_Block>
	
	// Check if MBR
	if((array[0] != 0xEB) && (array[0] != 0xE9)){
     21a:	ea 81       	ldd	r30, Y+2	; 0x02
     21c:	fb 81       	ldd	r31, Y+3	; 0x03
     21e:	80 81       	ld	r24, Z
     220:	8b 3e       	cpi	r24, 0xEB	; 235
     222:	09 f4       	brne	.+2      	; 0x226 <mount_drive+0x62>
     224:	3d c1       	rjmp	.+634    	; 0x4a0 <__EEPROM_REGION_LENGTH__+0xa0>
     226:	89 3e       	cpi	r24, 0xE9	; 233
     228:	09 f4       	brne	.+2      	; 0x22c <mount_drive+0x68>
     22a:	3a c1       	rjmp	.+628    	; 0x4a0 <__EEPROM_REGION_LENGTH__+0xa0>
		bpb_addr = read32(0x01C6, array);
     22c:	bf 01       	movw	r22, r30
     22e:	86 ec       	ldi	r24, 0xC6	; 198
     230:	91 e0       	ldi	r25, 0x01	; 1
     232:	0e 94 c1 00 	call	0x182	; 0x182 <read32>
     236:	c6 2e       	mov	r12, r22
     238:	d7 2e       	mov	r13, r23
     23a:	e8 2e       	mov	r14, r24
     23c:	f9 2e       	mov	r15, r25
		sprintf(p_buffer, "\n\rbpb_add: 0x%X\n\r", bpb_addr);
     23e:	9f 93       	push	r25
     240:	8f 93       	push	r24
     242:	7f 93       	push	r23
     244:	6f 93       	push	r22
     246:	8e e0       	ldi	r24, 0x0E	; 14
     248:	91 e0       	ldi	r25, 0x01	; 1
     24a:	9f 93       	push	r25
     24c:	8f 93       	push	r24
     24e:	3f 92       	push	r3
     250:	2f 92       	push	r2
     252:	0e 94 01 08 	call	0x1002	; 0x1002 <sprintf>
		UART_Transmit_String(UART1, 0, p_buffer);
     256:	42 2d       	mov	r20, r2
     258:	53 2d       	mov	r21, r3
     25a:	60 e0       	ldi	r22, 0x00	; 0
     25c:	88 ec       	ldi	r24, 0xC8	; 200
     25e:	90 e0       	ldi	r25, 0x00	; 0
     260:	0e 94 44 07 	call	0xe88	; 0xe88 <UART_Transmit_String>
		
		error_flag = Send_Command(17, bpb_addr);
     264:	4c 2d       	mov	r20, r12
     266:	5d 2d       	mov	r21, r13
     268:	6e 2d       	mov	r22, r14
     26a:	7f 2d       	mov	r23, r15
     26c:	81 e1       	ldi	r24, 0x11	; 17
     26e:	0e 94 82 04 	call	0x904	; 0x904 <Send_Command>
		error_flag = Read_Block(512, array);
     272:	6a 81       	ldd	r22, Y+2	; 0x02
     274:	7b 81       	ldd	r23, Y+3	; 0x03
     276:	80 e0       	ldi	r24, 0x00	; 0
     278:	92 e0       	ldi	r25, 0x02	; 2
     27a:	0e 94 3c 04 	call	0x878	; 0x878 <Read_Block>
		if((array[0] != 0xEB) && (array[0] != 0xE9)){
     27e:	ea 81       	ldd	r30, Y+2	; 0x02
     280:	fb 81       	ldd	r31, Y+3	; 0x03
     282:	80 81       	ld	r24, Z
     284:	0f b6       	in	r0, 0x3f	; 63
     286:	f8 94       	cli
     288:	de bf       	out	0x3e, r29	; 62
     28a:	0f be       	out	0x3f, r0	; 63
     28c:	cd bf       	out	0x3d, r28	; 61
     28e:	8b 3e       	cpi	r24, 0xEB	; 235
     290:	19 f0       	breq	.+6      	; 0x298 <mount_drive+0xd4>
     292:	89 3e       	cpi	r24, 0xE9	; 233
     294:	09 f0       	breq	.+2      	; 0x298 <mount_drive+0xd4>
     296:	05 c1       	rjmp	.+522    	; 0x4a2 <__EEPROM_REGION_LENGTH__+0xa2>
			return Disk_Error;
		}
		
		
		//RootDirSectors = ((BPB_RootEntCnt * 32) + (BPB_BytsPerSec-1)) / BPB_BytsPerSec
		RootEntCnt = read16(0x0011, array);
     298:	6a 81       	ldd	r22, Y+2	; 0x02
     29a:	7b 81       	ldd	r23, Y+3	; 0x03
     29c:	81 e1       	ldi	r24, 0x11	; 17
     29e:	90 e0       	ldi	r25, 0x00	; 0
     2a0:	0e 94 ad 00 	call	0x15a	; 0x15a <read16>
     2a4:	7c 01       	movw	r14, r24
		Drive_values->BytesPerSec = read16(0x000B, array);
     2a6:	6a 81       	ldd	r22, Y+2	; 0x02
     2a8:	7b 81       	ldd	r23, Y+3	; 0x03
     2aa:	8b e0       	ldi	r24, 0x0B	; 11
     2ac:	90 e0       	ldi	r25, 0x00	; 0
     2ae:	0e 94 ad 00 	call	0x15a	; 0x15a <read16>
     2b2:	bc 01       	movw	r22, r24
     2b4:	f8 01       	movw	r30, r16
     2b6:	95 83       	std	Z+5, r25	; 0x05
     2b8:	84 83       	std	Z+4, r24	; 0x04
		Drive_values->RootDirSecs = ((RootEntCnt * 32) + (Drive_values->BytesPerSec - 1)) / Drive_values->BytesPerSec;
     2ba:	c7 01       	movw	r24, r14
     2bc:	88 0f       	add	r24, r24
     2be:	99 1f       	adc	r25, r25
     2c0:	82 95       	swap	r24
     2c2:	92 95       	swap	r25
     2c4:	90 7f       	andi	r25, 0xF0	; 240
     2c6:	98 27       	eor	r25, r24
     2c8:	80 7f       	andi	r24, 0xF0	; 240
     2ca:	98 27       	eor	r25, r24
     2cc:	86 0f       	add	r24, r22
     2ce:	97 1f       	adc	r25, r23
     2d0:	01 97       	sbiw	r24, 0x01	; 1
     2d2:	0e 94 75 07 	call	0xeea	; 0xeea <__udivmodhi4>
     2d6:	cb 01       	movw	r24, r22
     2d8:	a0 e0       	ldi	r26, 0x00	; 0
     2da:	b0 e0       	ldi	r27, 0x00	; 0
     2dc:	82 8b       	std	Z+18, r24	; 0x12
     2de:	93 8b       	std	Z+19, r25	; 0x13
     2e0:	a4 8b       	std	Z+20, r26	; 0x14
     2e2:	b5 8b       	std	Z+21, r27	; 0x15
		
		//DataSec = TotSec – (BPB_ResvdSecCnt + (BPB_NumFATSs * FATSz) + RootDirSectors)
		TotSec16 = read16(0x13, array);
     2e4:	6a 81       	ldd	r22, Y+2	; 0x02
     2e6:	7b 81       	ldd	r23, Y+3	; 0x03
     2e8:	83 e1       	ldi	r24, 0x13	; 19
     2ea:	90 e0       	ldi	r25, 0x00	; 0
     2ec:	0e 94 ad 00 	call	0x15a	; 0x15a <read16>
     2f0:	6c 01       	movw	r12, r24
		TotSec32 = read32(0x20, array);
     2f2:	6a 81       	ldd	r22, Y+2	; 0x02
     2f4:	7b 81       	ldd	r23, Y+3	; 0x03
     2f6:	80 e2       	ldi	r24, 0x20	; 32
     2f8:	90 e0       	ldi	r25, 0x00	; 0
     2fa:	0e 94 c1 00 	call	0x182	; 0x182 <read32>
     2fe:	4b 01       	movw	r8, r22
     300:	5c 01       	movw	r10, r24
		sprintf(p_buffer, "\n\rTotSec32: 0x%X\n\r", TotSec32);
     302:	bf 92       	push	r11
     304:	af 92       	push	r10
     306:	9f 92       	push	r9
     308:	6f 93       	push	r22
     30a:	80 e2       	ldi	r24, 0x20	; 32
     30c:	91 e0       	ldi	r25, 0x01	; 1
     30e:	9f 93       	push	r25
     310:	8f 93       	push	r24
     312:	3f 92       	push	r3
     314:	2f 92       	push	r2
     316:	0e 94 01 08 	call	0x1002	; 0x1002 <sprintf>
		UART_Transmit_String(UART1, 0, p_buffer);
     31a:	42 2d       	mov	r20, r2
     31c:	53 2d       	mov	r21, r3
     31e:	60 e0       	ldi	r22, 0x00	; 0
     320:	88 ec       	ldi	r24, 0xC8	; 200
     322:	90 e0       	ldi	r25, 0x00	; 0
     324:	0e 94 44 07 	call	0xe88	; 0xe88 <UART_Transmit_String>
		RsvdSecCnt = read16(0x000E, array);
     328:	6a 81       	ldd	r22, Y+2	; 0x02
     32a:	7b 81       	ldd	r23, Y+3	; 0x03
     32c:	8e e0       	ldi	r24, 0x0E	; 14
     32e:	90 e0       	ldi	r25, 0x00	; 0
     330:	0e 94 ad 00 	call	0x15a	; 0x15a <read16>
     334:	7c 01       	movw	r14, r24
		sprintf(p_buffer, "\n\rRsvdSecCnt: 0x%X\n\r", RsvdSecCnt);
     336:	ff 92       	push	r15
     338:	8f 93       	push	r24
     33a:	83 e3       	ldi	r24, 0x33	; 51
     33c:	91 e0       	ldi	r25, 0x01	; 1
     33e:	9f 93       	push	r25
     340:	8f 93       	push	r24
     342:	3f 92       	push	r3
     344:	2f 92       	push	r2
     346:	0e 94 01 08 	call	0x1002	; 0x1002 <sprintf>
		UART_Transmit_String(UART1, 0, p_buffer);
     34a:	42 2d       	mov	r20, r2
     34c:	53 2d       	mov	r21, r3
     34e:	60 e0       	ldi	r22, 0x00	; 0
     350:	88 ec       	ldi	r24, 0xC8	; 200
     352:	90 e0       	ldi	r25, 0x00	; 0
     354:	0e 94 44 07 	call	0xe88	; 0xe88 <UART_Transmit_String>
		NumFATs = read8(0x0010, array);
     358:	6a 81       	ldd	r22, Y+2	; 0x02
     35a:	7b 81       	ldd	r23, Y+3	; 0x03
     35c:	80 e1       	ldi	r24, 0x10	; 16
     35e:	90 e0       	ldi	r25, 0x00	; 0
     360:	0e 94 a8 00 	call	0x150	; 0x150 <read8>
     364:	89 83       	std	Y+1, r24	; 0x01
		sprintf(p_buffer, "\n\rNumFATs: 0x%X\n\r", NumFATs);
     366:	1f 92       	push	r1
     368:	8f 93       	push	r24
     36a:	88 e4       	ldi	r24, 0x48	; 72
     36c:	91 e0       	ldi	r25, 0x01	; 1
     36e:	9f 93       	push	r25
     370:	8f 93       	push	r24
     372:	3f 92       	push	r3
     374:	2f 92       	push	r2
     376:	0e 94 01 08 	call	0x1002	; 0x1002 <sprintf>
		UART_Transmit_String(UART1, 0, p_buffer);
     37a:	42 2d       	mov	r20, r2
     37c:	53 2d       	mov	r21, r3
     37e:	60 e0       	ldi	r22, 0x00	; 0
     380:	88 ec       	ldi	r24, 0xC8	; 200
     382:	90 e0       	ldi	r25, 0x00	; 0
     384:	0e 94 44 07 	call	0xe88	; 0xe88 <UART_Transmit_String>
		FATSz32 = read32(0x0024, array);
     388:	6a 81       	ldd	r22, Y+2	; 0x02
     38a:	7b 81       	ldd	r23, Y+3	; 0x03
     38c:	84 e2       	ldi	r24, 0x24	; 36
     38e:	90 e0       	ldi	r25, 0x00	; 0
     390:	0e 94 c1 00 	call	0x182	; 0x182 <read32>
     394:	2b 01       	movw	r4, r22
     396:	3c 01       	movw	r6, r24
		sprintf(p_buffer, "\n\rFATSz32: 0x%X\n\r", FATSz32);
     398:	7f 92       	push	r7
     39a:	6f 92       	push	r6
     39c:	5f 92       	push	r5
     39e:	6f 93       	push	r22
     3a0:	8a e5       	ldi	r24, 0x5A	; 90
     3a2:	91 e0       	ldi	r25, 0x01	; 1
     3a4:	9f 93       	push	r25
     3a6:	8f 93       	push	r24
     3a8:	3f 92       	push	r3
     3aa:	2f 92       	push	r2
     3ac:	0e 94 01 08 	call	0x1002	; 0x1002 <sprintf>
		UART_Transmit_String(UART1, 0, p_buffer);
     3b0:	42 2d       	mov	r20, r2
     3b2:	53 2d       	mov	r21, r3
     3b4:	60 e0       	ldi	r22, 0x00	; 0
     3b6:	88 ec       	ldi	r24, 0xC8	; 200
     3b8:	90 e0       	ldi	r25, 0x00	; 0
     3ba:	0e 94 44 07 	call	0xe88	; 0xe88 <UART_Transmit_String>
		
		if(FATSz32 == 0){
     3be:	0f b6       	in	r0, 0x3f	; 63
     3c0:	f8 94       	cli
     3c2:	de bf       	out	0x3e, r29	; 62
     3c4:	0f be       	out	0x3f, r0	; 63
     3c6:	cd bf       	out	0x3d, r28	; 61
     3c8:	41 14       	cp	r4, r1
     3ca:	51 04       	cpc	r5, r1
     3cc:	61 04       	cpc	r6, r1
     3ce:	71 04       	cpc	r7, r1
     3d0:	09 f4       	brne	.+2      	; 0x3d4 <mount_drive+0x210>
     3d2:	69 c0       	rjmp	.+210    	; 0x4a6 <__EEPROM_REGION_LENGTH__+0xa6>
			return Disk_Error;
		}
		
		if(TotSec16 == 0){
     3d4:	c1 14       	cp	r12, r1
     3d6:	d1 04       	cpc	r13, r1
     3d8:	f1 f4       	brne	.+60     	; 0x416 <__EEPROM_REGION_LENGTH__+0x16>
			DataSec = TotSec16 - (RsvdSecCnt + (NumFATs * FATSz32) + Drive_values->RootDirSecs);
     3da:	46 01       	movw	r8, r12
     3dc:	a1 2c       	mov	r10, r1
     3de:	b1 2c       	mov	r11, r1
     3e0:	39 81       	ldd	r19, Y+1	; 0x01
     3e2:	a3 2f       	mov	r26, r19
     3e4:	b0 e0       	ldi	r27, 0x00	; 0
     3e6:	a3 01       	movw	r20, r6
     3e8:	92 01       	movw	r18, r4
     3ea:	0e 94 ab 07 	call	0xf56	; 0xf56 <__muluhisi3>
     3ee:	ab 01       	movw	r20, r22
     3f0:	bc 01       	movw	r22, r24
     3f2:	4e 0d       	add	r20, r14
     3f4:	5f 1d       	adc	r21, r15
     3f6:	61 1d       	adc	r22, r1
     3f8:	71 1d       	adc	r23, r1
     3fa:	f8 01       	movw	r30, r16
     3fc:	82 89       	ldd	r24, Z+18	; 0x12
     3fe:	93 89       	ldd	r25, Z+19	; 0x13
     400:	a4 89       	ldd	r26, Z+20	; 0x14
     402:	b5 89       	ldd	r27, Z+21	; 0x15
     404:	84 0f       	add	r24, r20
     406:	95 1f       	adc	r25, r21
     408:	a6 1f       	adc	r26, r22
     40a:	b7 1f       	adc	r27, r23
     40c:	88 1a       	sub	r8, r24
     40e:	99 0a       	sbc	r9, r25
     410:	aa 0a       	sbc	r10, r26
     412:	bb 0a       	sbc	r11, r27
     414:	1a c0       	rjmp	.+52     	; 0x44a <__EEPROM_REGION_LENGTH__+0x4a>
		}
		else{
			DataSec = TotSec32 - (RsvdSecCnt + (NumFATs * FATSz32) + Drive_values->RootDirSecs);
     416:	f9 81       	ldd	r31, Y+1	; 0x01
     418:	af 2f       	mov	r26, r31
     41a:	b0 e0       	ldi	r27, 0x00	; 0
     41c:	a3 01       	movw	r20, r6
     41e:	92 01       	movw	r18, r4
     420:	0e 94 ab 07 	call	0xf56	; 0xf56 <__muluhisi3>
     424:	ab 01       	movw	r20, r22
     426:	bc 01       	movw	r22, r24
     428:	4e 0d       	add	r20, r14
     42a:	5f 1d       	adc	r21, r15
     42c:	61 1d       	adc	r22, r1
     42e:	71 1d       	adc	r23, r1
     430:	f8 01       	movw	r30, r16
     432:	82 89       	ldd	r24, Z+18	; 0x12
     434:	93 89       	ldd	r25, Z+19	; 0x13
     436:	a4 89       	ldd	r26, Z+20	; 0x14
     438:	b5 89       	ldd	r27, Z+21	; 0x15
     43a:	84 0f       	add	r24, r20
     43c:	95 1f       	adc	r25, r21
     43e:	a6 1f       	adc	r26, r22
     440:	b7 1f       	adc	r27, r23
     442:	88 1a       	sub	r8, r24
     444:	99 0a       	sbc	r9, r25
     446:	aa 0a       	sbc	r10, r26
     448:	bb 0a       	sbc	r11, r27
		}
		
		sprintf(p_buffer, "\n\rDataSec: 0x%X\n\r", DataSec);
     44a:	bf 92       	push	r11
     44c:	af 92       	push	r10
     44e:	9f 92       	push	r9
     450:	8f 92       	push	r8
     452:	8c e6       	ldi	r24, 0x6C	; 108
     454:	91 e0       	ldi	r25, 0x01	; 1
     456:	9f 93       	push	r25
     458:	8f 93       	push	r24
     45a:	3f 92       	push	r3
     45c:	2f 92       	push	r2
     45e:	0e 94 01 08 	call	0x1002	; 0x1002 <sprintf>
		UART_Transmit_String(UART1, 0, p_buffer);
     462:	42 2d       	mov	r20, r2
     464:	53 2d       	mov	r21, r3
     466:	60 e0       	ldi	r22, 0x00	; 0
     468:	88 ec       	ldi	r24, 0xC8	; 200
     46a:	90 e0       	ldi	r25, 0x00	; 0
     46c:	0e 94 44 07 	call	0xe88	; 0xe88 <UART_Transmit_String>
		
		// CountOfClusters = DataSec / SecPerClus
		CountOfClusters = DataSec / Drive_values->SecPerClus;
     470:	f8 01       	movw	r30, r16
     472:	20 81       	ld	r18, Z
     474:	30 e0       	ldi	r19, 0x00	; 0
     476:	40 e0       	ldi	r20, 0x00	; 0
     478:	50 e0       	ldi	r21, 0x00	; 0
     47a:	c5 01       	movw	r24, r10
     47c:	b4 01       	movw	r22, r8
     47e:	0e 94 89 07 	call	0xf12	; 0xf12 <__udivmodsi4>
		
		// Fat Type
		if(CountOfClusters < 65525){
     482:	0f b6       	in	r0, 0x3f	; 63
     484:	f8 94       	cli
     486:	de bf       	out	0x3e, r29	; 62
     488:	0f be       	out	0x3f, r0	; 63
     48a:	cd bf       	out	0x3d, r28	; 61
     48c:	25 3f       	cpi	r18, 0xF5	; 245
     48e:	3f 4f       	sbci	r19, 0xFF	; 255
     490:	41 05       	cpc	r20, r1
     492:	51 05       	cpc	r21, r1
     494:	50 f0       	brcs	.+20     	; 0x4aa <__EEPROM_REGION_LENGTH__+0xaa>
			return Disk_Error;
		}
		else{
			Drive_values->FATtype = 32;
     496:	80 e2       	ldi	r24, 0x20	; 32
     498:	f8 01       	movw	r30, r16
     49a:	81 83       	std	Z+1, r24	; 0x01
			return no_errors;
     49c:	80 e0       	ldi	r24, 0x00	; 0
     49e:	06 c0       	rjmp	.+12     	; 0x4ac <__EEPROM_REGION_LENGTH__+0xac>
		}
		
	}
	
}
     4a0:	05 c0       	rjmp	.+10     	; 0x4ac <__EEPROM_REGION_LENGTH__+0xac>
		UART_Transmit_String(UART1, 0, p_buffer);
		
		error_flag = Send_Command(17, bpb_addr);
		error_flag = Read_Block(512, array);
		if((array[0] != 0xEB) && (array[0] != 0xE9)){
			return Disk_Error;
     4a2:	80 ef       	ldi	r24, 0xF0	; 240
     4a4:	03 c0       	rjmp	.+6      	; 0x4ac <__EEPROM_REGION_LENGTH__+0xac>
		FATSz32 = read32(0x0024, array);
		sprintf(p_buffer, "\n\rFATSz32: 0x%X\n\r", FATSz32);
		UART_Transmit_String(UART1, 0, p_buffer);
		
		if(FATSz32 == 0){
			return Disk_Error;
     4a6:	80 ef       	ldi	r24, 0xF0	; 240
     4a8:	01 c0       	rjmp	.+2      	; 0x4ac <__EEPROM_REGION_LENGTH__+0xac>
		// CountOfClusters = DataSec / SecPerClus
		CountOfClusters = DataSec / Drive_values->SecPerClus;
		
		// Fat Type
		if(CountOfClusters < 65525){
			return Disk_Error;
     4aa:	80 ef       	ldi	r24, 0xF0	; 240
			return no_errors;
		}
		
	}
	
}
     4ac:	0f 90       	pop	r0
     4ae:	0f 90       	pop	r0
     4b0:	0f 90       	pop	r0
     4b2:	df 91       	pop	r29
     4b4:	cf 91       	pop	r28
     4b6:	1f 91       	pop	r17
     4b8:	0f 91       	pop	r16
     4ba:	ff 90       	pop	r15
     4bc:	ef 90       	pop	r14
     4be:	df 90       	pop	r13
     4c0:	cf 90       	pop	r12
     4c2:	bf 90       	pop	r11
     4c4:	af 90       	pop	r10
     4c6:	9f 90       	pop	r9
     4c8:	8f 90       	pop	r8
     4ca:	7f 90       	pop	r7
     4cc:	6f 90       	pop	r6
     4ce:	5f 90       	pop	r5
     4d0:	4f 90       	pop	r4
     4d2:	3f 90       	pop	r3
     4d4:	2f 90       	pop	r2
     4d6:	08 95       	ret

000004d8 <GPIO_Output_Init>:
#include "GPIO_Outputs.h"

void GPIO_Output_Init(volatile GPIO_t * port_addr, uint8_t pin_mask)
{
	//Set Port Pin to be an output with initial value '1'
	(port_addr->GPIO_DDR)|=(pin_mask);    // Set DDRx to make port pin an output
     4d8:	fc 01       	movw	r30, r24
     4da:	21 81       	ldd	r18, Z+1	; 0x01
     4dc:	62 2b       	or	r22, r18
     4de:	61 83       	std	Z+1, r22	; 0x01
     4e0:	08 95       	ret

000004e2 <GPIO_Output_Set>:


void GPIO_Output_Set(volatile GPIO_t * port_addr, uint8_t pin_mask)
{
	//control = 0, LED off; control = 1, LED on 
		(port_addr->GPIO_PORT)|=(pin_mask);    // Set PORTx PORTx pin to value of '1'
     4e2:	fc 01       	movw	r30, r24
     4e4:	22 81       	ldd	r18, Z+2	; 0x02
     4e6:	62 2b       	or	r22, r18
     4e8:	62 83       	std	Z+2, r22	; 0x02
     4ea:	08 95       	ret

000004ec <GPIO_Output_Clear>:
}

void GPIO_Output_Clear(volatile GPIO_t * port_addr, uint8_t pin_mask)
{
     4ec:	fc 01       	movw	r30, r24
	//control = 0, LED off; control = 1, LED on
		(port_addr->GPIO_PORT)&=~(pin_mask);    // Clear PORTx pin to value of '0'
     4ee:	92 81       	ldd	r25, Z+2	; 0x02
     4f0:	60 95       	com	r22
     4f2:	69 23       	and	r22, r25
     4f4:	62 83       	std	Z+2, r22	; 0x02
     4f6:	08 95       	ret

000004f8 <Long_Serial_Input>:
RETURNS: unsigned long
CAUTION: UART must be initialized first
************************************************************************/

uint32_t Long_Serial_Input(volatile UART_t * UART_addr)
{
     4f8:	8f 92       	push	r8
     4fa:	9f 92       	push	r9
     4fc:	af 92       	push	r10
     4fe:	bf 92       	push	r11
     500:	ef 92       	push	r14
     502:	ff 92       	push	r15
     504:	0f 93       	push	r16
     506:	1f 93       	push	r17
     508:	cf 93       	push	r28
     50a:	df 93       	push	r29
     50c:	cd b7       	in	r28, 0x3d	; 61
     50e:	de b7       	in	r29, 0x3e	; 62
     510:	2b 97       	sbiw	r28, 0x0b	; 11
     512:	0f b6       	in	r0, 0x3f	; 63
     514:	f8 94       	cli
     516:	de bf       	out	0x3e, r29	; 62
     518:	0f be       	out	0x3f, r0	; 63
     51a:	cd bf       	out	0x3d, r28	; 61
     51c:	7c 01       	movw	r14, r24
   uint8_t index,input;
   char input_values[11];   
   uint32_t output_value;
      for(index=0;index<11;index++)
     51e:	80 e0       	ldi	r24, 0x00	; 0
     520:	08 c0       	rjmp	.+16     	; 0x532 <Long_Serial_Input+0x3a>
      {
        input_values[index]=0;
     522:	e1 e0       	ldi	r30, 0x01	; 1
     524:	f0 e0       	ldi	r31, 0x00	; 0
     526:	ec 0f       	add	r30, r28
     528:	fd 1f       	adc	r31, r29
     52a:	e8 0f       	add	r30, r24
     52c:	f1 1d       	adc	r31, r1
     52e:	10 82       	st	Z, r1
uint32_t Long_Serial_Input(volatile UART_t * UART_addr)
{
   uint8_t index,input;
   char input_values[11];   
   uint32_t output_value;
      for(index=0;index<11;index++)
     530:	8f 5f       	subi	r24, 0xFF	; 255
     532:	8b 30       	cpi	r24, 0x0B	; 11
     534:	b0 f3       	brcs	.-20     	; 0x522 <Long_Serial_Input+0x2a>
     536:	88 24       	eor	r8, r8
     538:	8a 94       	dec	r8
     53a:	98 2c       	mov	r9, r8
     53c:	54 01       	movw	r10, r8
     53e:	00 e0       	ldi	r16, 0x00	; 0
      }
      output_value=0xffffffff;
      index=0;
      do
      {
         input=UART_Receive(UART_addr);
     540:	c7 01       	movw	r24, r14
     542:	0e 94 15 07 	call	0xe2a	; 0xe2a <UART_Receive>
     546:	18 2f       	mov	r17, r24
         if((input>=0x30)&&(input<=0x39))
     548:	80 ed       	ldi	r24, 0xD0	; 208
     54a:	81 0f       	add	r24, r17
     54c:	8a 30       	cpi	r24, 0x0A	; 10
     54e:	68 f4       	brcc	.+26     	; 0x56a <Long_Serial_Input+0x72>
         {
           UART_Transmit(UART_addr,input);    // echo valid inputs only
     550:	61 2f       	mov	r22, r17
     552:	c7 01       	movw	r24, r14
     554:	0e 94 0e 07 	call	0xe1c	; 0xe1c <UART_Transmit>
		   input_values[index]=input;
     558:	e1 e0       	ldi	r30, 0x01	; 1
     55a:	f0 e0       	ldi	r31, 0x00	; 0
     55c:	ec 0f       	add	r30, r28
     55e:	fd 1f       	adc	r31, r29
     560:	e0 0f       	add	r30, r16
     562:	f1 1d       	adc	r31, r1
     564:	10 83       	st	Z, r17
           index++;
     566:	0f 5f       	subi	r16, 0xFF	; 255
     568:	2d c0       	rjmp	.+90     	; 0x5c4 <Long_Serial_Input+0xcc>
         }
         else if ((input==BS)||(input==DEL))  // Putty uses DEL (127) or BS (0x08) for backspace
     56a:	18 30       	cpi	r17, 0x08	; 8
     56c:	11 f0       	breq	.+4      	; 0x572 <Long_Serial_Input+0x7a>
     56e:	1f 37       	cpi	r17, 0x7F	; 127
     570:	a9 f4       	brne	.+42     	; 0x59c <Long_Serial_Input+0xa4>
         {
           index--;
     572:	01 50       	subi	r16, 0x01	; 1
           input_values[index]=0;
     574:	e1 e0       	ldi	r30, 0x01	; 1
     576:	f0 e0       	ldi	r31, 0x00	; 0
     578:	ec 0f       	add	r30, r28
     57a:	fd 1f       	adc	r31, r29
     57c:	e0 0f       	add	r30, r16
     57e:	f1 1d       	adc	r31, r1
     580:	10 82       	st	Z, r1
		   UART_Transmit(UART_addr,BS);
     582:	68 e0       	ldi	r22, 0x08	; 8
     584:	c7 01       	movw	r24, r14
     586:	0e 94 0e 07 	call	0xe1c	; 0xe1c <UART_Transmit>
           UART_Transmit(UART_addr,space);
     58a:	60 e2       	ldi	r22, 0x20	; 32
     58c:	c7 01       	movw	r24, r14
     58e:	0e 94 0e 07 	call	0xe1c	; 0xe1c <UART_Transmit>
           UART_Transmit(UART_addr,BS);
     592:	68 e0       	ldi	r22, 0x08	; 8
     594:	c7 01       	movw	r24, r14
     596:	0e 94 0e 07 	call	0xe1c	; 0xe1c <UART_Transmit>
     59a:	14 c0       	rjmp	.+40     	; 0x5c4 <Long_Serial_Input+0xcc>
         }
		 //*** Added '.' as a replacement for ENTER since CR or LF does not work for Atmel Studio Data Visualizer ****//
         else if ((input==CR)||(input==LF)||(input=='.'))
     59c:	1d 30       	cpi	r17, 0x0D	; 13
     59e:	21 f0       	breq	.+8      	; 0x5a8 <Long_Serial_Input+0xb0>
     5a0:	1a 30       	cpi	r17, 0x0A	; 10
     5a2:	11 f0       	breq	.+4      	; 0x5a8 <Long_Serial_Input+0xb0>
     5a4:	1e 32       	cpi	r17, 0x2E	; 46
     5a6:	71 f4       	brne	.+28     	; 0x5c4 <Long_Serial_Input+0xcc>
         {
            output_value=atol(input_values);
     5a8:	ce 01       	movw	r24, r28
     5aa:	01 96       	adiw	r24, 0x01	; 1
     5ac:	0e 94 c5 07 	call	0xf8a	; 0xf8a <atol>
     5b0:	4b 01       	movw	r8, r22
     5b2:	5c 01       	movw	r10, r24
            UART_Transmit(UART_addr,CR);
     5b4:	6d e0       	ldi	r22, 0x0D	; 13
     5b6:	c7 01       	movw	r24, r14
     5b8:	0e 94 0e 07 	call	0xe1c	; 0xe1c <UART_Transmit>
			UART_Transmit(UART_addr,LF);
     5bc:	6a e0       	ldi	r22, 0x0A	; 10
     5be:	c7 01       	movw	r24, r14
     5c0:	0e 94 0e 07 	call	0xe1c	; 0xe1c <UART_Transmit>
         }
         if(index==10)
     5c4:	0a 30       	cpi	r16, 0x0A	; 10
     5c6:	71 f4       	brne	.+28     	; 0x5e4 <Long_Serial_Input+0xec>
         {
            output_value=atol(input_values);
     5c8:	ce 01       	movw	r24, r28
     5ca:	01 96       	adiw	r24, 0x01	; 1
     5cc:	0e 94 c5 07 	call	0xf8a	; 0xf8a <atol>
     5d0:	4b 01       	movw	r8, r22
     5d2:	5c 01       	movw	r10, r24
            UART_Transmit(UART_addr,CR);
     5d4:	6d e0       	ldi	r22, 0x0D	; 13
     5d6:	c7 01       	movw	r24, r14
     5d8:	0e 94 0e 07 	call	0xe1c	; 0xe1c <UART_Transmit>
			UART_Transmit(UART_addr,LF);
     5dc:	6a e0       	ldi	r22, 0x0A	; 10
     5de:	c7 01       	movw	r24, r14
     5e0:	0e 94 0e 07 	call	0xe1c	; 0xe1c <UART_Transmit>
         }
      }while(output_value==0xffffffff);
     5e4:	8f ef       	ldi	r24, 0xFF	; 255
     5e6:	88 16       	cp	r8, r24
     5e8:	98 06       	cpc	r9, r24
     5ea:	a8 06       	cpc	r10, r24
     5ec:	b8 06       	cpc	r11, r24
     5ee:	09 f4       	brne	.+2      	; 0x5f2 <Long_Serial_Input+0xfa>
     5f0:	a7 cf       	rjmp	.-178    	; 0x540 <Long_Serial_Input+0x48>

return output_value;
}
     5f2:	c5 01       	movw	r24, r10
     5f4:	b4 01       	movw	r22, r8
     5f6:	2b 96       	adiw	r28, 0x0b	; 11
     5f8:	0f b6       	in	r0, 0x3f	; 63
     5fa:	f8 94       	cli
     5fc:	de bf       	out	0x3e, r29	; 62
     5fe:	0f be       	out	0x3f, r0	; 63
     600:	cd bf       	out	0x3d, r28	; 61
     602:	df 91       	pop	r29
     604:	cf 91       	pop	r28
     606:	1f 91       	pop	r17
     608:	0f 91       	pop	r16
     60a:	ff 90       	pop	r15
     60c:	ef 90       	pop	r14
     60e:	bf 90       	pop	r11
     610:	af 90       	pop	r10
     612:	9f 90       	pop	r9
     614:	8f 90       	pop	r8
     616:	08 95       	ret

00000618 <main>:
#include "SPI.h"
#include "TWI.h"
#include "STA013.h"

int main(void)
{
     618:	cf 93       	push	r28
     61a:	df 93       	push	r29
     61c:	cd b7       	in	r28, 0x3d	; 61
     61e:	de b7       	in	r29, 0x3e	; 62
     620:	d2 50       	subi	r29, 0x02	; 2
     622:	0f b6       	in	r0, 0x3f	; 63
     624:	f8 94       	cli
     626:	de bf       	out	0x3e, r29	; 62
     628:	0f be       	out	0x3f, r0	; 63
     62a:	cd bf       	out	0x3d, r28	; 61
	char string_in_SRAM [63] = "This is a string in SRAM - Garrett Mason & Harrison Heselbarth";
	// Local variables
	char * p_buffer;
	p_buffer = Export_print_buffer();
     62c:	0e 94 1b 07 	call	0xe36	; 0xe36 <Export_print_buffer>
     630:	08 2f       	mov	r16, r24
     632:	19 2f       	mov	r17, r25
	uint8_t error_flag;
	uint8_t array[512];
	
	// Initializations
	UART_Init(UART1,9600);
     634:	60 e8       	ldi	r22, 0x80	; 128
     636:	75 e2       	ldi	r23, 0x25	; 37
     638:	88 ec       	ldi	r24, 0xC8	; 200
     63a:	90 e0       	ldi	r25, 0x00	; 0
     63c:	0e 94 e4 06 	call	0xdc8	; 0xdc8 <UART_Init>
	uint8_t SPI_error = SPI_Master_Init(SPI0_base, 400000UL);
     640:	40 e8       	ldi	r20, 0x80	; 128
     642:	5a e1       	ldi	r21, 0x1A	; 26
     644:	66 e0       	ldi	r22, 0x06	; 6
     646:	70 e0       	ldi	r23, 0x00	; 0
     648:	8c e4       	ldi	r24, 0x4C	; 76
     64a:	90 e0       	ldi	r25, 0x00	; 0
     64c:	0e 94 02 06 	call	0xc04	; 0xc04 <SPI_Master_Init>
	uint8_t SD_error = SD_Card_Init();
     650:	0e 94 09 05 	call	0xa12	; 0xa12 <SD_Card_Init>
	uint8_t SPI_error2 = SPI_Master_Init(SPI0_base, 25000000UL);
     654:	40 e4       	ldi	r20, 0x40	; 64
     656:	58 e7       	ldi	r21, 0x78	; 120
     658:	6d e7       	ldi	r22, 0x7D	; 125
     65a:	71 e0       	ldi	r23, 0x01	; 1
     65c:	8c e4       	ldi	r24, 0x4C	; 76
     65e:	90 e0       	ldi	r25, 0x00	; 0
     660:	0e 94 02 06 	call	0xc04	; 0xc04 <SPI_Master_Init>
	uint8_t TWI_error = TWI_Master_Init(TWI1_Base, 2500UL);
     664:	44 ec       	ldi	r20, 0xC4	; 196
     666:	59 e0       	ldi	r21, 0x09	; 9
     668:	60 e0       	ldi	r22, 0x00	; 0
     66a:	70 e0       	ldi	r23, 0x00	; 0
     66c:	88 ed       	ldi	r24, 0xD8	; 216
     66e:	90 e0       	ldi	r25, 0x00	; 0
     670:	0e 94 90 06 	call	0xd20	; 0xd20 <TWI_Master_Init>
	/*uint8_t array[3];*/
	//STA013_Master_Init(p_buffer, array);
	
	while(1){
		// Prompt user for read block address
		sprintf(p_buffer, "\n\rEnter a block number to read:\n\r");
     674:	82 e2       	ldi	r24, 0x22	; 34
     676:	ee e7       	ldi	r30, 0x7E	; 126
     678:	f1 e0       	ldi	r31, 0x01	; 1
     67a:	a0 2f       	mov	r26, r16
     67c:	b1 2f       	mov	r27, r17
     67e:	01 90       	ld	r0, Z+
     680:	0d 92       	st	X+, r0
     682:	8a 95       	dec	r24
     684:	e1 f7       	brne	.-8      	; 0x67e <main+0x66>
		UART_Transmit_String(UART1, 0, p_buffer);
     686:	40 2f       	mov	r20, r16
     688:	51 2f       	mov	r21, r17
     68a:	60 e0       	ldi	r22, 0x00	; 0
     68c:	88 ec       	ldi	r24, 0xC8	; 200
     68e:	90 e0       	ldi	r25, 0x00	; 0
     690:	0e 94 44 07 	call	0xe88	; 0xe88 <UART_Transmit_String>
		uint32_t user_input = Long_Serial_Input(UART1);
     694:	88 ec       	ldi	r24, 0xC8	; 200
     696:	90 e0       	ldi	r25, 0x00	; 0
     698:	0e 94 7c 02 	call	0x4f8	; 0x4f8 <Long_Serial_Input>
     69c:	c6 2e       	mov	r12, r22
     69e:	d7 2e       	mov	r13, r23
     6a0:	e8 2e       	mov	r14, r24
     6a2:	f9 2e       	mov	r15, r25
		sprintf(p_buffer, "\n\rThe block number you entered: 0x%X\n\r", user_input);
     6a4:	9f 93       	push	r25
     6a6:	8f 93       	push	r24
     6a8:	7f 93       	push	r23
     6aa:	6f 93       	push	r22
     6ac:	80 ea       	ldi	r24, 0xA0	; 160
     6ae:	91 e0       	ldi	r25, 0x01	; 1
     6b0:	9f 93       	push	r25
     6b2:	8f 93       	push	r24
     6b4:	1f 93       	push	r17
     6b6:	0f 93       	push	r16
     6b8:	0e 94 01 08 	call	0x1002	; 0x1002 <sprintf>
		UART_Transmit_String(UART1, 0, p_buffer);
     6bc:	40 2f       	mov	r20, r16
     6be:	51 2f       	mov	r21, r17
     6c0:	60 e0       	ldi	r22, 0x00	; 0
     6c2:	88 ec       	ldi	r24, 0xC8	; 200
     6c4:	90 e0       	ldi	r25, 0x00	; 0
     6c6:	0e 94 44 07 	call	0xe88	; 0xe88 <UART_Transmit_String>
		
		// Read block
		SD_CS_active(SD_CS_port, SD_CS_pin);
     6ca:	60 e1       	ldi	r22, 0x10	; 16
     6cc:	83 e2       	ldi	r24, 0x23	; 35
     6ce:	90 e0       	ldi	r25, 0x00	; 0
     6d0:	0e 94 34 04 	call	0x868	; 0x868 <SD_CS_active>
		error_flag = Send_Command(17, user_input);		
     6d4:	4c 2d       	mov	r20, r12
     6d6:	5d 2d       	mov	r21, r13
     6d8:	6e 2d       	mov	r22, r14
     6da:	7f 2d       	mov	r23, r15
     6dc:	81 e1       	ldi	r24, 0x11	; 17
     6de:	0e 94 82 04 	call	0x904	; 0x904 <Send_Command>
		error_flag = Read_Block(512, array);
     6e2:	be 01       	movw	r22, r28
     6e4:	6f 5f       	subi	r22, 0xFF	; 255
     6e6:	7f 4f       	sbci	r23, 0xFF	; 255
     6e8:	80 e0       	ldi	r24, 0x00	; 0
     6ea:	92 e0       	ldi	r25, 0x02	; 2
     6ec:	0e 94 3c 04 	call	0x878	; 0x878 <Read_Block>
		
		// Printing
		print_memory(UART1, 512, array);		
     6f0:	ae 01       	movw	r20, r28
     6f2:	4f 5f       	subi	r20, 0xFF	; 255
     6f4:	5f 4f       	sbci	r21, 0xFF	; 255
     6f6:	60 e0       	ldi	r22, 0x00	; 0
     6f8:	72 e0       	ldi	r23, 0x02	; 2
     6fa:	88 ec       	ldi	r24, 0xC8	; 200
     6fc:	90 e0       	ldi	r25, 0x00	; 0
     6fe:	0e 94 07 04 	call	0x80e	; 0x80e <print_memory>
		mount_drive(array);
     702:	ce 01       	movw	r24, r28
     704:	01 96       	adiw	r24, 0x01	; 1
     706:	0e 94 e2 00 	call	0x1c4	; 0x1c4 <mount_drive>
     70a:	0f b6       	in	r0, 0x3f	; 63
     70c:	f8 94       	cli
     70e:	de bf       	out	0x3e, r29	; 62
     710:	0f be       	out	0x3f, r0	; 63
     712:	cd bf       	out	0x3d, r28	; 61
     714:	af cf       	rjmp	.-162    	; 0x674 <main+0x5c>

00000716 <print_16bytes>:
INPUT: Pointer to an array of eight bytes
RETURNS: nothing
CAUTION: 
************************************************************************/
void print_16bytes(volatile UART_t * UART_addr, uint8_t * array_in, uint16_t offset)
{
     716:	af 92       	push	r10
     718:	bf 92       	push	r11
     71a:	df 92       	push	r13
     71c:	ef 92       	push	r14
     71e:	ff 92       	push	r15
     720:	0f 93       	push	r16
     722:	1f 93       	push	r17
     724:	cf 93       	push	r28
     726:	df 93       	push	r29
     728:	8c 01       	movw	r16, r24
     72a:	7b 01       	movw	r14, r22
     72c:	5a 01       	movw	r10, r20
   uint8_t * input;
   uint8_t index, dat;
   char * prnt_bffr;
   
   prnt_bffr=Export_print_buffer();
     72e:	0e 94 1b 07 	call	0xe36	; 0xe36 <Export_print_buffer>
     732:	d8 2e       	mov	r13, r24
     734:	d9 2f       	mov	r29, r25
   
   input = array_in+offset;
     736:	ea 0c       	add	r14, r10
     738:	fb 1c       	adc	r15, r11
   sprintf(prnt_bffr, "%p ",input);
     73a:	ff 92       	push	r15
     73c:	ef 92       	push	r14
     73e:	87 ec       	ldi	r24, 0xC7	; 199
     740:	91 e0       	ldi	r25, 0x01	; 1
     742:	9f 93       	push	r25
     744:	8f 93       	push	r24
     746:	df 93       	push	r29
     748:	df 92       	push	r13
     74a:	0e 94 01 08 	call	0x1002	; 0x1002 <sprintf>
   UART_Transmit_String(UART_addr,0,prnt_bffr);
     74e:	4d 2d       	mov	r20, r13
     750:	5d 2f       	mov	r21, r29
     752:	60 e0       	ldi	r22, 0x00	; 0
     754:	c8 01       	movw	r24, r16
     756:	0e 94 44 07 	call	0xe88	; 0xe88 <UART_Transmit_String>
   sprintf(prnt_bffr,"0x%4.4X  ",offset);
     75a:	bf 92       	push	r11
     75c:	af 92       	push	r10
     75e:	8b ec       	ldi	r24, 0xCB	; 203
     760:	91 e0       	ldi	r25, 0x01	; 1
     762:	9f 93       	push	r25
     764:	8f 93       	push	r24
     766:	df 93       	push	r29
     768:	df 92       	push	r13
     76a:	0e 94 01 08 	call	0x1002	; 0x1002 <sprintf>
   UART_Transmit_String(UART_addr,0,prnt_bffr);
     76e:	4d 2d       	mov	r20, r13
     770:	5d 2f       	mov	r21, r29
     772:	60 e0       	ldi	r22, 0x00	; 0
     774:	c8 01       	movw	r24, r16
     776:	0e 94 44 07 	call	0xe88	; 0xe88 <UART_Transmit_String>
   for (index=0;index<16;index++)
     77a:	8d b7       	in	r24, 0x3d	; 61
     77c:	9e b7       	in	r25, 0x3e	; 62
     77e:	0c 96       	adiw	r24, 0x0c	; 12
     780:	0f b6       	in	r0, 0x3f	; 63
     782:	f8 94       	cli
     784:	9e bf       	out	0x3e, r25	; 62
     786:	0f be       	out	0x3f, r0	; 63
     788:	8d bf       	out	0x3d, r24	; 61
     78a:	c0 e0       	ldi	r28, 0x00	; 0
     78c:	1b c0       	rjmp	.+54     	; 0x7c4 <print_16bytes+0xae>
   {
      dat=*(input+index);
     78e:	f7 01       	movw	r30, r14
     790:	ec 0f       	add	r30, r28
     792:	f1 1d       	adc	r31, r1
     794:	80 81       	ld	r24, Z
      sprintf(prnt_bffr, "%2.2X ",dat);   // Changed from %2.2bX because this printf function can correctly determine number of bytes
     796:	1f 92       	push	r1
     798:	8f 93       	push	r24
     79a:	85 ed       	ldi	r24, 0xD5	; 213
     79c:	91 e0       	ldi	r25, 0x01	; 1
     79e:	9f 93       	push	r25
     7a0:	8f 93       	push	r24
     7a2:	df 93       	push	r29
     7a4:	df 92       	push	r13
     7a6:	0e 94 01 08 	call	0x1002	; 0x1002 <sprintf>
	  UART_Transmit_String(UART_addr,0,prnt_bffr);
     7aa:	4d 2d       	mov	r20, r13
     7ac:	5d 2f       	mov	r21, r29
     7ae:	60 e0       	ldi	r22, 0x00	; 0
     7b0:	c8 01       	movw	r24, r16
     7b2:	0e 94 44 07 	call	0xe88	; 0xe88 <UART_Transmit_String>
   input = array_in+offset;
   sprintf(prnt_bffr, "%p ",input);
   UART_Transmit_String(UART_addr,0,prnt_bffr);
   sprintf(prnt_bffr,"0x%4.4X  ",offset);
   UART_Transmit_String(UART_addr,0,prnt_bffr);
   for (index=0;index<16;index++)
     7b6:	cf 5f       	subi	r28, 0xFF	; 255
     7b8:	0f 90       	pop	r0
     7ba:	0f 90       	pop	r0
     7bc:	0f 90       	pop	r0
     7be:	0f 90       	pop	r0
     7c0:	0f 90       	pop	r0
     7c2:	0f 90       	pop	r0
     7c4:	c0 31       	cpi	r28, 0x10	; 16
     7c6:	18 f3       	brcs	.-58     	; 0x78e <print_16bytes+0x78>
     7c8:	c0 e0       	ldi	r28, 0x00	; 0
     7ca:	0d c0       	rjmp	.+26     	; 0x7e6 <print_16bytes+0xd0>
      sprintf(prnt_bffr, "%2.2X ",dat);   // Changed from %2.2bX because this printf function can correctly determine number of bytes
	  UART_Transmit_String(UART_addr,0,prnt_bffr);
   }
   for (index=0;index<16;index++)
   { 
      dat=*(input+index);
     7cc:	f7 01       	movw	r30, r14
     7ce:	ec 0f       	add	r30, r28
     7d0:	f1 1d       	adc	r31, r1
     7d2:	60 81       	ld	r22, Z
      if (dat<32 || dat>127) dat=46;
     7d4:	80 ee       	ldi	r24, 0xE0	; 224
     7d6:	86 0f       	add	r24, r22
     7d8:	80 36       	cpi	r24, 0x60	; 96
     7da:	08 f0       	brcs	.+2      	; 0x7de <print_16bytes+0xc8>
     7dc:	6e e2       	ldi	r22, 0x2E	; 46
      UART_Transmit(UART_addr,dat);
     7de:	c8 01       	movw	r24, r16
     7e0:	0e 94 0e 07 	call	0xe1c	; 0xe1c <UART_Transmit>
   {
      dat=*(input+index);
      sprintf(prnt_bffr, "%2.2X ",dat);   // Changed from %2.2bX because this printf function can correctly determine number of bytes
	  UART_Transmit_String(UART_addr,0,prnt_bffr);
   }
   for (index=0;index<16;index++)
     7e4:	cf 5f       	subi	r28, 0xFF	; 255
     7e6:	c0 31       	cpi	r28, 0x10	; 16
     7e8:	88 f3       	brcs	.-30     	; 0x7cc <print_16bytes+0xb6>
   { 
      dat=*(input+index);
      if (dat<32 || dat>127) dat=46;
      UART_Transmit(UART_addr,dat);
   }
   UART_Transmit(UART_addr,CR);
     7ea:	6d e0       	ldi	r22, 0x0D	; 13
     7ec:	c8 01       	movw	r24, r16
     7ee:	0e 94 0e 07 	call	0xe1c	; 0xe1c <UART_Transmit>
   UART_Transmit(UART_addr,LF);
     7f2:	6a e0       	ldi	r22, 0x0A	; 10
     7f4:	c8 01       	movw	r24, r16
     7f6:	0e 94 0e 07 	call	0xe1c	; 0xe1c <UART_Transmit>
}
     7fa:	df 91       	pop	r29
     7fc:	cf 91       	pop	r28
     7fe:	1f 91       	pop	r17
     800:	0f 91       	pop	r16
     802:	ff 90       	pop	r15
     804:	ef 90       	pop	r14
     806:	df 90       	pop	r13
     808:	bf 90       	pop	r11
     80a:	af 90       	pop	r10
     80c:	08 95       	ret

0000080e <print_memory>:
INPUT: Pointer to an array, number of bytes to print
RETURNS: nothing
CAUTION: 
************************************************************************/
void print_memory(volatile UART_t * UART_addr, uint16_t number_of_bytes, uint8_t * array_in)
{
     80e:	cf 92       	push	r12
     810:	df 92       	push	r13
     812:	ef 92       	push	r14
     814:	ff 92       	push	r15
     816:	0f 93       	push	r16
     818:	1f 93       	push	r17
     81a:	cf 93       	push	r28
     81c:	df 93       	push	r29
     81e:	8c 01       	movw	r16, r24
     820:	6b 01       	movw	r12, r22
     822:	7a 01       	movw	r14, r20
   uint16_t input;
   char * prnt_bffr;
   
   prnt_bffr=Export_print_buffer();
     824:	0e 94 1b 07 	call	0xe36	; 0xe36 <Export_print_buffer>
     828:	ec 01       	movw	r28, r24
   
   input = 0;
   Copy_String_to_Buffer(Prnt_bytes_prnt,0,prnt_bffr);
     82a:	ac 01       	movw	r20, r24
     82c:	60 e0       	ldi	r22, 0x00	; 0
     82e:	8c ec       	ldi	r24, 0xCC	; 204
     830:	90 e0       	ldi	r25, 0x00	; 0
     832:	0e 94 1e 07 	call	0xe3c	; 0xe3c <Copy_String_to_Buffer>
   UART_Transmit_String(UART_addr,0,prnt_bffr);
     836:	ae 01       	movw	r20, r28
     838:	60 e0       	ldi	r22, 0x00	; 0
     83a:	c8 01       	movw	r24, r16
     83c:	0e 94 44 07 	call	0xe88	; 0xe88 <UART_Transmit_String>
   uint16_t input;
   char * prnt_bffr;
   
   prnt_bffr=Export_print_buffer();
   
   input = 0;
     840:	c0 e0       	ldi	r28, 0x00	; 0
     842:	d0 e0       	ldi	r29, 0x00	; 0
   Copy_String_to_Buffer(Prnt_bytes_prnt,0,prnt_bffr);
   UART_Transmit_String(UART_addr,0,prnt_bffr);
   do
   {
      print_16bytes(UART_addr,array_in,input);
     844:	ae 01       	movw	r20, r28
     846:	b7 01       	movw	r22, r14
     848:	c8 01       	movw	r24, r16
     84a:	0e 94 8b 03 	call	0x716	; 0x716 <print_16bytes>
      input+=16;
     84e:	60 96       	adiw	r28, 0x10	; 16
   }while(input<(number_of_bytes));
     850:	cc 15       	cp	r28, r12
     852:	dd 05       	cpc	r29, r13
     854:	b8 f3       	brcs	.-18     	; 0x844 <print_memory+0x36>
}
     856:	df 91       	pop	r29
     858:	cf 91       	pop	r28
     85a:	1f 91       	pop	r17
     85c:	0f 91       	pop	r16
     85e:	ff 90       	pop	r15
     860:	ef 90       	pop	r14
     862:	df 90       	pop	r13
     864:	cf 90       	pop	r12
     866:	08 95       	ret

00000868 <SD_CS_active>:
#define Standard_Capacity (9)

static uint8_t SD_Card_Type_g;

void SD_CS_active (volatile GPIO_t *port, uint8_t pin){
	GPIO_Output_Clear(port, pin);
     868:	70 e0       	ldi	r23, 0x00	; 0
     86a:	0e 94 76 02 	call	0x4ec	; 0x4ec <GPIO_Output_Clear>
     86e:	08 95       	ret

00000870 <SD_CS_inactive>:
}

void SD_CS_inactive (volatile GPIO_t *port, uint8_t pin){
	GPIO_Output_Set(port, pin);
     870:	70 e0       	ldi	r23, 0x00	; 0
     872:	0e 94 71 02 	call	0x4e2	; 0x4e2 <GPIO_Output_Set>
     876:	08 95       	ret

00000878 <Read_Block>:
		}
	}
	return error_status;
}

uint8_t Read_Block (uint16_t number_of_bytes, uint8_t * array){
     878:	ef 92       	push	r14
     87a:	ff 92       	push	r15
     87c:	0f 93       	push	r16
     87e:	1f 93       	push	r17
     880:	cf 93       	push	r28
     882:	df 93       	push	r29
     884:	8c 01       	movw	r16, r24
     886:	7b 01       	movw	r14, r22
	uint8_t rcvd_value;
	uint8_t timeout = 0;
     888:	c0 e0       	ldi	r28, 0x00	; 0
	uint8_t error_flag;
	do{
		rcvd_value = SPI_Transfer(SPI0_base, 0xFF);
     88a:	6f ef       	ldi	r22, 0xFF	; 255
     88c:	8c e4       	ldi	r24, 0x4C	; 76
     88e:	90 e0       	ldi	r25, 0x00	; 0
     890:	0e 94 89 06 	call	0xd12	; 0xd12 <SPI_Transfer>
		timeout++;
     894:	cf 5f       	subi	r28, 0xFF	; 255
	}while(rcvd_value == 0xFF && timeout != 0);
     896:	8f 3f       	cpi	r24, 0xFF	; 255
     898:	11 f4       	brne	.+4      	; 0x89e <Read_Block+0x26>
     89a:	c1 11       	cpse	r28, r1
     89c:	f6 cf       	rjmp	.-20     	; 0x88a <Read_Block+0x12>
	
	if(rcvd_value == 0x00){
     89e:	81 11       	cpse	r24, r1
     8a0:	2a c0       	rjmp	.+84     	; 0x8f6 <Read_Block+0x7e>
		do{
			rcvd_value = SPI_Transfer(SPI0_base, 0xFF);
     8a2:	6f ef       	ldi	r22, 0xFF	; 255
     8a4:	8c e4       	ldi	r24, 0x4C	; 76
     8a6:	90 e0       	ldi	r25, 0x00	; 0
     8a8:	0e 94 89 06 	call	0xd12	; 0xd12 <SPI_Transfer>
		}while(rcvd_value == 0xFF);
     8ac:	8f 3f       	cpi	r24, 0xFF	; 255
     8ae:	c9 f3       	breq	.-14     	; 0x8a2 <Read_Block+0x2a>
		
		if(rcvd_value == 0xFE){
     8b0:	8e 3f       	cpi	r24, 0xFE	; 254
     8b2:	09 f5       	brne	.+66     	; 0x8f6 <Read_Block+0x7e>
     8b4:	0b c0       	rjmp	.+22     	; 0x8cc <Read_Block+0x54>
			for(uint16_t index = 0; index < number_of_bytes; index++){
				rcvd_value = SPI_Transfer(SPI0_base, 0xFF);
     8b6:	6f ef       	ldi	r22, 0xFF	; 255
     8b8:	8c e4       	ldi	r24, 0x4C	; 76
     8ba:	90 e0       	ldi	r25, 0x00	; 0
     8bc:	0e 94 89 06 	call	0xd12	; 0xd12 <SPI_Transfer>
				array[index] = rcvd_value;
     8c0:	f7 01       	movw	r30, r14
     8c2:	ec 0f       	add	r30, r28
     8c4:	fd 1f       	adc	r31, r29
     8c6:	80 83       	st	Z, r24
		do{
			rcvd_value = SPI_Transfer(SPI0_base, 0xFF);
		}while(rcvd_value == 0xFF);
		
		if(rcvd_value == 0xFE){
			for(uint16_t index = 0; index < number_of_bytes; index++){
     8c8:	21 96       	adiw	r28, 0x01	; 1
     8ca:	02 c0       	rjmp	.+4      	; 0x8d0 <Read_Block+0x58>
     8cc:	c0 e0       	ldi	r28, 0x00	; 0
     8ce:	d0 e0       	ldi	r29, 0x00	; 0
     8d0:	c0 17       	cp	r28, r16
     8d2:	d1 07       	cpc	r29, r17
     8d4:	80 f3       	brcs	.-32     	; 0x8b6 <Read_Block+0x3e>
				rcvd_value = SPI_Transfer(SPI0_base, 0xFF);
				array[index] = rcvd_value;
			}
			
			// Read and discard
			rcvd_value = SPI_Transfer(SPI0_base, 0xFF);
     8d6:	6f ef       	ldi	r22, 0xFF	; 255
     8d8:	8c e4       	ldi	r24, 0x4C	; 76
     8da:	90 e0       	ldi	r25, 0x00	; 0
     8dc:	0e 94 89 06 	call	0xd12	; 0xd12 <SPI_Transfer>
			rcvd_value = SPI_Transfer(SPI0_base, 0xFF);
     8e0:	6f ef       	ldi	r22, 0xFF	; 255
     8e2:	8c e4       	ldi	r24, 0x4C	; 76
     8e4:	90 e0       	ldi	r25, 0x00	; 0
     8e6:	0e 94 89 06 	call	0xd12	; 0xd12 <SPI_Transfer>
			rcvd_value = SPI_Transfer(SPI0_base, 0xFF);
     8ea:	6f ef       	ldi	r22, 0xFF	; 255
     8ec:	8c e4       	ldi	r24, 0x4C	; 76
     8ee:	90 e0       	ldi	r25, 0x00	; 0
     8f0:	0e 94 89 06 	call	0xd12	; 0xd12 <SPI_Transfer>
			
			
		}
		return rcvd_value;
     8f4:	00 c0       	rjmp	.+0      	; 0x8f6 <Read_Block+0x7e>
	}
}
     8f6:	df 91       	pop	r29
     8f8:	cf 91       	pop	r28
     8fa:	1f 91       	pop	r17
     8fc:	0f 91       	pop	r16
     8fe:	ff 90       	pop	r15
     900:	ef 90       	pop	r14
     902:	08 95       	ret

00000904 <Send_Command>:

uint8_t Send_Command (uint8_t command, uint32_t argument){
     904:	cf 92       	push	r12
     906:	df 92       	push	r13
     908:	ef 92       	push	r14
     90a:	ff 92       	push	r15
     90c:	cf 93       	push	r28
     90e:	df 93       	push	r29
	uint8_t return_value = 0x00;
	uint8_t illegal_command = 0xFF;
	uint8_t send_value;
	
	if(command < 64){
     910:	80 34       	cpi	r24, 0x40	; 64
     912:	a0 f5       	brcc	.+104    	; 0x97c <Send_Command+0x78>
     914:	6a 01       	movw	r12, r20
     916:	7b 01       	movw	r14, r22
     918:	d8 2f       	mov	r29, r24
	else{
		return_value = illegal_command;
		return return_value;
	}
	
	send_value = 0x40 | command;
     91a:	68 2f       	mov	r22, r24
     91c:	60 64       	ori	r22, 0x40	; 64
	SPI_Transfer(SD_SPI_port, send_value);
     91e:	8c e4       	ldi	r24, 0x4C	; 76
     920:	90 e0       	ldi	r25, 0x00	; 0
     922:	0e 94 89 06 	call	0xd12	; 0xd12 <SPI_Transfer>
	for(uint8_t index = 0; index < 4; index++){
     926:	c0 e0       	ldi	r28, 0x00	; 0
     928:	18 c0       	rjmp	.+48     	; 0x95a <Send_Command+0x56>
		send_value = (uint8_t)(argument >> (24 - (index * 8)));
     92a:	23 e0       	ldi	r18, 0x03	; 3
     92c:	30 e0       	ldi	r19, 0x00	; 0
     92e:	2c 1b       	sub	r18, r28
     930:	31 09       	sbc	r19, r1
     932:	22 0f       	add	r18, r18
     934:	33 1f       	adc	r19, r19
     936:	22 0f       	add	r18, r18
     938:	33 1f       	adc	r19, r19
     93a:	22 0f       	add	r18, r18
     93c:	33 1f       	adc	r19, r19
     93e:	c7 01       	movw	r24, r14
     940:	b6 01       	movw	r22, r12
     942:	04 c0       	rjmp	.+8      	; 0x94c <Send_Command+0x48>
     944:	96 95       	lsr	r25
     946:	87 95       	ror	r24
     948:	77 95       	ror	r23
     94a:	67 95       	ror	r22
     94c:	2a 95       	dec	r18
     94e:	d2 f7       	brpl	.-12     	; 0x944 <Send_Command+0x40>
		SPI_Transfer(SD_SPI_port, send_value);
     950:	8c e4       	ldi	r24, 0x4C	; 76
     952:	90 e0       	ldi	r25, 0x00	; 0
     954:	0e 94 89 06 	call	0xd12	; 0xd12 <SPI_Transfer>
		return return_value;
	}
	
	send_value = 0x40 | command;
	SPI_Transfer(SD_SPI_port, send_value);
	for(uint8_t index = 0; index < 4; index++){
     958:	cf 5f       	subi	r28, 0xFF	; 255
     95a:	c4 30       	cpi	r28, 0x04	; 4
     95c:	30 f3       	brcs	.-52     	; 0x92a <Send_Command+0x26>
		send_value = (uint8_t)(argument >> (24 - (index * 8)));
		SPI_Transfer(SD_SPI_port, send_value);
	}
	
	if(command == 0){
     95e:	dd 23       	and	r29, r29
     960:	21 f0       	breq	.+8      	; 0x96a <Send_Command+0x66>
		send_value = 0x95;
	}
	else if (command == 8){
     962:	d8 30       	cpi	r29, 0x08	; 8
     964:	21 f4       	brne	.+8      	; 0x96e <Send_Command+0x6a>
		send_value = 0x87;
     966:	67 e8       	ldi	r22, 0x87	; 135
     968:	03 c0       	rjmp	.+6      	; 0x970 <Send_Command+0x6c>
		send_value = (uint8_t)(argument >> (24 - (index * 8)));
		SPI_Transfer(SD_SPI_port, send_value);
	}
	
	if(command == 0){
		send_value = 0x95;
     96a:	65 e9       	ldi	r22, 0x95	; 149
     96c:	01 c0       	rjmp	.+2      	; 0x970 <Send_Command+0x6c>
	}
	else if (command == 8){
		send_value = 0x87;
	}
	else{
		send_value = 0x01;
     96e:	61 e0       	ldi	r22, 0x01	; 1
	}
	
	SPI_Transfer(SD_SPI_port, send_value);
     970:	8c e4       	ldi	r24, 0x4C	; 76
     972:	90 e0       	ldi	r25, 0x00	; 0
     974:	0e 94 89 06 	call	0xd12	; 0xd12 <SPI_Transfer>
	return return_value;
     978:	80 e0       	ldi	r24, 0x00	; 0
     97a:	01 c0       	rjmp	.+2      	; 0x97e <Send_Command+0x7a>
	if(command < 64){
		return_value = no_errors;
	}
	else{
		return_value = illegal_command;
		return return_value;
     97c:	8f ef       	ldi	r24, 0xFF	; 255
		send_value = 0x01;
	}
	
	SPI_Transfer(SD_SPI_port, send_value);
	return return_value;
}
     97e:	df 91       	pop	r29
     980:	cf 91       	pop	r28
     982:	ff 90       	pop	r15
     984:	ef 90       	pop	r14
     986:	df 90       	pop	r13
     988:	cf 90       	pop	r12
     98a:	08 95       	ret

0000098c <Receive_Response>:

uint8_t Receive_Response (uint8_t number_of_bytes, uint8_t * array_name) {
     98c:	ff 92       	push	r15
     98e:	0f 93       	push	r16
     990:	1f 93       	push	r17
     992:	cf 93       	push	r28
     994:	df 93       	push	r29
     996:	f8 2e       	mov	r15, r24
     998:	8b 01       	movw	r16, r22
	uint8_t return_value = no_errors;
	uint8_t SPI_timeout_error = 0xFA;
	uint8_t SD_comm_error = 0xFE;
	uint8_t timeout = 0;
     99a:	c0 e0       	ldi	r28, 0x00	; 0
	uint8_t rcvd_value;
	
	do{
		rcvd_value = SPI_Transfer(SD_SPI_port, 0xFF);
     99c:	6f ef       	ldi	r22, 0xFF	; 255
     99e:	8c e4       	ldi	r24, 0x4C	; 76
     9a0:	90 e0       	ldi	r25, 0x00	; 0
     9a2:	0e 94 89 06 	call	0xd12	; 0xd12 <SPI_Transfer>
		timeout++;
     9a6:	cf 5f       	subi	r28, 0xFF	; 255
	}while((rcvd_value == 0xFF) && (timeout != 0));
     9a8:	8f 3f       	cpi	r24, 0xFF	; 255
     9aa:	11 f4       	brne	.+4      	; 0x9b0 <Receive_Response+0x24>
     9ac:	c1 11       	cpse	r28, r1
     9ae:	f6 cf       	rjmp	.-20     	; 0x99c <Receive_Response+0x10>
	
	if(timeout == 0){
     9b0:	cc 23       	and	r28, r28
     9b2:	11 f1       	breq	.+68     	; 0x9f8 <Receive_Response+0x6c>
		return_value = SPI_timeout_error;
	}
	else if ((rcvd_value & 0xFE) != 0x00){
     9b4:	98 2f       	mov	r25, r24
     9b6:	9e 7f       	andi	r25, 0xFE	; 254
     9b8:	21 f0       	breq	.+8      	; 0x9c2 <Receive_Response+0x36>
		*array_name = rcvd_value;
     9ba:	f8 01       	movw	r30, r16
     9bc:	80 83       	st	Z, r24
		return_value = SD_comm_error;
     9be:	ce ef       	ldi	r28, 0xFE	; 254
     9c0:	1c c0       	rjmp	.+56     	; 0x9fa <Receive_Response+0x6e>
	}
	else{
		*array_name = rcvd_value;
     9c2:	f8 01       	movw	r30, r16
     9c4:	80 83       	st	Z, r24
		if(number_of_bytes > 1){
     9c6:	f1 e0       	ldi	r31, 0x01	; 1
     9c8:	ff 15       	cp	r31, r15
     9ca:	68 f0       	brcs	.+26     	; 0x9e6 <Receive_Response+0x5a>
	SPI_Transfer(SD_SPI_port, send_value);
	return return_value;
}

uint8_t Receive_Response (uint8_t number_of_bytes, uint8_t * array_name) {
	uint8_t return_value = no_errors;
     9cc:	c0 e0       	ldi	r28, 0x00	; 0
     9ce:	15 c0       	rjmp	.+42     	; 0x9fa <Receive_Response+0x6e>
	}
	else{
		*array_name = rcvd_value;
		if(number_of_bytes > 1){
			for(uint16_t index = 1; index < number_of_bytes; index++){
				rcvd_value = SPI_Transfer(SD_SPI_port, 0xFF);
     9d0:	6f ef       	ldi	r22, 0xFF	; 255
     9d2:	8c e4       	ldi	r24, 0x4C	; 76
     9d4:	90 e0       	ldi	r25, 0x00	; 0
     9d6:	0e 94 89 06 	call	0xd12	; 0xd12 <SPI_Transfer>
				*(array_name + index) = rcvd_value;
     9da:	f8 01       	movw	r30, r16
     9dc:	ec 0f       	add	r30, r28
     9de:	fd 1f       	adc	r31, r29
     9e0:	80 83       	st	Z, r24
		return_value = SD_comm_error;
	}
	else{
		*array_name = rcvd_value;
		if(number_of_bytes > 1){
			for(uint16_t index = 1; index < number_of_bytes; index++){
     9e2:	21 96       	adiw	r28, 0x01	; 1
     9e4:	02 c0       	rjmp	.+4      	; 0x9ea <Receive_Response+0x5e>
     9e6:	c1 e0       	ldi	r28, 0x01	; 1
     9e8:	d0 e0       	ldi	r29, 0x00	; 0
     9ea:	8f 2d       	mov	r24, r15
     9ec:	90 e0       	ldi	r25, 0x00	; 0
     9ee:	c8 17       	cp	r28, r24
     9f0:	d9 07       	cpc	r29, r25
     9f2:	70 f3       	brcs	.-36     	; 0x9d0 <Receive_Response+0x44>
	SPI_Transfer(SD_SPI_port, send_value);
	return return_value;
}

uint8_t Receive_Response (uint8_t number_of_bytes, uint8_t * array_name) {
	uint8_t return_value = no_errors;
     9f4:	c0 e0       	ldi	r28, 0x00	; 0
     9f6:	01 c0       	rjmp	.+2      	; 0x9fa <Receive_Response+0x6e>
		rcvd_value = SPI_Transfer(SD_SPI_port, 0xFF);
		timeout++;
	}while((rcvd_value == 0xFF) && (timeout != 0));
	
	if(timeout == 0){
		return_value = SPI_timeout_error;
     9f8:	ca ef       	ldi	r28, 0xFA	; 250
				rcvd_value = SPI_Transfer(SD_SPI_port, 0xFF);
				*(array_name + index) = rcvd_value;
			}
		}
	}
	rcvd_value = SPI_Transfer(SD_SPI_port, 0xFF);
     9fa:	6f ef       	ldi	r22, 0xFF	; 255
     9fc:	8c e4       	ldi	r24, 0x4C	; 76
     9fe:	90 e0       	ldi	r25, 0x00	; 0
     a00:	0e 94 89 06 	call	0xd12	; 0xd12 <SPI_Transfer>
	return return_value;
     a04:	8c 2f       	mov	r24, r28
     a06:	df 91       	pop	r29
     a08:	cf 91       	pop	r28
     a0a:	1f 91       	pop	r17
     a0c:	0f 91       	pop	r16
     a0e:	ff 90       	pop	r15
     a10:	08 95       	ret

00000a12 <SD_Card_Init>:

void SD_CS_inactive (volatile GPIO_t *port, uint8_t pin){
	GPIO_Output_Set(port, pin);
}

uint8_t SD_Card_Init (void){
     a12:	ff 92       	push	r15
     a14:	0f 93       	push	r16
     a16:	1f 93       	push	r17
     a18:	cf 93       	push	r28
     a1a:	df 93       	push	r29
     a1c:	00 d0       	rcall	.+0      	; 0xa1e <SD_Card_Init+0xc>
     a1e:	00 d0       	rcall	.+0      	; 0xa20 <SD_Card_Init+0xe>
     a20:	1f 92       	push	r1
     a22:	cd b7       	in	r28, 0x3d	; 61
     a24:	de b7       	in	r29, 0x3e	; 62
	uint8_t error_flag = no_errors;
	uint8_t rec_array[5];
	uint8_t ACMD41_arg;
	uint8_t timeout = 0;
	
	GPIO_Output_Init(SD_CS_port, SD_CS_pin);
     a26:	60 e1       	ldi	r22, 0x10	; 16
     a28:	70 e0       	ldi	r23, 0x00	; 0
     a2a:	83 e2       	ldi	r24, 0x23	; 35
     a2c:	90 e0       	ldi	r25, 0x00	; 0
     a2e:	0e 94 6c 02 	call	0x4d8	; 0x4d8 <GPIO_Output_Init>
	
	if(error_status == no_errors){ //
		SD_CS_inactive(SD_CS_port, SD_CS_pin);
     a32:	60 e1       	ldi	r22, 0x10	; 16
     a34:	83 e2       	ldi	r24, 0x23	; 35
     a36:	90 e0       	ldi	r25, 0x00	; 0
     a38:	0e 94 38 04 	call	0x870	; 0x870 <SD_CS_inactive>
	
		SPI_Master_Init(SD_SPI_port, 400000UL);
     a3c:	40 e8       	ldi	r20, 0x80	; 128
     a3e:	5a e1       	ldi	r21, 0x1A	; 26
     a40:	66 e0       	ldi	r22, 0x06	; 6
     a42:	70 e0       	ldi	r23, 0x00	; 0
     a44:	8c e4       	ldi	r24, 0x4C	; 76
     a46:	90 e0       	ldi	r25, 0x00	; 0
     a48:	0e 94 02 06 	call	0xc04	; 0xc04 <SPI_Master_Init>
		// Send at least 74 SCK pulses
		for(uint8_t i = 0; i < 10; i++){
     a4c:	10 e0       	ldi	r17, 0x00	; 0
     a4e:	06 c0       	rjmp	.+12     	; 0xa5c <SD_Card_Init+0x4a>
			SPI_Transfer(SPI0_base, 0xFF);
     a50:	6f ef       	ldi	r22, 0xFF	; 255
     a52:	8c e4       	ldi	r24, 0x4C	; 76
     a54:	90 e0       	ldi	r25, 0x00	; 0
     a56:	0e 94 89 06 	call	0xd12	; 0xd12 <SPI_Transfer>
	if(error_status == no_errors){ //
		SD_CS_inactive(SD_CS_port, SD_CS_pin);
	
		SPI_Master_Init(SD_SPI_port, 400000UL);
		// Send at least 74 SCK pulses
		for(uint8_t i = 0; i < 10; i++){
     a5a:	1f 5f       	subi	r17, 0xFF	; 255
     a5c:	1a 30       	cpi	r17, 0x0A	; 10
     a5e:	c0 f3       	brcs	.-16     	; 0xa50 <SD_Card_Init+0x3e>
		}
	}
	
	// CMD0
	if(error_status == no_errors){
		SD_CS_active(SD_CS_port, SD_CS_pin);
     a60:	60 e1       	ldi	r22, 0x10	; 16
     a62:	83 e2       	ldi	r24, 0x23	; 35
     a64:	90 e0       	ldi	r25, 0x00	; 0
     a66:	0e 94 34 04 	call	0x868	; 0x868 <SD_CS_active>
		error_flag = Send_Command(0, 0x00000000);
     a6a:	40 e0       	ldi	r20, 0x00	; 0
     a6c:	50 e0       	ldi	r21, 0x00	; 0
     a6e:	ba 01       	movw	r22, r20
     a70:	80 e0       	ldi	r24, 0x00	; 0
     a72:	0e 94 82 04 	call	0x904	; 0x904 <Send_Command>
     a76:	18 2f       	mov	r17, r24
		error_status = error_flag;	
		if(error_flag != 0x01){
     a78:	81 30       	cpi	r24, 0x01	; 1
     a7a:	39 f0       	breq	.+14     	; 0xa8a <SD_Card_Init+0x78>
			error_flag = Receive_Response(1, rec_array); //5 after c8 C58
     a7c:	be 01       	movw	r22, r28
     a7e:	6f 5f       	subi	r22, 0xFF	; 255
     a80:	7f 4f       	sbci	r23, 0xFF	; 255
     a82:	81 e0       	ldi	r24, 0x01	; 1
     a84:	0e 94 c6 04 	call	0x98c	; 0x98c <Receive_Response>
     a88:	18 2f       	mov	r17, r24
		}
		SD_CS_inactive(SD_CS_port, SD_CS_pin);
     a8a:	60 e1       	ldi	r22, 0x10	; 16
     a8c:	83 e2       	ldi	r24, 0x23	; 35
     a8e:	90 e0       	ldi	r25, 0x00	; 0
     a90:	0e 94 38 04 	call	0x870	; 0x870 <SD_CS_inactive>
		error_status = error_flag;
	}
	
	// CMD8
	if(error_status == no_errors){
     a94:	11 11       	cpse	r17, r1
     a96:	2e c0       	rjmp	.+92     	; 0xaf4 <SD_Card_Init+0xe2>
		SD_CS_active(SD_CS_port, SD_CS_pin);
     a98:	60 e1       	ldi	r22, 0x10	; 16
     a9a:	83 e2       	ldi	r24, 0x23	; 35
     a9c:	90 e0       	ldi	r25, 0x00	; 0
     a9e:	0e 94 34 04 	call	0x868	; 0x868 <SD_CS_active>
		error_flag = Send_Command(8, 0x000001AA);
     aa2:	4a ea       	ldi	r20, 0xAA	; 170
     aa4:	51 e0       	ldi	r21, 0x01	; 1
     aa6:	60 e0       	ldi	r22, 0x00	; 0
     aa8:	70 e0       	ldi	r23, 0x00	; 0
     aaa:	88 e0       	ldi	r24, 0x08	; 8
     aac:	0e 94 82 04 	call	0x904	; 0x904 <Send_Command>
     ab0:	08 2f       	mov	r16, r24
		if(error_flag == no_errors){ //Check if R1 is not 0x01 (error)
     ab2:	81 11       	cpse	r24, r1
     ab4:	07 c0       	rjmp	.+14     	; 0xac4 <SD_Card_Init+0xb2>
			error_flag = Receive_Response(5, rec_array);
     ab6:	be 01       	movw	r22, r28
     ab8:	6f 5f       	subi	r22, 0xFF	; 255
     aba:	7f 4f       	sbci	r23, 0xFF	; 255
     abc:	85 e0       	ldi	r24, 0x05	; 5
     abe:	0e 94 c6 04 	call	0x98c	; 0x98c <Receive_Response>
     ac2:	08 2f       	mov	r16, r24
		}
		SD_CS_inactive(SD_CS_port, SD_CS_pin);
     ac4:	60 e1       	ldi	r22, 0x10	; 16
     ac6:	83 e2       	ldi	r24, 0x23	; 35
     ac8:	90 e0       	ldi	r25, 0x00	; 0
     aca:	0e 94 38 04 	call	0x870	; 0x870 <SD_CS_inactive>
		if((error_flag == no_errors) && (rec_array[0] == 0x01)){ //Is 0x00 when we want it to be 0x01
     ace:	01 11       	cpse	r16, r1
     ad0:	0b c0       	rjmp	.+22     	; 0xae8 <SD_Card_Init+0xd6>
     ad2:	89 81       	ldd	r24, Y+1	; 0x01
     ad4:	81 30       	cpi	r24, 0x01	; 1
     ad6:	41 f4       	brne	.+16     	; 0xae8 <SD_Card_Init+0xd6>
			if((rec_array[3] == 0x01) && (rec_array[4] == 0xAA)){ //Not entering if when should be!
     ad8:	8c 81       	ldd	r24, Y+4	; 0x04
     ada:	81 30       	cpi	r24, 0x01	; 1
     adc:	51 f4       	brne	.+20     	; 0xaf2 <SD_Card_Init+0xe0>
     ade:	8d 81       	ldd	r24, Y+5	; 0x05
     ae0:	8a 3a       	cpi	r24, 0xAA	; 170
     ae2:	41 f0       	breq	.+16     	; 0xaf4 <SD_Card_Init+0xe2>
				ACMD41_arg = 0x40000000; // High-Capacity Support
				SD_Card_Type_g = High_Capacity;
			}
			else{
				error_status = incompatible_voltage;
     ae4:	1d ef       	ldi	r17, 0xFD	; 253
     ae6:	06 c0       	rjmp	.+12     	; 0xaf4 <SD_Card_Init+0xe2>
			}
		}
		else if(rec_array[0] == 0x05){
     ae8:	89 81       	ldd	r24, Y+1	; 0x01
     aea:	85 30       	cpi	r24, 0x05	; 5
     aec:	19 f0       	breq	.+6      	; 0xaf4 <SD_Card_Init+0xe2>
			error_status = no_errors;
			ACMD41_arg = 0x00000000;
			SD_Card_Type_g = Standard_Capacity;
		}
		else{
			error_status = error_flag;
     aee:	10 2f       	mov	r17, r16
     af0:	01 c0       	rjmp	.+2      	; 0xaf4 <SD_Card_Init+0xe2>
			if((rec_array[3] == 0x01) && (rec_array[4] == 0xAA)){ //Not entering if when should be!
				ACMD41_arg = 0x40000000; // High-Capacity Support
				SD_Card_Type_g = High_Capacity;
			}
			else{
				error_status = incompatible_voltage;
     af2:	1d ef       	ldi	r17, 0xFD	; 253
			error_status = error_flag;
		}
	}
	
	// CMD58
	if(error_status == no_errors){
     af4:	11 11       	cpse	r17, r1
     af6:	18 c0       	rjmp	.+48     	; 0xb28 <SD_Card_Init+0x116>
		SD_CS_active(SD_CS_port, SD_CS_pin);
     af8:	60 e1       	ldi	r22, 0x10	; 16
     afa:	83 e2       	ldi	r24, 0x23	; 35
     afc:	90 e0       	ldi	r25, 0x00	; 0
     afe:	0e 94 34 04 	call	0x868	; 0x868 <SD_CS_active>
		error_flag = Send_Command(58, 0x00000000);
     b02:	40 e0       	ldi	r20, 0x00	; 0
     b04:	50 e0       	ldi	r21, 0x00	; 0
     b06:	ba 01       	movw	r22, r20
     b08:	8a e3       	ldi	r24, 0x3A	; 58
     b0a:	0e 94 82 04 	call	0x904	; 0x904 <Send_Command>
		if(error_flag == no_errors){ //Check if R1 is not 0x01 (error)
     b0e:	81 11       	cpse	r24, r1
     b10:	06 c0       	rjmp	.+12     	; 0xb1e <SD_Card_Init+0x10c>
			error_flag = Receive_Response(5, rec_array);
     b12:	be 01       	movw	r22, r28
     b14:	6f 5f       	subi	r22, 0xFF	; 255
     b16:	7f 4f       	sbci	r23, 0xFF	; 255
     b18:	85 e0       	ldi	r24, 0x05	; 5
     b1a:	0e 94 c6 04 	call	0x98c	; 0x98c <Receive_Response>
		}
		SD_CS_inactive(SD_CS_port, SD_CS_pin);
     b1e:	60 e1       	ldi	r22, 0x10	; 16
     b20:	83 e2       	ldi	r24, 0x23	; 35
     b22:	90 e0       	ldi	r25, 0x00	; 0
     b24:	0e 94 38 04 	call	0x870	; 0x870 <SD_CS_inactive>
			}
		}
	}
	
	// ACMD41 -------------Issue should be 69 40 not 69 00 on second round, first row
	if(error_status == no_errors){
     b28:	11 11       	cpse	r17, r1
     b2a:	3c c0       	rjmp	.+120    	; 0xba4 <SD_Card_Init+0x192>
		SD_CS_active(SD_CS_port, SD_CS_pin);
     b2c:	60 e1       	ldi	r22, 0x10	; 16
     b2e:	83 e2       	ldi	r24, 0x23	; 35
     b30:	90 e0       	ldi	r25, 0x00	; 0
     b32:	0e 94 34 04 	call	0x868	; 0x868 <SD_CS_active>
     b36:	f1 2e       	mov	r15, r17
uint8_t SD_Card_Init (void){
	uint8_t error_status = no_errors;
	uint8_t error_flag = no_errors;
	uint8_t rec_array[5];
	uint8_t ACMD41_arg;
	uint8_t timeout = 0;
     b38:	00 e0       	ldi	r16, 0x00	; 0
	// ACMD41 -------------Issue should be 69 40 not 69 00 on second round, first row
	if(error_status == no_errors){
		SD_CS_active(SD_CS_port, SD_CS_pin);
		
		do{
			error_flag = Send_Command(55, 0x00000000);
     b3a:	40 e0       	ldi	r20, 0x00	; 0
     b3c:	50 e0       	ldi	r21, 0x00	; 0
     b3e:	ba 01       	movw	r22, r20
     b40:	87 e3       	ldi	r24, 0x37	; 55
     b42:	0e 94 82 04 	call	0x904	; 0x904 <Send_Command>
			if(error_flag == no_errors){ //Check if R1 is not 0x01 (error)
     b46:	81 11       	cpse	r24, r1
     b48:	06 c0       	rjmp	.+12     	; 0xb56 <SD_Card_Init+0x144>
				error_flag = Receive_Response(1, rec_array);
     b4a:	be 01       	movw	r22, r28
     b4c:	6f 5f       	subi	r22, 0xFF	; 255
     b4e:	7f 4f       	sbci	r23, 0xFF	; 255
     b50:	81 e0       	ldi	r24, 0x01	; 1
     b52:	0e 94 c6 04 	call	0x98c	; 0x98c <Receive_Response>
			}
		
			if((error_flag == no_errors) && (rec_array[0] == 0x01)){
     b56:	81 11       	cpse	r24, r1
     b58:	15 c0       	rjmp	.+42     	; 0xb84 <SD_Card_Init+0x172>
     b5a:	89 81       	ldd	r24, Y+1	; 0x01
     b5c:	81 30       	cpi	r24, 0x01	; 1
     b5e:	91 f4       	brne	.+36     	; 0xb84 <SD_Card_Init+0x172>
				error_status = no_errors;
				error_flag = Send_Command(41, 0x40000000); // 2nd arg was ACMD41_arg
     b60:	40 e0       	ldi	r20, 0x00	; 0
     b62:	50 e0       	ldi	r21, 0x00	; 0
     b64:	60 e0       	ldi	r22, 0x00	; 0
     b66:	70 e4       	ldi	r23, 0x40	; 64
     b68:	89 e2       	ldi	r24, 0x29	; 41
     b6a:	0e 94 82 04 	call	0x904	; 0x904 <Send_Command>
				error_flag = Receive_Response(1, rec_array);
     b6e:	be 01       	movw	r22, r28
     b70:	6f 5f       	subi	r22, 0xFF	; 255
     b72:	7f 4f       	sbci	r23, 0xFF	; 255
     b74:	81 e0       	ldi	r24, 0x01	; 1
     b76:	0e 94 c6 04 	call	0x98c	; 0x98c <Receive_Response>
				if(rec_array[0] != 0x00 && rec_array[0] != 0x01){
     b7a:	89 81       	ldd	r24, Y+1	; 0x01
     b7c:	82 30       	cpi	r24, 0x02	; 2
     b7e:	40 f4       	brcc	.+16     	; 0xb90 <SD_Card_Init+0x17e>
					error_status = 0xFE;
					break;
				}
				
				timeout++;
     b80:	0f 5f       	subi	r16, 0xFF	; 255
			if(error_flag == no_errors){ //Check if R1 is not 0x01 (error)
				error_flag = Receive_Response(1, rec_array);
			}
		
			if((error_flag == no_errors) && (rec_array[0] == 0x01)){
				error_status = no_errors;
     b82:	f1 2e       	mov	r15, r17
					break;
				}
				
				timeout++;
			}
		}while((rec_array[0] != 0x00) && (timeout != 0));	
     b84:	89 81       	ldd	r24, Y+1	; 0x01
     b86:	88 23       	and	r24, r24
     b88:	39 f0       	breq	.+14     	; 0xb98 <SD_Card_Init+0x186>
     b8a:	01 11       	cpse	r16, r1
     b8c:	d6 cf       	rjmp	.-84     	; 0xb3a <SD_Card_Init+0x128>
     b8e:	04 c0       	rjmp	.+8      	; 0xb98 <SD_Card_Init+0x186>
			if((error_flag == no_errors) && (rec_array[0] == 0x01)){
				error_status = no_errors;
				error_flag = Send_Command(41, 0x40000000); // 2nd arg was ACMD41_arg
				error_flag = Receive_Response(1, rec_array);
				if(rec_array[0] != 0x00 && rec_array[0] != 0x01){
					error_status = 0xFE;
     b90:	0f 2e       	mov	r0, r31
     b92:	fe ef       	ldi	r31, 0xFE	; 254
     b94:	ff 2e       	mov	r15, r31
     b96:	f0 2d       	mov	r31, r0
				}
				
				timeout++;
			}
		}while((rec_array[0] != 0x00) && (timeout != 0));	
		SD_CS_inactive(SD_CS_port, SD_CS_pin);
     b98:	60 e1       	ldi	r22, 0x10	; 16
     b9a:	83 e2       	ldi	r24, 0x23	; 35
     b9c:	90 e0       	ldi	r25, 0x00	; 0
     b9e:	0e 94 38 04 	call	0x870	; 0x870 <SD_CS_inactive>
     ba2:	1f 2d       	mov	r17, r15
	}
	
	// CMD58 (didn't quite match up, 00 and C0 instead of 01 and 00 at end of second row)
	if(error_status == no_errors){//&& ACMD41_arg == 0x40000000){
     ba4:	11 11       	cpse	r17, r1
     ba6:	22 c0       	rjmp	.+68     	; 0xbec <SD_Card_Init+0x1da>
		SD_CS_active(SD_CS_port, SD_CS_pin);
     ba8:	60 e1       	ldi	r22, 0x10	; 16
     baa:	83 e2       	ldi	r24, 0x23	; 35
     bac:	90 e0       	ldi	r25, 0x00	; 0
     bae:	0e 94 34 04 	call	0x868	; 0x868 <SD_CS_active>
		error_flag = Send_Command(58, 0x00000000);
     bb2:	40 e0       	ldi	r20, 0x00	; 0
     bb4:	50 e0       	ldi	r21, 0x00	; 0
     bb6:	ba 01       	movw	r22, r20
     bb8:	8a e3       	ldi	r24, 0x3A	; 58
     bba:	0e 94 82 04 	call	0x904	; 0x904 <Send_Command>
     bbe:	08 2f       	mov	r16, r24
		if(error_flag == no_errors){ //Check if R1 is not 0x01 (error)
     bc0:	81 11       	cpse	r24, r1
     bc2:	07 c0       	rjmp	.+14     	; 0xbd2 <SD_Card_Init+0x1c0>
			error_flag = Receive_Response(5, rec_array);
     bc4:	be 01       	movw	r22, r28
     bc6:	6f 5f       	subi	r22, 0xFF	; 255
     bc8:	7f 4f       	sbci	r23, 0xFF	; 255
     bca:	85 e0       	ldi	r24, 0x05	; 5
     bcc:	0e 94 c6 04 	call	0x98c	; 0x98c <Receive_Response>
     bd0:	08 2f       	mov	r16, r24
		}
		SD_CS_inactive(SD_CS_port, SD_CS_pin);
     bd2:	60 e1       	ldi	r22, 0x10	; 16
     bd4:	83 e2       	ldi	r24, 0x23	; 35
     bd6:	90 e0       	ldi	r25, 0x00	; 0
     bd8:	0e 94 38 04 	call	0x870	; 0x870 <SD_CS_inactive>
		if((error_flag == no_errors) && (rec_array[0] == 0x01)){
     bdc:	01 11       	cpse	r16, r1
     bde:	06 c0       	rjmp	.+12     	; 0xbec <SD_Card_Init+0x1da>
     be0:	89 81       	ldd	r24, Y+1	; 0x01
     be2:	81 30       	cpi	r24, 0x01	; 1
     be4:	19 f4       	brne	.+6      	; 0xbec <SD_Card_Init+0x1da>
			if((rec_array[4] & 0b11000000 != 0b11000000)){
				SD_Card_Type_g = High_Capacity;
			}
			else if(rec_array[4] & 0b11000000 != 0b10000000){
     be6:	8d 81       	ldd	r24, Y+5	; 0x05
     be8:	80 ff       	sbrs	r24, 0
				SD_Card_Type_g = Standard_Capacity;
			}
			else{
				error_status = 0xFF;
     bea:	1f ef       	ldi	r17, 0xFF	; 255
			}
		}
	}
	return error_status;
}
     bec:	81 2f       	mov	r24, r17
     bee:	0f 90       	pop	r0
     bf0:	0f 90       	pop	r0
     bf2:	0f 90       	pop	r0
     bf4:	0f 90       	pop	r0
     bf6:	0f 90       	pop	r0
     bf8:	df 91       	pop	r29
     bfa:	cf 91       	pop	r28
     bfc:	1f 91       	pop	r17
     bfe:	0f 91       	pop	r16
     c00:	ff 90       	pop	r15
     c02:	08 95       	ret

00000c04 <SPI_Master_Init>:
#include "SPI.h"
#include "board_struct.h"
#include "GPIO_Outputs.h"

uint8_t SPI_Master_Init(uint8_t volatile *SPI_addr, uint32_t clock_rate)
{
     c04:	1f 93       	push	r17
     c06:	cf 93       	push	r28
     c08:	df 93       	push	r29
     c0a:	ec 01       	movw	r28, r24
     c0c:	9a 01       	movw	r18, r20
     c0e:	ab 01       	movw	r20, r22
	uint8_t return_value = 0x00;
	uint32_t divider = (F_CPU / F_DIV) / (clock_rate);
     c10:	60 e0       	ldi	r22, 0x00	; 0
     c12:	74 e2       	ldi	r23, 0x24	; 36
     c14:	84 ef       	ldi	r24, 0xF4	; 244
     c16:	90 e0       	ldi	r25, 0x00	; 0
     c18:	0e 94 89 07 	call	0xf12	; 0xf12 <__udivmodsi4>
	
	if(divider < 2){
     c1c:	22 30       	cpi	r18, 0x02	; 2
     c1e:	31 05       	cpc	r19, r1
     c20:	41 05       	cpc	r20, r1
     c22:	51 05       	cpc	r21, r1
     c24:	30 f4       	brcc	.+12     	; 0xc32 <SPI_Master_Init+0x2e>
		*(SPI_addr + SPCR) = ((1<<SPE) | (1<<MSTR) | (CPOL_bit << CPOL) | (CPHA_bit<<CPHA) | 0<<0);
     c26:	80 e5       	ldi	r24, 0x50	; 80
     c28:	88 83       	st	Y, r24
		*(SPI_addr+SPSR) = 1;
     c2a:	81 e0       	ldi	r24, 0x01	; 1
     c2c:	89 83       	std	Y+1, r24	; 0x01
#include "board_struct.h"
#include "GPIO_Outputs.h"

uint8_t SPI_Master_Init(uint8_t volatile *SPI_addr, uint32_t clock_rate)
{
	uint8_t return_value = 0x00;
     c2e:	10 e0       	ldi	r17, 0x00	; 0
     c30:	3f c0       	rjmp	.+126    	; 0xcb0 <SPI_Master_Init+0xac>
	
	if(divider < 2){
		*(SPI_addr + SPCR) = ((1<<SPE) | (1<<MSTR) | (CPOL_bit << CPOL) | (CPHA_bit<<CPHA) | 0<<0);
		*(SPI_addr+SPSR) = 1;
	}
	else if(divider < 4){
     c32:	24 30       	cpi	r18, 0x04	; 4
     c34:	31 05       	cpc	r19, r1
     c36:	41 05       	cpc	r20, r1
     c38:	51 05       	cpc	r21, r1
     c3a:	28 f4       	brcc	.+10     	; 0xc46 <SPI_Master_Init+0x42>
		*(SPI_addr + SPCR) = ((1<<SPE) | (1<<MSTR) | (CPOL_bit << CPOL) | (CPHA_bit<<CPHA) | 0<<0);
     c3c:	80 e5       	ldi	r24, 0x50	; 80
     c3e:	88 83       	st	Y, r24
		*(SPI_addr+SPSR) = 0;
     c40:	19 82       	std	Y+1, r1	; 0x01
#include "board_struct.h"
#include "GPIO_Outputs.h"

uint8_t SPI_Master_Init(uint8_t volatile *SPI_addr, uint32_t clock_rate)
{
	uint8_t return_value = 0x00;
     c42:	10 e0       	ldi	r17, 0x00	; 0
     c44:	35 c0       	rjmp	.+106    	; 0xcb0 <SPI_Master_Init+0xac>
	}
	else if(divider < 4){
		*(SPI_addr + SPCR) = ((1<<SPE) | (1<<MSTR) | (CPOL_bit << CPOL) | (CPHA_bit<<CPHA) | 0<<0);
		*(SPI_addr+SPSR) = 0;
	}
	else if(divider < 8){
     c46:	28 30       	cpi	r18, 0x08	; 8
     c48:	31 05       	cpc	r19, r1
     c4a:	41 05       	cpc	r20, r1
     c4c:	51 05       	cpc	r21, r1
     c4e:	30 f4       	brcc	.+12     	; 0xc5c <SPI_Master_Init+0x58>
		*(SPI_addr + SPCR) = ((1<<SPE) | (1<<MSTR) | (CPOL_bit << CPOL) | (CPHA_bit<<CPHA) | 1<<0);
     c50:	81 e5       	ldi	r24, 0x51	; 81
     c52:	88 83       	st	Y, r24
		*(SPI_addr+SPSR) = 1;
     c54:	81 e0       	ldi	r24, 0x01	; 1
     c56:	89 83       	std	Y+1, r24	; 0x01
#include "board_struct.h"
#include "GPIO_Outputs.h"

uint8_t SPI_Master_Init(uint8_t volatile *SPI_addr, uint32_t clock_rate)
{
	uint8_t return_value = 0x00;
     c58:	10 e0       	ldi	r17, 0x00	; 0
     c5a:	2a c0       	rjmp	.+84     	; 0xcb0 <SPI_Master_Init+0xac>
	}
	else if(divider < 8){
		*(SPI_addr + SPCR) = ((1<<SPE) | (1<<MSTR) | (CPOL_bit << CPOL) | (CPHA_bit<<CPHA) | 1<<0);
		*(SPI_addr+SPSR) = 1;
	}
	else if(divider < 16){
     c5c:	20 31       	cpi	r18, 0x10	; 16
     c5e:	31 05       	cpc	r19, r1
     c60:	41 05       	cpc	r20, r1
     c62:	51 05       	cpc	r21, r1
     c64:	28 f4       	brcc	.+10     	; 0xc70 <SPI_Master_Init+0x6c>
		*(SPI_addr + SPCR) = ((1<<SPE) | (1<<MSTR) | (CPOL_bit << CPOL) | (CPHA_bit<<CPHA) | 1<<0);
     c66:	81 e5       	ldi	r24, 0x51	; 81
     c68:	88 83       	st	Y, r24
		*(SPI_addr+SPSR) = 0;
     c6a:	19 82       	std	Y+1, r1	; 0x01
#include "board_struct.h"
#include "GPIO_Outputs.h"

uint8_t SPI_Master_Init(uint8_t volatile *SPI_addr, uint32_t clock_rate)
{
	uint8_t return_value = 0x00;
     c6c:	10 e0       	ldi	r17, 0x00	; 0
     c6e:	20 c0       	rjmp	.+64     	; 0xcb0 <SPI_Master_Init+0xac>
	}
	else if(divider < 16){
		*(SPI_addr + SPCR) = ((1<<SPE) | (1<<MSTR) | (CPOL_bit << CPOL) | (CPHA_bit<<CPHA) | 1<<0);
		*(SPI_addr+SPSR) = 0;
	}
	else if(divider < 32){
     c70:	20 32       	cpi	r18, 0x20	; 32
     c72:	31 05       	cpc	r19, r1
     c74:	41 05       	cpc	r20, r1
     c76:	51 05       	cpc	r21, r1
     c78:	30 f4       	brcc	.+12     	; 0xc86 <SPI_Master_Init+0x82>
		*(SPI_addr + SPCR) = ((1<<SPE) | (1<<MSTR) | (CPOL_bit << CPOL) | (CPHA_bit<<CPHA) | 2<<0);
     c7a:	82 e5       	ldi	r24, 0x52	; 82
     c7c:	88 83       	st	Y, r24
		*(SPI_addr+SPSR) = 1;
     c7e:	81 e0       	ldi	r24, 0x01	; 1
     c80:	89 83       	std	Y+1, r24	; 0x01
#include "board_struct.h"
#include "GPIO_Outputs.h"

uint8_t SPI_Master_Init(uint8_t volatile *SPI_addr, uint32_t clock_rate)
{
	uint8_t return_value = 0x00;
     c82:	10 e0       	ldi	r17, 0x00	; 0
     c84:	15 c0       	rjmp	.+42     	; 0xcb0 <SPI_Master_Init+0xac>
	}
	else if(divider < 32){
		*(SPI_addr + SPCR) = ((1<<SPE) | (1<<MSTR) | (CPOL_bit << CPOL) | (CPHA_bit<<CPHA) | 2<<0);
		*(SPI_addr+SPSR) = 1;
	}
	else if(divider < 64){
     c86:	20 34       	cpi	r18, 0x40	; 64
     c88:	31 05       	cpc	r19, r1
     c8a:	41 05       	cpc	r20, r1
     c8c:	51 05       	cpc	r21, r1
     c8e:	28 f4       	brcc	.+10     	; 0xc9a <SPI_Master_Init+0x96>
		*(SPI_addr + SPCR) = ((1<<SPE) | (1<<MSTR) | (CPOL_bit << CPOL) | (CPHA_bit<<CPHA) | 2<<0);//Roger Changed
     c90:	82 e5       	ldi	r24, 0x52	; 82
     c92:	88 83       	st	Y, r24
		*(SPI_addr+SPSR) = 0;
     c94:	19 82       	std	Y+1, r1	; 0x01
#include "board_struct.h"
#include "GPIO_Outputs.h"

uint8_t SPI_Master_Init(uint8_t volatile *SPI_addr, uint32_t clock_rate)
{
	uint8_t return_value = 0x00;
     c96:	10 e0       	ldi	r17, 0x00	; 0
     c98:	0b c0       	rjmp	.+22     	; 0xcb0 <SPI_Master_Init+0xac>
	}
	else if(divider < 64){
		*(SPI_addr + SPCR) = ((1<<SPE) | (1<<MSTR) | (CPOL_bit << CPOL) | (CPHA_bit<<CPHA) | 2<<0);//Roger Changed
		*(SPI_addr+SPSR) = 0;
	}
	else if(divider < 128){
     c9a:	20 38       	cpi	r18, 0x80	; 128
     c9c:	31 05       	cpc	r19, r1
     c9e:	41 05       	cpc	r20, r1
     ca0:	51 05       	cpc	r21, r1
     ca2:	28 f4       	brcc	.+10     	; 0xcae <SPI_Master_Init+0xaa>
		*(SPI_addr + SPCR) = ((1<<SPE) | (1<<MSTR) | (CPOL_bit << CPOL) | (CPHA_bit<<CPHA) | 3<<0);
     ca4:	83 e5       	ldi	r24, 0x53	; 83
     ca6:	88 83       	st	Y, r24
		*(SPI_addr+SPSR) = 0;
     ca8:	19 82       	std	Y+1, r1	; 0x01
#include "board_struct.h"
#include "GPIO_Outputs.h"

uint8_t SPI_Master_Init(uint8_t volatile *SPI_addr, uint32_t clock_rate)
{
	uint8_t return_value = 0x00;
     caa:	10 e0       	ldi	r17, 0x00	; 0
     cac:	01 c0       	rjmp	.+2      	; 0xcb0 <SPI_Master_Init+0xac>
	else if(divider < 128){
		*(SPI_addr + SPCR) = ((1<<SPE) | (1<<MSTR) | (CPOL_bit << CPOL) | (CPHA_bit<<CPHA) | 3<<0);
		*(SPI_addr+SPSR) = 0;
	}
	else{
		return_value = clock_rate_error;
     cae:	1f ef       	ldi	r17, 0xFF	; 255
	}

	//Initializing MOSI and SCK
	if(SPI_addr == SPI0_base){
     cb0:	cc 34       	cpi	r28, 0x4C	; 76
     cb2:	d1 05       	cpc	r29, r1
     cb4:	a9 f4       	brne	.+42     	; 0xce0 <SPI_Master_Init+0xdc>
		//Initializing MOSI
		GPIO_Output_Set(PB, (1<<5));
     cb6:	60 e2       	ldi	r22, 0x20	; 32
     cb8:	83 e2       	ldi	r24, 0x23	; 35
     cba:	90 e0       	ldi	r25, 0x00	; 0
     cbc:	0e 94 71 02 	call	0x4e2	; 0x4e2 <GPIO_Output_Set>
		GPIO_Output_Init(PB, (1<<5));
     cc0:	60 e2       	ldi	r22, 0x20	; 32
     cc2:	83 e2       	ldi	r24, 0x23	; 35
     cc4:	90 e0       	ldi	r25, 0x00	; 0
     cc6:	0e 94 6c 02 	call	0x4d8	; 0x4d8 <GPIO_Output_Init>
		
		if(CPOL_bit == 0){
			//Setting SCK to idle state
			GPIO_Output_Clear(PB, (1<<7));
     cca:	60 e8       	ldi	r22, 0x80	; 128
     ccc:	83 e2       	ldi	r24, 0x23	; 35
     cce:	90 e0       	ldi	r25, 0x00	; 0
     cd0:	0e 94 76 02 	call	0x4ec	; 0x4ec <GPIO_Output_Clear>
			GPIO_Output_Init(PB, (1<<7));
     cd4:	60 e8       	ldi	r22, 0x80	; 128
     cd6:	83 e2       	ldi	r24, 0x23	; 35
     cd8:	90 e0       	ldi	r25, 0x00	; 0
     cda:	0e 94 6c 02 	call	0x4d8	; 0x4d8 <GPIO_Output_Init>
     cde:	14 c0       	rjmp	.+40     	; 0xd08 <SPI_Master_Init+0x104>
			GPIO_Output_Init(PB, (0<<7));
		}
	}
	else{
		//Initializing MOSI
		GPIO_Output_Set(PE, (1<<3));
     ce0:	68 e0       	ldi	r22, 0x08	; 8
     ce2:	8c e2       	ldi	r24, 0x2C	; 44
     ce4:	90 e0       	ldi	r25, 0x00	; 0
     ce6:	0e 94 71 02 	call	0x4e2	; 0x4e2 <GPIO_Output_Set>
		GPIO_Output_Init(PE, (1<<3));
     cea:	68 e0       	ldi	r22, 0x08	; 8
     cec:	8c e2       	ldi	r24, 0x2C	; 44
     cee:	90 e0       	ldi	r25, 0x00	; 0
     cf0:	0e 94 6c 02 	call	0x4d8	; 0x4d8 <GPIO_Output_Init>
		
		if(CPOL_bit == 0){
			//Setting SCK to idle state
			GPIO_Output_Clear(PD, (1<<7));
     cf4:	60 e8       	ldi	r22, 0x80	; 128
     cf6:	89 e2       	ldi	r24, 0x29	; 41
     cf8:	90 e0       	ldi	r25, 0x00	; 0
     cfa:	0e 94 76 02 	call	0x4ec	; 0x4ec <GPIO_Output_Clear>
			GPIO_Output_Init(PD, (1<<7));
     cfe:	60 e8       	ldi	r22, 0x80	; 128
     d00:	89 e2       	ldi	r24, 0x29	; 41
     d02:	90 e0       	ldi	r25, 0x00	; 0
     d04:	0e 94 6c 02 	call	0x4d8	; 0x4d8 <GPIO_Output_Init>
			GPIO_Output_Init(PD, (0<<7));
		}
	}
	
	return return_value;
}
     d08:	81 2f       	mov	r24, r17
     d0a:	df 91       	pop	r29
     d0c:	cf 91       	pop	r28
     d0e:	1f 91       	pop	r17
     d10:	08 95       	ret

00000d12 <SPI_Transfer>:

uint8_t SPI_Transfer(uint8_t volatile *SPI_addr, uint8_t send_value){
     d12:	fc 01       	movw	r30, r24
	uint8_t status;
	
	*(SPI_addr + SPDR) = send_value;
     d14:	62 83       	std	Z+2, r22	; 0x02
	
	do{
		status = *(SPI_addr + SPSR);
     d16:	91 81       	ldd	r25, Z+1	; 0x01
	}while((status & 0x80) == 0);
     d18:	99 23       	and	r25, r25
     d1a:	ec f7       	brge	.-6      	; 0xd16 <SPI_Transfer+0x4>
	
	return *(SPI_addr + SPDR);
     d1c:	82 81       	ldd	r24, Z+2	; 0x02
}
     d1e:	08 95       	ret

00000d20 <TWI_Master_Init>:
#include "TWI.h"

uint8_t TWI_Master_Init(volatile TWI_t * TWI_addr, uint32_t I2C_freq){
     d20:	cf 92       	push	r12
     d22:	df 92       	push	r13
     d24:	ef 92       	push	r14
     d26:	ff 92       	push	r15
     d28:	cf 93       	push	r28
     d2a:	df 93       	push	r29
     d2c:	ec 01       	movw	r28, r24
     d2e:	9a 01       	movw	r18, r20
     d30:	ab 01       	movw	r20, r22
	uint16_t prescale = (((F_CPU/F_DIV)/I2C_freq)-16UL)/(2UL*255);
     d32:	60 e0       	ldi	r22, 0x00	; 0
     d34:	74 e2       	ldi	r23, 0x24	; 36
     d36:	84 ef       	ldi	r24, 0xF4	; 244
     d38:	90 e0       	ldi	r25, 0x00	; 0
     d3a:	0e 94 89 07 	call	0xf12	; 0xf12 <__udivmodsi4>
     d3e:	69 01       	movw	r12, r18
     d40:	7a 01       	movw	r14, r20
     d42:	80 e1       	ldi	r24, 0x10	; 16
     d44:	c8 1a       	sub	r12, r24
     d46:	d1 08       	sbc	r13, r1
     d48:	e1 08       	sbc	r14, r1
     d4a:	f1 08       	sbc	r15, r1
     d4c:	c7 01       	movw	r24, r14
     d4e:	b6 01       	movw	r22, r12
     d50:	2e ef       	ldi	r18, 0xFE	; 254
     d52:	31 e0       	ldi	r19, 0x01	; 1
     d54:	40 e0       	ldi	r20, 0x00	; 0
     d56:	50 e0       	ldi	r21, 0x00	; 0
     d58:	0e 94 89 07 	call	0xf12	; 0xf12 <__udivmodsi4>
	if(prescale < 1){
     d5c:	21 15       	cp	r18, r1
     d5e:	31 05       	cpc	r19, r1
     d60:	21 f4       	brne	.+8      	; 0xd6a <TWI_Master_Init+0x4a>
		TWI_addr->TWSR = 0b00;
     d62:	19 82       	std	Y+1, r1	; 0x01
		prescale = 1;
     d64:	21 e0       	ldi	r18, 0x01	; 1
     d66:	30 e0       	ldi	r19, 0x00	; 0
     d68:	1a c0       	rjmp	.+52     	; 0xd9e <TWI_Master_Init+0x7e>
	}
	else if(prescale < 4){
     d6a:	24 30       	cpi	r18, 0x04	; 4
     d6c:	31 05       	cpc	r19, r1
     d6e:	28 f4       	brcc	.+10     	; 0xd7a <TWI_Master_Init+0x5a>
		TWI_addr->TWSR = 0b01;
     d70:	81 e0       	ldi	r24, 0x01	; 1
     d72:	89 83       	std	Y+1, r24	; 0x01
		prescale = 4;
     d74:	24 e0       	ldi	r18, 0x04	; 4
     d76:	30 e0       	ldi	r19, 0x00	; 0
     d78:	12 c0       	rjmp	.+36     	; 0xd9e <TWI_Master_Init+0x7e>
	}
	else if (prescale < 16){
     d7a:	20 31       	cpi	r18, 0x10	; 16
     d7c:	31 05       	cpc	r19, r1
     d7e:	28 f4       	brcc	.+10     	; 0xd8a <TWI_Master_Init+0x6a>
		TWI_addr->TWSR = 0b10;
     d80:	82 e0       	ldi	r24, 0x02	; 2
     d82:	89 83       	std	Y+1, r24	; 0x01
		prescale = 16;
     d84:	20 e1       	ldi	r18, 0x10	; 16
     d86:	30 e0       	ldi	r19, 0x00	; 0
     d88:	0a c0       	rjmp	.+20     	; 0xd9e <TWI_Master_Init+0x7e>
	}
	else if (prescale < 64){
     d8a:	20 34       	cpi	r18, 0x40	; 64
     d8c:	31 05       	cpc	r19, r1
     d8e:	28 f4       	brcc	.+10     	; 0xd9a <TWI_Master_Init+0x7a>
		TWI_addr->TWSR = 0b11;
     d90:	83 e0       	ldi	r24, 0x03	; 3
     d92:	89 83       	std	Y+1, r24	; 0x01
		prescale = 64;
     d94:	20 e4       	ldi	r18, 0x40	; 64
     d96:	30 e0       	ldi	r19, 0x00	; 0
     d98:	02 c0       	rjmp	.+4      	; 0xd9e <TWI_Master_Init+0x7e>
	}
	else{
		return 0xFF;
     d9a:	8f ef       	ldi	r24, 0xFF	; 255
     d9c:	0e c0       	rjmp	.+28     	; 0xdba <TWI_Master_Init+0x9a>
	}
	
	TWI_addr->TWBR = (((F_CPU/F_DIV)/I2C_freq)-16UL)/(2UL*prescale);
     d9e:	c9 01       	movw	r24, r18
     da0:	a0 e0       	ldi	r26, 0x00	; 0
     da2:	b0 e0       	ldi	r27, 0x00	; 0
     da4:	9c 01       	movw	r18, r24
     da6:	ad 01       	movw	r20, r26
     da8:	22 0f       	add	r18, r18
     daa:	33 1f       	adc	r19, r19
     dac:	44 1f       	adc	r20, r20
     dae:	55 1f       	adc	r21, r21
     db0:	c7 01       	movw	r24, r14
     db2:	b6 01       	movw	r22, r12
     db4:	0e 94 89 07 	call	0xf12	; 0xf12 <__udivmodsi4>
     db8:	28 83       	st	Y, r18
}
     dba:	df 91       	pop	r29
     dbc:	cf 91       	pop	r28
     dbe:	ff 90       	pop	r15
     dc0:	ef 90       	pop	r14
     dc2:	df 90       	pop	r13
     dc4:	cf 90       	pop	r12
     dc6:	08 95       	ret

00000dc8 <UART_Init>:




void UART_Init (volatile UART_t * UART_addr, uint16_t Baud_Rate)
{
     dc8:	cf 93       	push	r28
     dca:	df 93       	push	r29
     dcc:	ec 01       	movw	r28, r24
	uint16_t Baud_Rate_Reload;
	Baud_Rate_Reload = (uint16_t)(((F_CPU/F_DIV)/(8UL*(2-U2X_bit)*Baud_Rate))-1);
     dce:	cb 01       	movw	r24, r22
     dd0:	a0 e0       	ldi	r26, 0x00	; 0
     dd2:	b0 e0       	ldi	r27, 0x00	; 0
     dd4:	88 0f       	add	r24, r24
     dd6:	99 1f       	adc	r25, r25
     dd8:	aa 1f       	adc	r26, r26
     dda:	bb 1f       	adc	r27, r27
     ddc:	88 0f       	add	r24, r24
     dde:	99 1f       	adc	r25, r25
     de0:	aa 1f       	adc	r26, r26
     de2:	bb 1f       	adc	r27, r27
     de4:	9c 01       	movw	r18, r24
     de6:	ad 01       	movw	r20, r26
     de8:	22 0f       	add	r18, r18
     dea:	33 1f       	adc	r19, r19
     dec:	44 1f       	adc	r20, r20
     dee:	55 1f       	adc	r21, r21
     df0:	22 0f       	add	r18, r18
     df2:	33 1f       	adc	r19, r19
     df4:	44 1f       	adc	r20, r20
     df6:	55 1f       	adc	r21, r21
     df8:	60 e0       	ldi	r22, 0x00	; 0
     dfa:	74 e2       	ldi	r23, 0x24	; 36
     dfc:	84 ef       	ldi	r24, 0xF4	; 244
     dfe:	90 e0       	ldi	r25, 0x00	; 0
     e00:	0e 94 89 07 	call	0xf12	; 0xf12 <__udivmodsi4>
     e04:	21 50       	subi	r18, 0x01	; 1
     e06:	31 09       	sbc	r19, r1
	
	(UART_addr->UBBRH) = (Baud_Rate_Reload / 256);
     e08:	3d 83       	std	Y+5, r19	; 0x05
	(UART_addr->UBBRL) = (Baud_Rate_Reload % 256);
     e0a:	2c 83       	std	Y+4, r18	; 0x04
		
	(UART_addr->UCSRA) = U2X_bit<<U2X_shift;
     e0c:	18 82       	st	Y, r1
	(UART_addr->UCSRC) = Asynchronous|No_Parity|One_Stop_Bit|Eight_Data_Bits;
     e0e:	86 e0       	ldi	r24, 0x06	; 6
     e10:	8a 83       	std	Y+2, r24	; 0x02
	(UART_addr->UCSRB) = RX_enable|TX_enable;
     e12:	88 e1       	ldi	r24, 0x18	; 24
     e14:	89 83       	std	Y+1, r24	; 0x01
}
     e16:	df 91       	pop	r29
     e18:	cf 91       	pop	r28
     e1a:	08 95       	ret

00000e1c <UART_Transmit>:

char UART_Transmit(volatile UART_t * UART_addr, char c)
{
     e1c:	fc 01       	movw	r30, r24
	uint8_t status;
	do
	{
		status=(UART_addr->UCSRA);
     e1e:	90 81       	ld	r25, Z
	} while ((status & (1 << UDRE))!=(1 << UDRE));
     e20:	95 ff       	sbrs	r25, 5
     e22:	fd cf       	rjmp	.-6      	; 0xe1e <UART_Transmit+0x2>
	(UART_addr->UDR) = c;
     e24:	66 83       	std	Z+6, r22	; 0x06
	return 0;
}
     e26:	80 e0       	ldi	r24, 0x00	; 0
     e28:	08 95       	ret

00000e2a <UART_Receive>:


char UART_Receive(volatile UART_t * UART_addr)
{
     e2a:	fc 01       	movw	r30, r24
	uint8_t status;
	do 
	{
		status=(UART_addr->UCSRA);
     e2c:	90 81       	ld	r25, Z
	} while ((status & (1 << RXC))!=(1 << RXC));
     e2e:	99 23       	and	r25, r25
     e30:	ec f7       	brge	.-6      	; 0xe2c <UART_Receive+0x2>
	return (UART_addr->UDR);  // return the value in the receive buffer
     e32:	86 81       	ldd	r24, Z+6	; 0x06
}
     e34:	08 95       	ret

00000e36 <Export_print_buffer>:

char * Export_print_buffer(void)
{
	
	return print_buffer;
}
     e36:	8c ed       	ldi	r24, 0xDC	; 220
     e38:	91 e0       	ldi	r25, 0x01	; 1
     e3a:	08 95       	ret

00000e3c <Copy_String_to_Buffer>:

uint8_t Copy_String_to_Buffer(const char flash_string[], uint8_t num_bytes, char buffer_p[])
{
     e3c:	cf 93       	push	r28
     e3e:	df 93       	push	r29
     e40:	dc 01       	movw	r26, r24
	uint8_t index;
	char value;
	if(num_bytes==0)
     e42:	61 11       	cpse	r22, r1
     e44:	1a c0       	rjmp	.+52     	; 0xe7a <Copy_String_to_Buffer+0x3e>
	{
		index=0;
		do
		{
			value=pgm_read_byte(&flash_string[index]);
     e46:	26 2f       	mov	r18, r22
     e48:	30 e0       	ldi	r19, 0x00	; 0
     e4a:	fd 01       	movw	r30, r26
     e4c:	e2 0f       	add	r30, r18
     e4e:	f3 1f       	adc	r31, r19
     e50:	e4 91       	lpm	r30, Z
			buffer_p[index]=value;
     e52:	ea 01       	movw	r28, r20
     e54:	c2 0f       	add	r28, r18
     e56:	d3 1f       	adc	r29, r19
     e58:	e8 83       	st	Y, r30
			index++;
     e5a:	6f 5f       	subi	r22, 0xFF	; 255
		} while (value!=0);
     e5c:	e1 11       	cpse	r30, r1
     e5e:	f3 cf       	rjmp	.-26     	; 0xe46 <Copy_String_to_Buffer+0xa>
     e60:	0f c0       	rjmp	.+30     	; 0xe80 <Copy_String_to_Buffer+0x44>
	}
	else
	{
		for(index=0;index<num_bytes;index++)
		{
			value=pgm_read_byte(&flash_string[index]);
     e62:	29 2f       	mov	r18, r25
     e64:	30 e0       	ldi	r19, 0x00	; 0
     e66:	fd 01       	movw	r30, r26
     e68:	e2 0f       	add	r30, r18
     e6a:	f3 1f       	adc	r31, r19
     e6c:	e4 91       	lpm	r30, Z
			buffer_p[index]=value;
     e6e:	ea 01       	movw	r28, r20
     e70:	c2 0f       	add	r28, r18
     e72:	d3 1f       	adc	r29, r19
     e74:	e8 83       	st	Y, r30
			index++;
		} while (value!=0);
	}
	else
	{
		for(index=0;index<num_bytes;index++)
     e76:	9f 5f       	subi	r25, 0xFF	; 255
     e78:	01 c0       	rjmp	.+2      	; 0xe7c <Copy_String_to_Buffer+0x40>
     e7a:	90 e0       	ldi	r25, 0x00	; 0
     e7c:	96 17       	cp	r25, r22
     e7e:	88 f3       	brcs	.-30     	; 0xe62 <Copy_String_to_Buffer+0x26>
			buffer_p[index]=value;
		}
		index=num_bytes;
	}
	return index;
}
     e80:	86 2f       	mov	r24, r22
     e82:	df 91       	pop	r29
     e84:	cf 91       	pop	r28
     e86:	08 95       	ret

00000e88 <UART_Transmit_String>:

void UART_Transmit_String(volatile UART_t * UART_addr, uint8_t num_bytes, char * string_name)
{
     e88:	ef 92       	push	r14
     e8a:	ff 92       	push	r15
     e8c:	0f 93       	push	r16
     e8e:	1f 93       	push	r17
     e90:	cf 93       	push	r28
     e92:	df 93       	push	r29
     e94:	7c 01       	movw	r14, r24
     e96:	06 2f       	mov	r16, r22
     e98:	ea 01       	movw	r28, r20
	char temp8;
	int8_t index;
	if(num_bytes==0)
     e9a:	61 11       	cpse	r22, r1
     e9c:	15 c0       	rjmp	.+42     	; 0xec8 <UART_Transmit_String+0x40>
	{
		temp8=*string_name;
     e9e:	68 81       	ld	r22, Y
		while (temp8!=0)
     ea0:	05 c0       	rjmp	.+10     	; 0xeac <UART_Transmit_String+0x24>
		{
			UART_Transmit(UART_addr, temp8);
     ea2:	c7 01       	movw	r24, r14
     ea4:	0e 94 0e 07 	call	0xe1c	; 0xe1c <UART_Transmit>
			string_name++;
     ea8:	21 96       	adiw	r28, 0x01	; 1
			temp8=*string_name;
     eaa:	68 81       	ld	r22, Y
	char temp8;
	int8_t index;
	if(num_bytes==0)
	{
		temp8=*string_name;
		while (temp8!=0)
     eac:	61 11       	cpse	r22, r1
     eae:	f9 cf       	rjmp	.-14     	; 0xea2 <UART_Transmit_String+0x1a>
     eb0:	15 c0       	rjmp	.+42     	; 0xedc <UART_Transmit_String+0x54>
	}
	else
	{
		for(index=0;index<num_bytes;index++)
		{
			UART_Transmit(UART_addr, string_name[index]);
     eb2:	fe 01       	movw	r30, r28
     eb4:	e1 0f       	add	r30, r17
     eb6:	f1 1d       	adc	r31, r1
     eb8:	17 fd       	sbrc	r17, 7
     eba:	fa 95       	dec	r31
     ebc:	60 81       	ld	r22, Z
     ebe:	c7 01       	movw	r24, r14
     ec0:	0e 94 0e 07 	call	0xe1c	; 0xe1c <UART_Transmit>
			temp8=*string_name;
		}
	}
	else
	{
		for(index=0;index<num_bytes;index++)
     ec4:	1f 5f       	subi	r17, 0xFF	; 255
     ec6:	01 c0       	rjmp	.+2      	; 0xeca <UART_Transmit_String+0x42>
     ec8:	10 e0       	ldi	r17, 0x00	; 0
     eca:	20 2f       	mov	r18, r16
     ecc:	30 e0       	ldi	r19, 0x00	; 0
     ece:	81 2f       	mov	r24, r17
     ed0:	01 2e       	mov	r0, r17
     ed2:	00 0c       	add	r0, r0
     ed4:	99 0b       	sbc	r25, r25
     ed6:	82 17       	cp	r24, r18
     ed8:	93 07       	cpc	r25, r19
     eda:	5c f3       	brlt	.-42     	; 0xeb2 <UART_Transmit_String+0x2a>
		{
			UART_Transmit(UART_addr, string_name[index]);
		}
	}
}
     edc:	df 91       	pop	r29
     ede:	cf 91       	pop	r28
     ee0:	1f 91       	pop	r17
     ee2:	0f 91       	pop	r16
     ee4:	ff 90       	pop	r15
     ee6:	ef 90       	pop	r14
     ee8:	08 95       	ret

00000eea <__udivmodhi4>:
     eea:	aa 1b       	sub	r26, r26
     eec:	bb 1b       	sub	r27, r27
     eee:	51 e1       	ldi	r21, 0x11	; 17
     ef0:	07 c0       	rjmp	.+14     	; 0xf00 <__udivmodhi4_ep>

00000ef2 <__udivmodhi4_loop>:
     ef2:	aa 1f       	adc	r26, r26
     ef4:	bb 1f       	adc	r27, r27
     ef6:	a6 17       	cp	r26, r22
     ef8:	b7 07       	cpc	r27, r23
     efa:	10 f0       	brcs	.+4      	; 0xf00 <__udivmodhi4_ep>
     efc:	a6 1b       	sub	r26, r22
     efe:	b7 0b       	sbc	r27, r23

00000f00 <__udivmodhi4_ep>:
     f00:	88 1f       	adc	r24, r24
     f02:	99 1f       	adc	r25, r25
     f04:	5a 95       	dec	r21
     f06:	a9 f7       	brne	.-22     	; 0xef2 <__udivmodhi4_loop>
     f08:	80 95       	com	r24
     f0a:	90 95       	com	r25
     f0c:	bc 01       	movw	r22, r24
     f0e:	cd 01       	movw	r24, r26
     f10:	08 95       	ret

00000f12 <__udivmodsi4>:
     f12:	a1 e2       	ldi	r26, 0x21	; 33
     f14:	1a 2e       	mov	r1, r26
     f16:	aa 1b       	sub	r26, r26
     f18:	bb 1b       	sub	r27, r27
     f1a:	fd 01       	movw	r30, r26
     f1c:	0d c0       	rjmp	.+26     	; 0xf38 <__udivmodsi4_ep>

00000f1e <__udivmodsi4_loop>:
     f1e:	aa 1f       	adc	r26, r26
     f20:	bb 1f       	adc	r27, r27
     f22:	ee 1f       	adc	r30, r30
     f24:	ff 1f       	adc	r31, r31
     f26:	a2 17       	cp	r26, r18
     f28:	b3 07       	cpc	r27, r19
     f2a:	e4 07       	cpc	r30, r20
     f2c:	f5 07       	cpc	r31, r21
     f2e:	20 f0       	brcs	.+8      	; 0xf38 <__udivmodsi4_ep>
     f30:	a2 1b       	sub	r26, r18
     f32:	b3 0b       	sbc	r27, r19
     f34:	e4 0b       	sbc	r30, r20
     f36:	f5 0b       	sbc	r31, r21

00000f38 <__udivmodsi4_ep>:
     f38:	66 1f       	adc	r22, r22
     f3a:	77 1f       	adc	r23, r23
     f3c:	88 1f       	adc	r24, r24
     f3e:	99 1f       	adc	r25, r25
     f40:	1a 94       	dec	r1
     f42:	69 f7       	brne	.-38     	; 0xf1e <__udivmodsi4_loop>
     f44:	60 95       	com	r22
     f46:	70 95       	com	r23
     f48:	80 95       	com	r24
     f4a:	90 95       	com	r25
     f4c:	9b 01       	movw	r18, r22
     f4e:	ac 01       	movw	r20, r24
     f50:	bd 01       	movw	r22, r26
     f52:	cf 01       	movw	r24, r30
     f54:	08 95       	ret

00000f56 <__muluhisi3>:
     f56:	0e 94 b6 07 	call	0xf6c	; 0xf6c <__umulhisi3>
     f5a:	a5 9f       	mul	r26, r21
     f5c:	90 0d       	add	r25, r0
     f5e:	b4 9f       	mul	r27, r20
     f60:	90 0d       	add	r25, r0
     f62:	a4 9f       	mul	r26, r20
     f64:	80 0d       	add	r24, r0
     f66:	91 1d       	adc	r25, r1
     f68:	11 24       	eor	r1, r1
     f6a:	08 95       	ret

00000f6c <__umulhisi3>:
     f6c:	a2 9f       	mul	r26, r18
     f6e:	b0 01       	movw	r22, r0
     f70:	b3 9f       	mul	r27, r19
     f72:	c0 01       	movw	r24, r0
     f74:	a3 9f       	mul	r26, r19
     f76:	70 0d       	add	r23, r0
     f78:	81 1d       	adc	r24, r1
     f7a:	11 24       	eor	r1, r1
     f7c:	91 1d       	adc	r25, r1
     f7e:	b2 9f       	mul	r27, r18
     f80:	70 0d       	add	r23, r0
     f82:	81 1d       	adc	r24, r1
     f84:	11 24       	eor	r1, r1
     f86:	91 1d       	adc	r25, r1
     f88:	08 95       	ret

00000f8a <atol>:
     f8a:	1f 93       	push	r17
     f8c:	fc 01       	movw	r30, r24
     f8e:	99 27       	eor	r25, r25
     f90:	88 27       	eor	r24, r24
     f92:	bc 01       	movw	r22, r24
     f94:	e8 94       	clt
     f96:	11 91       	ld	r17, Z+
     f98:	10 32       	cpi	r17, 0x20	; 32
     f9a:	e9 f3       	breq	.-6      	; 0xf96 <atol+0xc>
     f9c:	19 30       	cpi	r17, 0x09	; 9
     f9e:	10 f0       	brcs	.+4      	; 0xfa4 <atol+0x1a>
     fa0:	1e 30       	cpi	r17, 0x0E	; 14
     fa2:	c8 f3       	brcs	.-14     	; 0xf96 <atol+0xc>
     fa4:	1b 32       	cpi	r17, 0x2B	; 43
     fa6:	51 f0       	breq	.+20     	; 0xfbc <atol+0x32>
     fa8:	1d 32       	cpi	r17, 0x2D	; 45
     faa:	49 f4       	brne	.+18     	; 0xfbe <atol+0x34>
     fac:	68 94       	set
     fae:	06 c0       	rjmp	.+12     	; 0xfbc <atol+0x32>
     fb0:	0e 94 ec 07 	call	0xfd8	; 0xfd8 <__mulsi_const_10>
     fb4:	61 0f       	add	r22, r17
     fb6:	71 1d       	adc	r23, r1
     fb8:	81 1d       	adc	r24, r1
     fba:	91 1d       	adc	r25, r1
     fbc:	11 91       	ld	r17, Z+
     fbe:	10 53       	subi	r17, 0x30	; 48
     fc0:	1a 30       	cpi	r17, 0x0A	; 10
     fc2:	b0 f3       	brcs	.-20     	; 0xfb0 <atol+0x26>
     fc4:	3e f4       	brtc	.+14     	; 0xfd4 <atol+0x4a>
     fc6:	90 95       	com	r25
     fc8:	80 95       	com	r24
     fca:	70 95       	com	r23
     fcc:	61 95       	neg	r22
     fce:	7f 4f       	sbci	r23, 0xFF	; 255
     fd0:	8f 4f       	sbci	r24, 0xFF	; 255
     fd2:	9f 4f       	sbci	r25, 0xFF	; 255
     fd4:	1f 91       	pop	r17
     fd6:	08 95       	ret

00000fd8 <__mulsi_const_10>:
     fd8:	59 2f       	mov	r21, r25
     fda:	48 2f       	mov	r20, r24
     fdc:	37 2f       	mov	r19, r23
     fde:	26 2f       	mov	r18, r22
     fe0:	66 0f       	add	r22, r22
     fe2:	77 1f       	adc	r23, r23
     fe4:	88 1f       	adc	r24, r24
     fe6:	99 1f       	adc	r25, r25
     fe8:	66 0f       	add	r22, r22
     fea:	77 1f       	adc	r23, r23
     fec:	88 1f       	adc	r24, r24
     fee:	99 1f       	adc	r25, r25
     ff0:	62 0f       	add	r22, r18
     ff2:	73 1f       	adc	r23, r19
     ff4:	84 1f       	adc	r24, r20
     ff6:	95 1f       	adc	r25, r21
     ff8:	66 0f       	add	r22, r22
     ffa:	77 1f       	adc	r23, r23
     ffc:	88 1f       	adc	r24, r24
     ffe:	99 1f       	adc	r25, r25
    1000:	08 95       	ret

00001002 <sprintf>:
    1002:	ae e0       	ldi	r26, 0x0E	; 14
    1004:	b0 e0       	ldi	r27, 0x00	; 0
    1006:	e7 e0       	ldi	r30, 0x07	; 7
    1008:	f8 e0       	ldi	r31, 0x08	; 8
    100a:	0c 94 c2 0a 	jmp	0x1584	; 0x1584 <__prologue_saves__+0x1c>
    100e:	0d 89       	ldd	r16, Y+21	; 0x15
    1010:	1e 89       	ldd	r17, Y+22	; 0x16
    1012:	86 e0       	ldi	r24, 0x06	; 6
    1014:	8c 83       	std	Y+4, r24	; 0x04
    1016:	1a 83       	std	Y+2, r17	; 0x02
    1018:	09 83       	std	Y+1, r16	; 0x01
    101a:	8f ef       	ldi	r24, 0xFF	; 255
    101c:	9f e7       	ldi	r25, 0x7F	; 127
    101e:	9e 83       	std	Y+6, r25	; 0x06
    1020:	8d 83       	std	Y+5, r24	; 0x05
    1022:	ae 01       	movw	r20, r28
    1024:	47 5e       	subi	r20, 0xE7	; 231
    1026:	5f 4f       	sbci	r21, 0xFF	; 255
    1028:	6f 89       	ldd	r22, Y+23	; 0x17
    102a:	78 8d       	ldd	r23, Y+24	; 0x18
    102c:	ce 01       	movw	r24, r28
    102e:	01 96       	adiw	r24, 0x01	; 1
    1030:	0e 94 23 08 	call	0x1046	; 0x1046 <vfprintf>
    1034:	ef 81       	ldd	r30, Y+7	; 0x07
    1036:	f8 85       	ldd	r31, Y+8	; 0x08
    1038:	e0 0f       	add	r30, r16
    103a:	f1 1f       	adc	r31, r17
    103c:	10 82       	st	Z, r1
    103e:	2e 96       	adiw	r28, 0x0e	; 14
    1040:	e4 e0       	ldi	r30, 0x04	; 4
    1042:	0c 94 de 0a 	jmp	0x15bc	; 0x15bc <__epilogue_restores__+0x1c>

00001046 <vfprintf>:
    1046:	ab e0       	ldi	r26, 0x0B	; 11
    1048:	b0 e0       	ldi	r27, 0x00	; 0
    104a:	e9 e2       	ldi	r30, 0x29	; 41
    104c:	f8 e0       	ldi	r31, 0x08	; 8
    104e:	0c 94 b4 0a 	jmp	0x1568	; 0x1568 <__prologue_saves__>
    1052:	6c 01       	movw	r12, r24
    1054:	7b 01       	movw	r14, r22
    1056:	8a 01       	movw	r16, r20
    1058:	fc 01       	movw	r30, r24
    105a:	17 82       	std	Z+7, r1	; 0x07
    105c:	16 82       	std	Z+6, r1	; 0x06
    105e:	83 81       	ldd	r24, Z+3	; 0x03
    1060:	81 ff       	sbrs	r24, 1
    1062:	cc c1       	rjmp	.+920    	; 0x13fc <vfprintf+0x3b6>
    1064:	ce 01       	movw	r24, r28
    1066:	01 96       	adiw	r24, 0x01	; 1
    1068:	3c 01       	movw	r6, r24
    106a:	f6 01       	movw	r30, r12
    106c:	93 81       	ldd	r25, Z+3	; 0x03
    106e:	f7 01       	movw	r30, r14
    1070:	93 fd       	sbrc	r25, 3
    1072:	85 91       	lpm	r24, Z+
    1074:	93 ff       	sbrs	r25, 3
    1076:	81 91       	ld	r24, Z+
    1078:	7f 01       	movw	r14, r30
    107a:	88 23       	and	r24, r24
    107c:	09 f4       	brne	.+2      	; 0x1080 <vfprintf+0x3a>
    107e:	ba c1       	rjmp	.+884    	; 0x13f4 <vfprintf+0x3ae>
    1080:	85 32       	cpi	r24, 0x25	; 37
    1082:	39 f4       	brne	.+14     	; 0x1092 <vfprintf+0x4c>
    1084:	93 fd       	sbrc	r25, 3
    1086:	85 91       	lpm	r24, Z+
    1088:	93 ff       	sbrs	r25, 3
    108a:	81 91       	ld	r24, Z+
    108c:	7f 01       	movw	r14, r30
    108e:	85 32       	cpi	r24, 0x25	; 37
    1090:	29 f4       	brne	.+10     	; 0x109c <vfprintf+0x56>
    1092:	b6 01       	movw	r22, r12
    1094:	90 e0       	ldi	r25, 0x00	; 0
    1096:	0e 94 1a 0a 	call	0x1434	; 0x1434 <fputc>
    109a:	e7 cf       	rjmp	.-50     	; 0x106a <vfprintf+0x24>
    109c:	91 2c       	mov	r9, r1
    109e:	21 2c       	mov	r2, r1
    10a0:	31 2c       	mov	r3, r1
    10a2:	ff e1       	ldi	r31, 0x1F	; 31
    10a4:	f3 15       	cp	r31, r3
    10a6:	d8 f0       	brcs	.+54     	; 0x10de <vfprintf+0x98>
    10a8:	8b 32       	cpi	r24, 0x2B	; 43
    10aa:	79 f0       	breq	.+30     	; 0x10ca <vfprintf+0x84>
    10ac:	38 f4       	brcc	.+14     	; 0x10bc <vfprintf+0x76>
    10ae:	80 32       	cpi	r24, 0x20	; 32
    10b0:	79 f0       	breq	.+30     	; 0x10d0 <vfprintf+0x8a>
    10b2:	83 32       	cpi	r24, 0x23	; 35
    10b4:	a1 f4       	brne	.+40     	; 0x10de <vfprintf+0x98>
    10b6:	23 2d       	mov	r18, r3
    10b8:	20 61       	ori	r18, 0x10	; 16
    10ba:	1d c0       	rjmp	.+58     	; 0x10f6 <vfprintf+0xb0>
    10bc:	8d 32       	cpi	r24, 0x2D	; 45
    10be:	61 f0       	breq	.+24     	; 0x10d8 <vfprintf+0x92>
    10c0:	80 33       	cpi	r24, 0x30	; 48
    10c2:	69 f4       	brne	.+26     	; 0x10de <vfprintf+0x98>
    10c4:	23 2d       	mov	r18, r3
    10c6:	21 60       	ori	r18, 0x01	; 1
    10c8:	16 c0       	rjmp	.+44     	; 0x10f6 <vfprintf+0xb0>
    10ca:	83 2d       	mov	r24, r3
    10cc:	82 60       	ori	r24, 0x02	; 2
    10ce:	38 2e       	mov	r3, r24
    10d0:	e3 2d       	mov	r30, r3
    10d2:	e4 60       	ori	r30, 0x04	; 4
    10d4:	3e 2e       	mov	r3, r30
    10d6:	2a c0       	rjmp	.+84     	; 0x112c <vfprintf+0xe6>
    10d8:	f3 2d       	mov	r31, r3
    10da:	f8 60       	ori	r31, 0x08	; 8
    10dc:	1d c0       	rjmp	.+58     	; 0x1118 <vfprintf+0xd2>
    10de:	37 fc       	sbrc	r3, 7
    10e0:	2d c0       	rjmp	.+90     	; 0x113c <vfprintf+0xf6>
    10e2:	20 ed       	ldi	r18, 0xD0	; 208
    10e4:	28 0f       	add	r18, r24
    10e6:	2a 30       	cpi	r18, 0x0A	; 10
    10e8:	40 f0       	brcs	.+16     	; 0x10fa <vfprintf+0xb4>
    10ea:	8e 32       	cpi	r24, 0x2E	; 46
    10ec:	b9 f4       	brne	.+46     	; 0x111c <vfprintf+0xd6>
    10ee:	36 fc       	sbrc	r3, 6
    10f0:	81 c1       	rjmp	.+770    	; 0x13f4 <vfprintf+0x3ae>
    10f2:	23 2d       	mov	r18, r3
    10f4:	20 64       	ori	r18, 0x40	; 64
    10f6:	32 2e       	mov	r3, r18
    10f8:	19 c0       	rjmp	.+50     	; 0x112c <vfprintf+0xe6>
    10fa:	36 fe       	sbrs	r3, 6
    10fc:	06 c0       	rjmp	.+12     	; 0x110a <vfprintf+0xc4>
    10fe:	8a e0       	ldi	r24, 0x0A	; 10
    1100:	98 9e       	mul	r9, r24
    1102:	20 0d       	add	r18, r0
    1104:	11 24       	eor	r1, r1
    1106:	92 2e       	mov	r9, r18
    1108:	11 c0       	rjmp	.+34     	; 0x112c <vfprintf+0xe6>
    110a:	ea e0       	ldi	r30, 0x0A	; 10
    110c:	2e 9e       	mul	r2, r30
    110e:	20 0d       	add	r18, r0
    1110:	11 24       	eor	r1, r1
    1112:	22 2e       	mov	r2, r18
    1114:	f3 2d       	mov	r31, r3
    1116:	f0 62       	ori	r31, 0x20	; 32
    1118:	3f 2e       	mov	r3, r31
    111a:	08 c0       	rjmp	.+16     	; 0x112c <vfprintf+0xe6>
    111c:	8c 36       	cpi	r24, 0x6C	; 108
    111e:	21 f4       	brne	.+8      	; 0x1128 <vfprintf+0xe2>
    1120:	83 2d       	mov	r24, r3
    1122:	80 68       	ori	r24, 0x80	; 128
    1124:	38 2e       	mov	r3, r24
    1126:	02 c0       	rjmp	.+4      	; 0x112c <vfprintf+0xe6>
    1128:	88 36       	cpi	r24, 0x68	; 104
    112a:	41 f4       	brne	.+16     	; 0x113c <vfprintf+0xf6>
    112c:	f7 01       	movw	r30, r14
    112e:	93 fd       	sbrc	r25, 3
    1130:	85 91       	lpm	r24, Z+
    1132:	93 ff       	sbrs	r25, 3
    1134:	81 91       	ld	r24, Z+
    1136:	7f 01       	movw	r14, r30
    1138:	81 11       	cpse	r24, r1
    113a:	b3 cf       	rjmp	.-154    	; 0x10a2 <vfprintf+0x5c>
    113c:	98 2f       	mov	r25, r24
    113e:	9f 7d       	andi	r25, 0xDF	; 223
    1140:	95 54       	subi	r25, 0x45	; 69
    1142:	93 30       	cpi	r25, 0x03	; 3
    1144:	28 f4       	brcc	.+10     	; 0x1150 <vfprintf+0x10a>
    1146:	0c 5f       	subi	r16, 0xFC	; 252
    1148:	1f 4f       	sbci	r17, 0xFF	; 255
    114a:	9f e3       	ldi	r25, 0x3F	; 63
    114c:	99 83       	std	Y+1, r25	; 0x01
    114e:	0d c0       	rjmp	.+26     	; 0x116a <vfprintf+0x124>
    1150:	83 36       	cpi	r24, 0x63	; 99
    1152:	31 f0       	breq	.+12     	; 0x1160 <vfprintf+0x11a>
    1154:	83 37       	cpi	r24, 0x73	; 115
    1156:	71 f0       	breq	.+28     	; 0x1174 <vfprintf+0x12e>
    1158:	83 35       	cpi	r24, 0x53	; 83
    115a:	09 f0       	breq	.+2      	; 0x115e <vfprintf+0x118>
    115c:	59 c0       	rjmp	.+178    	; 0x1210 <vfprintf+0x1ca>
    115e:	21 c0       	rjmp	.+66     	; 0x11a2 <vfprintf+0x15c>
    1160:	f8 01       	movw	r30, r16
    1162:	80 81       	ld	r24, Z
    1164:	89 83       	std	Y+1, r24	; 0x01
    1166:	0e 5f       	subi	r16, 0xFE	; 254
    1168:	1f 4f       	sbci	r17, 0xFF	; 255
    116a:	88 24       	eor	r8, r8
    116c:	83 94       	inc	r8
    116e:	91 2c       	mov	r9, r1
    1170:	53 01       	movw	r10, r6
    1172:	13 c0       	rjmp	.+38     	; 0x119a <vfprintf+0x154>
    1174:	28 01       	movw	r4, r16
    1176:	f2 e0       	ldi	r31, 0x02	; 2
    1178:	4f 0e       	add	r4, r31
    117a:	51 1c       	adc	r5, r1
    117c:	f8 01       	movw	r30, r16
    117e:	a0 80       	ld	r10, Z
    1180:	b1 80       	ldd	r11, Z+1	; 0x01
    1182:	36 fe       	sbrs	r3, 6
    1184:	03 c0       	rjmp	.+6      	; 0x118c <vfprintf+0x146>
    1186:	69 2d       	mov	r22, r9
    1188:	70 e0       	ldi	r23, 0x00	; 0
    118a:	02 c0       	rjmp	.+4      	; 0x1190 <vfprintf+0x14a>
    118c:	6f ef       	ldi	r22, 0xFF	; 255
    118e:	7f ef       	ldi	r23, 0xFF	; 255
    1190:	c5 01       	movw	r24, r10
    1192:	0e 94 0f 0a 	call	0x141e	; 0x141e <strnlen>
    1196:	4c 01       	movw	r8, r24
    1198:	82 01       	movw	r16, r4
    119a:	f3 2d       	mov	r31, r3
    119c:	ff 77       	andi	r31, 0x7F	; 127
    119e:	3f 2e       	mov	r3, r31
    11a0:	16 c0       	rjmp	.+44     	; 0x11ce <vfprintf+0x188>
    11a2:	28 01       	movw	r4, r16
    11a4:	22 e0       	ldi	r18, 0x02	; 2
    11a6:	42 0e       	add	r4, r18
    11a8:	51 1c       	adc	r5, r1
    11aa:	f8 01       	movw	r30, r16
    11ac:	a0 80       	ld	r10, Z
    11ae:	b1 80       	ldd	r11, Z+1	; 0x01
    11b0:	36 fe       	sbrs	r3, 6
    11b2:	03 c0       	rjmp	.+6      	; 0x11ba <vfprintf+0x174>
    11b4:	69 2d       	mov	r22, r9
    11b6:	70 e0       	ldi	r23, 0x00	; 0
    11b8:	02 c0       	rjmp	.+4      	; 0x11be <vfprintf+0x178>
    11ba:	6f ef       	ldi	r22, 0xFF	; 255
    11bc:	7f ef       	ldi	r23, 0xFF	; 255
    11be:	c5 01       	movw	r24, r10
    11c0:	0e 94 04 0a 	call	0x1408	; 0x1408 <strnlen_P>
    11c4:	4c 01       	movw	r8, r24
    11c6:	f3 2d       	mov	r31, r3
    11c8:	f0 68       	ori	r31, 0x80	; 128
    11ca:	3f 2e       	mov	r3, r31
    11cc:	82 01       	movw	r16, r4
    11ce:	33 fc       	sbrc	r3, 3
    11d0:	1b c0       	rjmp	.+54     	; 0x1208 <vfprintf+0x1c2>
    11d2:	82 2d       	mov	r24, r2
    11d4:	90 e0       	ldi	r25, 0x00	; 0
    11d6:	88 16       	cp	r8, r24
    11d8:	99 06       	cpc	r9, r25
    11da:	b0 f4       	brcc	.+44     	; 0x1208 <vfprintf+0x1c2>
    11dc:	b6 01       	movw	r22, r12
    11de:	80 e2       	ldi	r24, 0x20	; 32
    11e0:	90 e0       	ldi	r25, 0x00	; 0
    11e2:	0e 94 1a 0a 	call	0x1434	; 0x1434 <fputc>
    11e6:	2a 94       	dec	r2
    11e8:	f4 cf       	rjmp	.-24     	; 0x11d2 <vfprintf+0x18c>
    11ea:	f5 01       	movw	r30, r10
    11ec:	37 fc       	sbrc	r3, 7
    11ee:	85 91       	lpm	r24, Z+
    11f0:	37 fe       	sbrs	r3, 7
    11f2:	81 91       	ld	r24, Z+
    11f4:	5f 01       	movw	r10, r30
    11f6:	b6 01       	movw	r22, r12
    11f8:	90 e0       	ldi	r25, 0x00	; 0
    11fa:	0e 94 1a 0a 	call	0x1434	; 0x1434 <fputc>
    11fe:	21 10       	cpse	r2, r1
    1200:	2a 94       	dec	r2
    1202:	21 e0       	ldi	r18, 0x01	; 1
    1204:	82 1a       	sub	r8, r18
    1206:	91 08       	sbc	r9, r1
    1208:	81 14       	cp	r8, r1
    120a:	91 04       	cpc	r9, r1
    120c:	71 f7       	brne	.-36     	; 0x11ea <vfprintf+0x1a4>
    120e:	e8 c0       	rjmp	.+464    	; 0x13e0 <vfprintf+0x39a>
    1210:	84 36       	cpi	r24, 0x64	; 100
    1212:	11 f0       	breq	.+4      	; 0x1218 <vfprintf+0x1d2>
    1214:	89 36       	cpi	r24, 0x69	; 105
    1216:	41 f5       	brne	.+80     	; 0x1268 <vfprintf+0x222>
    1218:	f8 01       	movw	r30, r16
    121a:	37 fe       	sbrs	r3, 7
    121c:	07 c0       	rjmp	.+14     	; 0x122c <vfprintf+0x1e6>
    121e:	60 81       	ld	r22, Z
    1220:	71 81       	ldd	r23, Z+1	; 0x01
    1222:	82 81       	ldd	r24, Z+2	; 0x02
    1224:	93 81       	ldd	r25, Z+3	; 0x03
    1226:	0c 5f       	subi	r16, 0xFC	; 252
    1228:	1f 4f       	sbci	r17, 0xFF	; 255
    122a:	08 c0       	rjmp	.+16     	; 0x123c <vfprintf+0x1f6>
    122c:	60 81       	ld	r22, Z
    122e:	71 81       	ldd	r23, Z+1	; 0x01
    1230:	07 2e       	mov	r0, r23
    1232:	00 0c       	add	r0, r0
    1234:	88 0b       	sbc	r24, r24
    1236:	99 0b       	sbc	r25, r25
    1238:	0e 5f       	subi	r16, 0xFE	; 254
    123a:	1f 4f       	sbci	r17, 0xFF	; 255
    123c:	f3 2d       	mov	r31, r3
    123e:	ff 76       	andi	r31, 0x6F	; 111
    1240:	3f 2e       	mov	r3, r31
    1242:	97 ff       	sbrs	r25, 7
    1244:	09 c0       	rjmp	.+18     	; 0x1258 <vfprintf+0x212>
    1246:	90 95       	com	r25
    1248:	80 95       	com	r24
    124a:	70 95       	com	r23
    124c:	61 95       	neg	r22
    124e:	7f 4f       	sbci	r23, 0xFF	; 255
    1250:	8f 4f       	sbci	r24, 0xFF	; 255
    1252:	9f 4f       	sbci	r25, 0xFF	; 255
    1254:	f0 68       	ori	r31, 0x80	; 128
    1256:	3f 2e       	mov	r3, r31
    1258:	2a e0       	ldi	r18, 0x0A	; 10
    125a:	30 e0       	ldi	r19, 0x00	; 0
    125c:	a3 01       	movw	r20, r6
    125e:	0e 94 56 0a 	call	0x14ac	; 0x14ac <__ultoa_invert>
    1262:	88 2e       	mov	r8, r24
    1264:	86 18       	sub	r8, r6
    1266:	45 c0       	rjmp	.+138    	; 0x12f2 <vfprintf+0x2ac>
    1268:	85 37       	cpi	r24, 0x75	; 117
    126a:	31 f4       	brne	.+12     	; 0x1278 <vfprintf+0x232>
    126c:	23 2d       	mov	r18, r3
    126e:	2f 7e       	andi	r18, 0xEF	; 239
    1270:	b2 2e       	mov	r11, r18
    1272:	2a e0       	ldi	r18, 0x0A	; 10
    1274:	30 e0       	ldi	r19, 0x00	; 0
    1276:	25 c0       	rjmp	.+74     	; 0x12c2 <vfprintf+0x27c>
    1278:	93 2d       	mov	r25, r3
    127a:	99 7f       	andi	r25, 0xF9	; 249
    127c:	b9 2e       	mov	r11, r25
    127e:	8f 36       	cpi	r24, 0x6F	; 111
    1280:	c1 f0       	breq	.+48     	; 0x12b2 <vfprintf+0x26c>
    1282:	18 f4       	brcc	.+6      	; 0x128a <vfprintf+0x244>
    1284:	88 35       	cpi	r24, 0x58	; 88
    1286:	79 f0       	breq	.+30     	; 0x12a6 <vfprintf+0x260>
    1288:	b5 c0       	rjmp	.+362    	; 0x13f4 <vfprintf+0x3ae>
    128a:	80 37       	cpi	r24, 0x70	; 112
    128c:	19 f0       	breq	.+6      	; 0x1294 <vfprintf+0x24e>
    128e:	88 37       	cpi	r24, 0x78	; 120
    1290:	21 f0       	breq	.+8      	; 0x129a <vfprintf+0x254>
    1292:	b0 c0       	rjmp	.+352    	; 0x13f4 <vfprintf+0x3ae>
    1294:	e9 2f       	mov	r30, r25
    1296:	e0 61       	ori	r30, 0x10	; 16
    1298:	be 2e       	mov	r11, r30
    129a:	b4 fe       	sbrs	r11, 4
    129c:	0d c0       	rjmp	.+26     	; 0x12b8 <vfprintf+0x272>
    129e:	fb 2d       	mov	r31, r11
    12a0:	f4 60       	ori	r31, 0x04	; 4
    12a2:	bf 2e       	mov	r11, r31
    12a4:	09 c0       	rjmp	.+18     	; 0x12b8 <vfprintf+0x272>
    12a6:	34 fe       	sbrs	r3, 4
    12a8:	0a c0       	rjmp	.+20     	; 0x12be <vfprintf+0x278>
    12aa:	29 2f       	mov	r18, r25
    12ac:	26 60       	ori	r18, 0x06	; 6
    12ae:	b2 2e       	mov	r11, r18
    12b0:	06 c0       	rjmp	.+12     	; 0x12be <vfprintf+0x278>
    12b2:	28 e0       	ldi	r18, 0x08	; 8
    12b4:	30 e0       	ldi	r19, 0x00	; 0
    12b6:	05 c0       	rjmp	.+10     	; 0x12c2 <vfprintf+0x27c>
    12b8:	20 e1       	ldi	r18, 0x10	; 16
    12ba:	30 e0       	ldi	r19, 0x00	; 0
    12bc:	02 c0       	rjmp	.+4      	; 0x12c2 <vfprintf+0x27c>
    12be:	20 e1       	ldi	r18, 0x10	; 16
    12c0:	32 e0       	ldi	r19, 0x02	; 2
    12c2:	f8 01       	movw	r30, r16
    12c4:	b7 fe       	sbrs	r11, 7
    12c6:	07 c0       	rjmp	.+14     	; 0x12d6 <vfprintf+0x290>
    12c8:	60 81       	ld	r22, Z
    12ca:	71 81       	ldd	r23, Z+1	; 0x01
    12cc:	82 81       	ldd	r24, Z+2	; 0x02
    12ce:	93 81       	ldd	r25, Z+3	; 0x03
    12d0:	0c 5f       	subi	r16, 0xFC	; 252
    12d2:	1f 4f       	sbci	r17, 0xFF	; 255
    12d4:	06 c0       	rjmp	.+12     	; 0x12e2 <vfprintf+0x29c>
    12d6:	60 81       	ld	r22, Z
    12d8:	71 81       	ldd	r23, Z+1	; 0x01
    12da:	80 e0       	ldi	r24, 0x00	; 0
    12dc:	90 e0       	ldi	r25, 0x00	; 0
    12de:	0e 5f       	subi	r16, 0xFE	; 254
    12e0:	1f 4f       	sbci	r17, 0xFF	; 255
    12e2:	a3 01       	movw	r20, r6
    12e4:	0e 94 56 0a 	call	0x14ac	; 0x14ac <__ultoa_invert>
    12e8:	88 2e       	mov	r8, r24
    12ea:	86 18       	sub	r8, r6
    12ec:	fb 2d       	mov	r31, r11
    12ee:	ff 77       	andi	r31, 0x7F	; 127
    12f0:	3f 2e       	mov	r3, r31
    12f2:	36 fe       	sbrs	r3, 6
    12f4:	0d c0       	rjmp	.+26     	; 0x1310 <vfprintf+0x2ca>
    12f6:	23 2d       	mov	r18, r3
    12f8:	2e 7f       	andi	r18, 0xFE	; 254
    12fa:	a2 2e       	mov	r10, r18
    12fc:	89 14       	cp	r8, r9
    12fe:	58 f4       	brcc	.+22     	; 0x1316 <vfprintf+0x2d0>
    1300:	34 fe       	sbrs	r3, 4
    1302:	0b c0       	rjmp	.+22     	; 0x131a <vfprintf+0x2d4>
    1304:	32 fc       	sbrc	r3, 2
    1306:	09 c0       	rjmp	.+18     	; 0x131a <vfprintf+0x2d4>
    1308:	83 2d       	mov	r24, r3
    130a:	8e 7e       	andi	r24, 0xEE	; 238
    130c:	a8 2e       	mov	r10, r24
    130e:	05 c0       	rjmp	.+10     	; 0x131a <vfprintf+0x2d4>
    1310:	b8 2c       	mov	r11, r8
    1312:	a3 2c       	mov	r10, r3
    1314:	03 c0       	rjmp	.+6      	; 0x131c <vfprintf+0x2d6>
    1316:	b8 2c       	mov	r11, r8
    1318:	01 c0       	rjmp	.+2      	; 0x131c <vfprintf+0x2d6>
    131a:	b9 2c       	mov	r11, r9
    131c:	a4 fe       	sbrs	r10, 4
    131e:	0f c0       	rjmp	.+30     	; 0x133e <vfprintf+0x2f8>
    1320:	fe 01       	movw	r30, r28
    1322:	e8 0d       	add	r30, r8
    1324:	f1 1d       	adc	r31, r1
    1326:	80 81       	ld	r24, Z
    1328:	80 33       	cpi	r24, 0x30	; 48
    132a:	21 f4       	brne	.+8      	; 0x1334 <vfprintf+0x2ee>
    132c:	9a 2d       	mov	r25, r10
    132e:	99 7e       	andi	r25, 0xE9	; 233
    1330:	a9 2e       	mov	r10, r25
    1332:	09 c0       	rjmp	.+18     	; 0x1346 <vfprintf+0x300>
    1334:	a2 fe       	sbrs	r10, 2
    1336:	06 c0       	rjmp	.+12     	; 0x1344 <vfprintf+0x2fe>
    1338:	b3 94       	inc	r11
    133a:	b3 94       	inc	r11
    133c:	04 c0       	rjmp	.+8      	; 0x1346 <vfprintf+0x300>
    133e:	8a 2d       	mov	r24, r10
    1340:	86 78       	andi	r24, 0x86	; 134
    1342:	09 f0       	breq	.+2      	; 0x1346 <vfprintf+0x300>
    1344:	b3 94       	inc	r11
    1346:	a3 fc       	sbrc	r10, 3
    1348:	11 c0       	rjmp	.+34     	; 0x136c <vfprintf+0x326>
    134a:	a0 fe       	sbrs	r10, 0
    134c:	06 c0       	rjmp	.+12     	; 0x135a <vfprintf+0x314>
    134e:	b2 14       	cp	r11, r2
    1350:	88 f4       	brcc	.+34     	; 0x1374 <vfprintf+0x32e>
    1352:	28 0c       	add	r2, r8
    1354:	92 2c       	mov	r9, r2
    1356:	9b 18       	sub	r9, r11
    1358:	0e c0       	rjmp	.+28     	; 0x1376 <vfprintf+0x330>
    135a:	b2 14       	cp	r11, r2
    135c:	60 f4       	brcc	.+24     	; 0x1376 <vfprintf+0x330>
    135e:	b6 01       	movw	r22, r12
    1360:	80 e2       	ldi	r24, 0x20	; 32
    1362:	90 e0       	ldi	r25, 0x00	; 0
    1364:	0e 94 1a 0a 	call	0x1434	; 0x1434 <fputc>
    1368:	b3 94       	inc	r11
    136a:	f7 cf       	rjmp	.-18     	; 0x135a <vfprintf+0x314>
    136c:	b2 14       	cp	r11, r2
    136e:	18 f4       	brcc	.+6      	; 0x1376 <vfprintf+0x330>
    1370:	2b 18       	sub	r2, r11
    1372:	02 c0       	rjmp	.+4      	; 0x1378 <vfprintf+0x332>
    1374:	98 2c       	mov	r9, r8
    1376:	21 2c       	mov	r2, r1
    1378:	a4 fe       	sbrs	r10, 4
    137a:	10 c0       	rjmp	.+32     	; 0x139c <vfprintf+0x356>
    137c:	b6 01       	movw	r22, r12
    137e:	80 e3       	ldi	r24, 0x30	; 48
    1380:	90 e0       	ldi	r25, 0x00	; 0
    1382:	0e 94 1a 0a 	call	0x1434	; 0x1434 <fputc>
    1386:	a2 fe       	sbrs	r10, 2
    1388:	17 c0       	rjmp	.+46     	; 0x13b8 <vfprintf+0x372>
    138a:	a1 fc       	sbrc	r10, 1
    138c:	03 c0       	rjmp	.+6      	; 0x1394 <vfprintf+0x34e>
    138e:	88 e7       	ldi	r24, 0x78	; 120
    1390:	90 e0       	ldi	r25, 0x00	; 0
    1392:	02 c0       	rjmp	.+4      	; 0x1398 <vfprintf+0x352>
    1394:	88 e5       	ldi	r24, 0x58	; 88
    1396:	90 e0       	ldi	r25, 0x00	; 0
    1398:	b6 01       	movw	r22, r12
    139a:	0c c0       	rjmp	.+24     	; 0x13b4 <vfprintf+0x36e>
    139c:	8a 2d       	mov	r24, r10
    139e:	86 78       	andi	r24, 0x86	; 134
    13a0:	59 f0       	breq	.+22     	; 0x13b8 <vfprintf+0x372>
    13a2:	a1 fe       	sbrs	r10, 1
    13a4:	02 c0       	rjmp	.+4      	; 0x13aa <vfprintf+0x364>
    13a6:	8b e2       	ldi	r24, 0x2B	; 43
    13a8:	01 c0       	rjmp	.+2      	; 0x13ac <vfprintf+0x366>
    13aa:	80 e2       	ldi	r24, 0x20	; 32
    13ac:	a7 fc       	sbrc	r10, 7
    13ae:	8d e2       	ldi	r24, 0x2D	; 45
    13b0:	b6 01       	movw	r22, r12
    13b2:	90 e0       	ldi	r25, 0x00	; 0
    13b4:	0e 94 1a 0a 	call	0x1434	; 0x1434 <fputc>
    13b8:	89 14       	cp	r8, r9
    13ba:	38 f4       	brcc	.+14     	; 0x13ca <vfprintf+0x384>
    13bc:	b6 01       	movw	r22, r12
    13be:	80 e3       	ldi	r24, 0x30	; 48
    13c0:	90 e0       	ldi	r25, 0x00	; 0
    13c2:	0e 94 1a 0a 	call	0x1434	; 0x1434 <fputc>
    13c6:	9a 94       	dec	r9
    13c8:	f7 cf       	rjmp	.-18     	; 0x13b8 <vfprintf+0x372>
    13ca:	8a 94       	dec	r8
    13cc:	f3 01       	movw	r30, r6
    13ce:	e8 0d       	add	r30, r8
    13d0:	f1 1d       	adc	r31, r1
    13d2:	80 81       	ld	r24, Z
    13d4:	b6 01       	movw	r22, r12
    13d6:	90 e0       	ldi	r25, 0x00	; 0
    13d8:	0e 94 1a 0a 	call	0x1434	; 0x1434 <fputc>
    13dc:	81 10       	cpse	r8, r1
    13de:	f5 cf       	rjmp	.-22     	; 0x13ca <vfprintf+0x384>
    13e0:	22 20       	and	r2, r2
    13e2:	09 f4       	brne	.+2      	; 0x13e6 <vfprintf+0x3a0>
    13e4:	42 ce       	rjmp	.-892    	; 0x106a <vfprintf+0x24>
    13e6:	b6 01       	movw	r22, r12
    13e8:	80 e2       	ldi	r24, 0x20	; 32
    13ea:	90 e0       	ldi	r25, 0x00	; 0
    13ec:	0e 94 1a 0a 	call	0x1434	; 0x1434 <fputc>
    13f0:	2a 94       	dec	r2
    13f2:	f6 cf       	rjmp	.-20     	; 0x13e0 <vfprintf+0x39a>
    13f4:	f6 01       	movw	r30, r12
    13f6:	86 81       	ldd	r24, Z+6	; 0x06
    13f8:	97 81       	ldd	r25, Z+7	; 0x07
    13fa:	02 c0       	rjmp	.+4      	; 0x1400 <vfprintf+0x3ba>
    13fc:	8f ef       	ldi	r24, 0xFF	; 255
    13fe:	9f ef       	ldi	r25, 0xFF	; 255
    1400:	2b 96       	adiw	r28, 0x0b	; 11
    1402:	e2 e1       	ldi	r30, 0x12	; 18
    1404:	0c 94 d0 0a 	jmp	0x15a0	; 0x15a0 <__epilogue_restores__>

00001408 <strnlen_P>:
    1408:	fc 01       	movw	r30, r24
    140a:	05 90       	lpm	r0, Z+
    140c:	61 50       	subi	r22, 0x01	; 1
    140e:	70 40       	sbci	r23, 0x00	; 0
    1410:	01 10       	cpse	r0, r1
    1412:	d8 f7       	brcc	.-10     	; 0x140a <strnlen_P+0x2>
    1414:	80 95       	com	r24
    1416:	90 95       	com	r25
    1418:	8e 0f       	add	r24, r30
    141a:	9f 1f       	adc	r25, r31
    141c:	08 95       	ret

0000141e <strnlen>:
    141e:	fc 01       	movw	r30, r24
    1420:	61 50       	subi	r22, 0x01	; 1
    1422:	70 40       	sbci	r23, 0x00	; 0
    1424:	01 90       	ld	r0, Z+
    1426:	01 10       	cpse	r0, r1
    1428:	d8 f7       	brcc	.-10     	; 0x1420 <strnlen+0x2>
    142a:	80 95       	com	r24
    142c:	90 95       	com	r25
    142e:	8e 0f       	add	r24, r30
    1430:	9f 1f       	adc	r25, r31
    1432:	08 95       	ret

00001434 <fputc>:
    1434:	0f 93       	push	r16
    1436:	1f 93       	push	r17
    1438:	cf 93       	push	r28
    143a:	df 93       	push	r29
    143c:	fb 01       	movw	r30, r22
    143e:	23 81       	ldd	r18, Z+3	; 0x03
    1440:	21 fd       	sbrc	r18, 1
    1442:	03 c0       	rjmp	.+6      	; 0x144a <fputc+0x16>
    1444:	8f ef       	ldi	r24, 0xFF	; 255
    1446:	9f ef       	ldi	r25, 0xFF	; 255
    1448:	2c c0       	rjmp	.+88     	; 0x14a2 <fputc+0x6e>
    144a:	22 ff       	sbrs	r18, 2
    144c:	16 c0       	rjmp	.+44     	; 0x147a <fputc+0x46>
    144e:	46 81       	ldd	r20, Z+6	; 0x06
    1450:	57 81       	ldd	r21, Z+7	; 0x07
    1452:	24 81       	ldd	r18, Z+4	; 0x04
    1454:	35 81       	ldd	r19, Z+5	; 0x05
    1456:	42 17       	cp	r20, r18
    1458:	53 07       	cpc	r21, r19
    145a:	44 f4       	brge	.+16     	; 0x146c <fputc+0x38>
    145c:	a0 81       	ld	r26, Z
    145e:	b1 81       	ldd	r27, Z+1	; 0x01
    1460:	9d 01       	movw	r18, r26
    1462:	2f 5f       	subi	r18, 0xFF	; 255
    1464:	3f 4f       	sbci	r19, 0xFF	; 255
    1466:	31 83       	std	Z+1, r19	; 0x01
    1468:	20 83       	st	Z, r18
    146a:	8c 93       	st	X, r24
    146c:	26 81       	ldd	r18, Z+6	; 0x06
    146e:	37 81       	ldd	r19, Z+7	; 0x07
    1470:	2f 5f       	subi	r18, 0xFF	; 255
    1472:	3f 4f       	sbci	r19, 0xFF	; 255
    1474:	37 83       	std	Z+7, r19	; 0x07
    1476:	26 83       	std	Z+6, r18	; 0x06
    1478:	14 c0       	rjmp	.+40     	; 0x14a2 <fputc+0x6e>
    147a:	8b 01       	movw	r16, r22
    147c:	ec 01       	movw	r28, r24
    147e:	fb 01       	movw	r30, r22
    1480:	00 84       	ldd	r0, Z+8	; 0x08
    1482:	f1 85       	ldd	r31, Z+9	; 0x09
    1484:	e0 2d       	mov	r30, r0
    1486:	09 95       	icall
    1488:	89 2b       	or	r24, r25
    148a:	e1 f6       	brne	.-72     	; 0x1444 <fputc+0x10>
    148c:	d8 01       	movw	r26, r16
    148e:	16 96       	adiw	r26, 0x06	; 6
    1490:	8d 91       	ld	r24, X+
    1492:	9c 91       	ld	r25, X
    1494:	17 97       	sbiw	r26, 0x07	; 7
    1496:	01 96       	adiw	r24, 0x01	; 1
    1498:	17 96       	adiw	r26, 0x07	; 7
    149a:	9c 93       	st	X, r25
    149c:	8e 93       	st	-X, r24
    149e:	16 97       	sbiw	r26, 0x06	; 6
    14a0:	ce 01       	movw	r24, r28
    14a2:	df 91       	pop	r29
    14a4:	cf 91       	pop	r28
    14a6:	1f 91       	pop	r17
    14a8:	0f 91       	pop	r16
    14aa:	08 95       	ret

000014ac <__ultoa_invert>:
    14ac:	fa 01       	movw	r30, r20
    14ae:	aa 27       	eor	r26, r26
    14b0:	28 30       	cpi	r18, 0x08	; 8
    14b2:	51 f1       	breq	.+84     	; 0x1508 <__ultoa_invert+0x5c>
    14b4:	20 31       	cpi	r18, 0x10	; 16
    14b6:	81 f1       	breq	.+96     	; 0x1518 <__ultoa_invert+0x6c>
    14b8:	e8 94       	clt
    14ba:	6f 93       	push	r22
    14bc:	6e 7f       	andi	r22, 0xFE	; 254
    14be:	6e 5f       	subi	r22, 0xFE	; 254
    14c0:	7f 4f       	sbci	r23, 0xFF	; 255
    14c2:	8f 4f       	sbci	r24, 0xFF	; 255
    14c4:	9f 4f       	sbci	r25, 0xFF	; 255
    14c6:	af 4f       	sbci	r26, 0xFF	; 255
    14c8:	b1 e0       	ldi	r27, 0x01	; 1
    14ca:	3e d0       	rcall	.+124    	; 0x1548 <__ultoa_invert+0x9c>
    14cc:	b4 e0       	ldi	r27, 0x04	; 4
    14ce:	3c d0       	rcall	.+120    	; 0x1548 <__ultoa_invert+0x9c>
    14d0:	67 0f       	add	r22, r23
    14d2:	78 1f       	adc	r23, r24
    14d4:	89 1f       	adc	r24, r25
    14d6:	9a 1f       	adc	r25, r26
    14d8:	a1 1d       	adc	r26, r1
    14da:	68 0f       	add	r22, r24
    14dc:	79 1f       	adc	r23, r25
    14de:	8a 1f       	adc	r24, r26
    14e0:	91 1d       	adc	r25, r1
    14e2:	a1 1d       	adc	r26, r1
    14e4:	6a 0f       	add	r22, r26
    14e6:	71 1d       	adc	r23, r1
    14e8:	81 1d       	adc	r24, r1
    14ea:	91 1d       	adc	r25, r1
    14ec:	a1 1d       	adc	r26, r1
    14ee:	20 d0       	rcall	.+64     	; 0x1530 <__ultoa_invert+0x84>
    14f0:	09 f4       	brne	.+2      	; 0x14f4 <__ultoa_invert+0x48>
    14f2:	68 94       	set
    14f4:	3f 91       	pop	r19
    14f6:	2a e0       	ldi	r18, 0x0A	; 10
    14f8:	26 9f       	mul	r18, r22
    14fa:	11 24       	eor	r1, r1
    14fc:	30 19       	sub	r19, r0
    14fe:	30 5d       	subi	r19, 0xD0	; 208
    1500:	31 93       	st	Z+, r19
    1502:	de f6       	brtc	.-74     	; 0x14ba <__ultoa_invert+0xe>
    1504:	cf 01       	movw	r24, r30
    1506:	08 95       	ret
    1508:	46 2f       	mov	r20, r22
    150a:	47 70       	andi	r20, 0x07	; 7
    150c:	40 5d       	subi	r20, 0xD0	; 208
    150e:	41 93       	st	Z+, r20
    1510:	b3 e0       	ldi	r27, 0x03	; 3
    1512:	0f d0       	rcall	.+30     	; 0x1532 <__ultoa_invert+0x86>
    1514:	c9 f7       	brne	.-14     	; 0x1508 <__ultoa_invert+0x5c>
    1516:	f6 cf       	rjmp	.-20     	; 0x1504 <__ultoa_invert+0x58>
    1518:	46 2f       	mov	r20, r22
    151a:	4f 70       	andi	r20, 0x0F	; 15
    151c:	40 5d       	subi	r20, 0xD0	; 208
    151e:	4a 33       	cpi	r20, 0x3A	; 58
    1520:	18 f0       	brcs	.+6      	; 0x1528 <__ultoa_invert+0x7c>
    1522:	49 5d       	subi	r20, 0xD9	; 217
    1524:	31 fd       	sbrc	r19, 1
    1526:	40 52       	subi	r20, 0x20	; 32
    1528:	41 93       	st	Z+, r20
    152a:	02 d0       	rcall	.+4      	; 0x1530 <__ultoa_invert+0x84>
    152c:	a9 f7       	brne	.-22     	; 0x1518 <__ultoa_invert+0x6c>
    152e:	ea cf       	rjmp	.-44     	; 0x1504 <__ultoa_invert+0x58>
    1530:	b4 e0       	ldi	r27, 0x04	; 4
    1532:	a6 95       	lsr	r26
    1534:	97 95       	ror	r25
    1536:	87 95       	ror	r24
    1538:	77 95       	ror	r23
    153a:	67 95       	ror	r22
    153c:	ba 95       	dec	r27
    153e:	c9 f7       	brne	.-14     	; 0x1532 <__ultoa_invert+0x86>
    1540:	00 97       	sbiw	r24, 0x00	; 0
    1542:	61 05       	cpc	r22, r1
    1544:	71 05       	cpc	r23, r1
    1546:	08 95       	ret
    1548:	9b 01       	movw	r18, r22
    154a:	ac 01       	movw	r20, r24
    154c:	0a 2e       	mov	r0, r26
    154e:	06 94       	lsr	r0
    1550:	57 95       	ror	r21
    1552:	47 95       	ror	r20
    1554:	37 95       	ror	r19
    1556:	27 95       	ror	r18
    1558:	ba 95       	dec	r27
    155a:	c9 f7       	brne	.-14     	; 0x154e <__ultoa_invert+0xa2>
    155c:	62 0f       	add	r22, r18
    155e:	73 1f       	adc	r23, r19
    1560:	84 1f       	adc	r24, r20
    1562:	95 1f       	adc	r25, r21
    1564:	a0 1d       	adc	r26, r0
    1566:	08 95       	ret

00001568 <__prologue_saves__>:
    1568:	2f 92       	push	r2
    156a:	3f 92       	push	r3
    156c:	4f 92       	push	r4
    156e:	5f 92       	push	r5
    1570:	6f 92       	push	r6
    1572:	7f 92       	push	r7
    1574:	8f 92       	push	r8
    1576:	9f 92       	push	r9
    1578:	af 92       	push	r10
    157a:	bf 92       	push	r11
    157c:	cf 92       	push	r12
    157e:	df 92       	push	r13
    1580:	ef 92       	push	r14
    1582:	ff 92       	push	r15
    1584:	0f 93       	push	r16
    1586:	1f 93       	push	r17
    1588:	cf 93       	push	r28
    158a:	df 93       	push	r29
    158c:	cd b7       	in	r28, 0x3d	; 61
    158e:	de b7       	in	r29, 0x3e	; 62
    1590:	ca 1b       	sub	r28, r26
    1592:	db 0b       	sbc	r29, r27
    1594:	0f b6       	in	r0, 0x3f	; 63
    1596:	f8 94       	cli
    1598:	de bf       	out	0x3e, r29	; 62
    159a:	0f be       	out	0x3f, r0	; 63
    159c:	cd bf       	out	0x3d, r28	; 61
    159e:	09 94       	ijmp

000015a0 <__epilogue_restores__>:
    15a0:	2a 88       	ldd	r2, Y+18	; 0x12
    15a2:	39 88       	ldd	r3, Y+17	; 0x11
    15a4:	48 88       	ldd	r4, Y+16	; 0x10
    15a6:	5f 84       	ldd	r5, Y+15	; 0x0f
    15a8:	6e 84       	ldd	r6, Y+14	; 0x0e
    15aa:	7d 84       	ldd	r7, Y+13	; 0x0d
    15ac:	8c 84       	ldd	r8, Y+12	; 0x0c
    15ae:	9b 84       	ldd	r9, Y+11	; 0x0b
    15b0:	aa 84       	ldd	r10, Y+10	; 0x0a
    15b2:	b9 84       	ldd	r11, Y+9	; 0x09
    15b4:	c8 84       	ldd	r12, Y+8	; 0x08
    15b6:	df 80       	ldd	r13, Y+7	; 0x07
    15b8:	ee 80       	ldd	r14, Y+6	; 0x06
    15ba:	fd 80       	ldd	r15, Y+5	; 0x05
    15bc:	0c 81       	ldd	r16, Y+4	; 0x04
    15be:	1b 81       	ldd	r17, Y+3	; 0x03
    15c0:	aa 81       	ldd	r26, Y+2	; 0x02
    15c2:	b9 81       	ldd	r27, Y+1	; 0x01
    15c4:	ce 0f       	add	r28, r30
    15c6:	d1 1d       	adc	r29, r1
    15c8:	0f b6       	in	r0, 0x3f	; 63
    15ca:	f8 94       	cli
    15cc:	de bf       	out	0x3e, r29	; 62
    15ce:	0f be       	out	0x3f, r0	; 63
    15d0:	cd bf       	out	0x3d, r28	; 61
    15d2:	ed 01       	movw	r28, r26
    15d4:	08 95       	ret

000015d6 <_exit>:
    15d6:	f8 94       	cli

000015d8 <__stop_program>:
    15d8:	ff cf       	rjmp	.-2      	; 0x15d8 <__stop_program>
